
program.bin:     ファイル形式 elf32-bigmips


セクション .text の逆アセンブル:

00000000 <__start__>:
       0:	3c1d0000 	lui	sp,0x0
       4:	37bdff00 	ori	sp,sp,0xff00
       8:	241c0000 	li	gp,0
       c:	3c1a0200 	lui	k0,0x200
      10:	375a0101 	ori	k0,k0,0x101
      14:	409a6000 	mtc0	k0,c0_sr
      18:	00000000 	nop
      1c:	00000000 	nop

00000020 <__reset__>:
      20:	27bdfff0 	addiu	sp,sp,-16
      24:	afbe000c 	sw	s8,12(sp)
      28:	03a0f025 	move	s8,sp
      2c:	3c020000 	lui	v0,0x0
      30:	24426380 	addiu	v0,v0,25472
      34:	afc20000 	sw	v0,0(s8)
      38:	3c020000 	lui	v0,0x0
      3c:	24424af0 	addiu	v0,v0,19184
      40:	1000000c 	b	74 <__reset__+0x54>
      44:	afc20004 	sw	v0,4(s8)
      48:	8fc30000 	lw	v1,0(s8)
      4c:	00000000 	nop
      50:	24620004 	addiu	v0,v1,4
      54:	afc20000 	sw	v0,0(s8)
      58:	8fc20004 	lw	v0,4(s8)
      5c:	00000000 	nop
      60:	24440004 	addiu	a0,v0,4
      64:	afc40004 	sw	a0,4(s8)
      68:	8c630000 	lw	v1,0(v1)
      6c:	00000000 	nop
      70:	ac430000 	sw	v1,0(v0)
      74:	8fc30004 	lw	v1,4(s8)
      78:	3c020000 	lui	v0,0x0
      7c:	24424b44 	addiu	v0,v0,19268
      80:	0062102b 	sltu	v0,v1,v0
      84:	1440fff0 	bnez	v0,48 <__reset__+0x28>
      88:	00000000 	nop
      8c:	3c020000 	lui	v0,0x0
      90:	24424b44 	addiu	v0,v0,19268
      94:	10000008 	b	b8 <__reset__+0x98>
      98:	afc20004 	sw	v0,4(s8)
      9c:	8fc20004 	lw	v0,4(s8)
      a0:	00000000 	nop
      a4:	ac400000 	sw	zero,0(v0)
      a8:	8fc20004 	lw	v0,4(s8)
      ac:	00000000 	nop
      b0:	24420004 	addiu	v0,v0,4
      b4:	afc20004 	sw	v0,4(s8)
      b8:	8fc30004 	lw	v1,4(s8)
      bc:	3c020000 	lui	v0,0x0
      c0:	24424b80 	addiu	v0,v0,19328
      c4:	0062102b 	sltu	v0,v1,v0
      c8:	1440fff4 	bnez	v0,9c <__reset__+0x7c>
      cc:	00000000 	nop
      d0:	080003c1 	j	f04 <main>
      d4:	00000000 	nop
      d8:	00000000 	nop
      dc:	03c0e825 	move	sp,s8
      e0:	8fbe000c 	lw	s8,12(sp)
      e4:	03e00008 	jr	ra
      e8:	27bd0010 	addiu	sp,sp,16
      ec:	00000000 	nop
      f0:	00000000 	nop
      f4:	00000000 	nop
      f8:	00000000 	nop
      fc:	00000000 	nop

00000100 <__vector__>:
     100:	03a0d025 	move	k0,sp
     104:	3c1d0000 	lui	sp,0x0
     108:	37bdc000 	ori	sp,sp,0xc000
     10c:	27bdff80 	addiu	sp,sp,-128
     110:	afba007c 	sw	k0,124(sp)
     114:	afa10078 	sw	at,120(sp)
     118:	afa20074 	sw	v0,116(sp)
     11c:	afa30070 	sw	v1,112(sp)
     120:	afa4006c 	sw	a0,108(sp)
     124:	afa50068 	sw	a1,104(sp)
     128:	afa60064 	sw	a2,100(sp)
     12c:	afa70060 	sw	a3,96(sp)
     130:	afa8005c 	sw	t0,92(sp)
     134:	afa90058 	sw	t1,88(sp)
     138:	afaa0054 	sw	t2,84(sp)
     13c:	afab0050 	sw	t3,80(sp)
     140:	afac004c 	sw	t4,76(sp)
     144:	afad0048 	sw	t5,72(sp)
     148:	afae0044 	sw	t6,68(sp)
     14c:	afaf0040 	sw	t7,64(sp)
     150:	afb0003c 	sw	s0,60(sp)
     154:	afb10038 	sw	s1,56(sp)
     158:	afb20034 	sw	s2,52(sp)
     15c:	afb30030 	sw	s3,48(sp)
     160:	afb4002c 	sw	s4,44(sp)
     164:	afb50028 	sw	s5,40(sp)
     168:	afb60024 	sw	s6,36(sp)
     16c:	afb70020 	sw	s7,32(sp)
     170:	afb8001c 	sw	t8,28(sp)
     174:	afb90018 	sw	t9,24(sp)
     178:	afbc0014 	sw	gp,20(sp)
     17c:	afbe0010 	sw	s8,16(sp)
     180:	afbf000c 	sw	ra,12(sp)
     184:	0c0000cd 	jal	334 <interrupt_handler>
     188:	00000000 	nop
     18c:	8fbf000c 	lw	ra,12(sp)
     190:	8fbe0010 	lw	s8,16(sp)
     194:	8fbc0014 	lw	gp,20(sp)
     198:	8fb90018 	lw	t9,24(sp)
     19c:	8fb8001c 	lw	t8,28(sp)
     1a0:	8fb70020 	lw	s7,32(sp)
     1a4:	8fb60024 	lw	s6,36(sp)
     1a8:	8fb50028 	lw	s5,40(sp)
     1ac:	8fb4002c 	lw	s4,44(sp)
     1b0:	8fb30030 	lw	s3,48(sp)
     1b4:	8fb20034 	lw	s2,52(sp)
     1b8:	8fb10038 	lw	s1,56(sp)
     1bc:	8fb0003c 	lw	s0,60(sp)
     1c0:	8faf0040 	lw	t7,64(sp)
     1c4:	8fae0044 	lw	t6,68(sp)
     1c8:	8fad0048 	lw	t5,72(sp)
     1cc:	8fac004c 	lw	t4,76(sp)
     1d0:	8fab0050 	lw	t3,80(sp)
     1d4:	8faa0054 	lw	t2,84(sp)
     1d8:	8fa90058 	lw	t1,88(sp)
     1dc:	8fa8005c 	lw	t0,92(sp)
     1e0:	8fa70060 	lw	a3,96(sp)
     1e4:	8fa60064 	lw	a2,100(sp)
     1e8:	8fa50068 	lw	a1,104(sp)
     1ec:	8fa4006c 	lw	a0,108(sp)
     1f0:	8fa30070 	lw	v1,112(sp)
     1f4:	8fa20074 	lw	v0,116(sp)
     1f8:	8fa10078 	lw	at,120(sp)
     1fc:	8fba007c 	lw	k0,124(sp)
     200:	00000000 	nop
     204:	0340e825 	move	sp,k0
     208:	401b7000 	mfc0	k1,c0_epc
     20c:	00000000 	nop
     210:	42000010 	c0	0x10
     214:	03600008 	jr	k1
     218:	00000000 	nop
     21c:	00000000 	nop

00000220 <memcpy>:
     220:	27bdfff0 	addiu	sp,sp,-16
     224:	afbe000c 	sw	s8,12(sp)
     228:	03a0f025 	move	s8,sp
     22c:	afc40010 	sw	a0,16(s8)
     230:	afc50014 	sw	a1,20(s8)
     234:	afc60018 	sw	a2,24(s8)
     238:	8fc20010 	lw	v0,16(s8)
     23c:	00000000 	nop
     240:	afc20000 	sw	v0,0(s8)
     244:	8fc20014 	lw	v0,20(s8)
     248:	00000000 	nop
     24c:	afc20004 	sw	v0,4(s8)
     250:	1000000c 	b	284 <memcpy+0x64>
     254:	00000000 	nop
     258:	8fc30004 	lw	v1,4(s8)
     25c:	00000000 	nop
     260:	24620001 	addiu	v0,v1,1
     264:	afc20004 	sw	v0,4(s8)
     268:	8fc20000 	lw	v0,0(s8)
     26c:	00000000 	nop
     270:	24440001 	addiu	a0,v0,1
     274:	afc40000 	sw	a0,0(s8)
     278:	80630000 	lb	v1,0(v1)
     27c:	00000000 	nop
     280:	a0430000 	sb	v1,0(v0)
     284:	8fc20018 	lw	v0,24(s8)
     288:	00000000 	nop
     28c:	2443ffff 	addiu	v1,v0,-1
     290:	afc30018 	sw	v1,24(s8)
     294:	1440fff0 	bnez	v0,258 <memcpy+0x38>
     298:	00000000 	nop
     29c:	8fc20010 	lw	v0,16(s8)
     2a0:	03c0e825 	move	sp,s8
     2a4:	8fbe000c 	lw	s8,12(sp)
     2a8:	27bd0010 	addiu	sp,sp,16
     2ac:	03e00008 	jr	ra
     2b0:	00000000 	nop

000002b4 <memset>:
     2b4:	27bdfff0 	addiu	sp,sp,-16
     2b8:	afbe000c 	sw	s8,12(sp)
     2bc:	03a0f025 	move	s8,sp
     2c0:	afc40010 	sw	a0,16(s8)
     2c4:	afc50014 	sw	a1,20(s8)
     2c8:	afc60018 	sw	a2,24(s8)
     2cc:	8fc20010 	lw	v0,16(s8)
     2d0:	00000000 	nop
     2d4:	afc20000 	sw	v0,0(s8)
     2d8:	1000000a 	b	304 <memset+0x50>
     2dc:	00000000 	nop
     2e0:	8fc20000 	lw	v0,0(s8)
     2e4:	00000000 	nop
     2e8:	24430001 	addiu	v1,v0,1
     2ec:	afc30000 	sw	v1,0(s8)
     2f0:	8fc30014 	lw	v1,20(s8)
     2f4:	00000000 	nop
     2f8:	00031e00 	sll	v1,v1,0x18
     2fc:	00031e03 	sra	v1,v1,0x18
     300:	a0430000 	sb	v1,0(v0)
     304:	8fc20018 	lw	v0,24(s8)
     308:	00000000 	nop
     30c:	2443ffff 	addiu	v1,v0,-1
     310:	afc30018 	sw	v1,24(s8)
     314:	1440fff2 	bnez	v0,2e0 <memset+0x2c>
     318:	00000000 	nop
     31c:	8fc20010 	lw	v0,16(s8)
     320:	03c0e825 	move	sp,s8
     324:	8fbe000c 	lw	s8,12(sp)
     328:	27bd0010 	addiu	sp,sp,16
     32c:	03e00008 	jr	ra
     330:	00000000 	nop

00000334 <interrupt_handler>:
     334:	27bdffc0 	addiu	sp,sp,-64
     338:	afbf003c 	sw	ra,60(sp)
     33c:	afbe0038 	sw	s8,56(sp)
     340:	03a0f025 	move	s8,sp
     344:	3c020000 	lui	v0,0x0
     348:	8c424b50 	lw	v0,19280(v0)
     34c:	00000000 	nop
     350:	24430001 	addiu	v1,v0,1
     354:	3c020000 	lui	v0,0x0
     358:	ac434b50 	sw	v1,19280(v0)
     35c:	3c020000 	lui	v0,0x0
     360:	8c424b70 	lw	v0,19312(v0)
     364:	00000000 	nop
     368:	1840000e 	blez	v0,3a4 <interrupt_handler+0x70>
     36c:	00000000 	nop
     370:	3c020000 	lui	v0,0x0
     374:	8c424b70 	lw	v0,19312(v0)
     378:	00000000 	nop
     37c:	2443ffff 	addiu	v1,v0,-1
     380:	3c020000 	lui	v0,0x0
     384:	ac434b70 	sw	v1,19312(v0)
     388:	3c020000 	lui	v0,0x0
     38c:	8c424b70 	lw	v0,19312(v0)
     390:	00000000 	nop
     394:	14400003 	bnez	v0,3a4 <interrupt_handler+0x70>
     398:	00000000 	nop
     39c:	0c000848 	jal	2120 <buzzer_stop>
     3a0:	00000000 	nop
     3a4:	3c020000 	lui	v0,0x0
     3a8:	8c434b44 	lw	v1,19268(v0)
     3ac:	24020001 	li	v0,1
     3b0:	14620009 	bne	v1,v0,3d8 <interrupt_handler+0xa4>
     3b4:	00000000 	nop
     3b8:	3c020000 	lui	v0,0x0
     3bc:	8c424b4c 	lw	v0,19276(v0)
     3c0:	00000000 	nop
     3c4:	00402025 	move	a0,v0
     3c8:	0c000581 	jal	1604 <draw_mode_select>
     3cc:	00000000 	nop
     3d0:	100002c3 	b	ee0 <interrupt_handler+0xbac>
     3d4:	00000000 	nop
     3d8:	3c020000 	lui	v0,0x0
     3dc:	8c434b44 	lw	v1,19268(v0)
     3e0:	24020002 	li	v0,2
     3e4:	1462009a 	bne	v1,v0,650 <interrupt_handler+0x31c>
     3e8:	00000000 	nop
     3ec:	0c000912 	jal	2448 <lcd_clear_vbuf>
     3f0:	00000000 	nop
     3f4:	afc00018 	sw	zero,24(s8)
     3f8:	afc0001c 	sw	zero,28(s8)
     3fc:	afc00020 	sw	zero,32(s8)
     400:	3c020000 	lui	v0,0x0
     404:	8c434b50 	lw	v1,19280(v0)
     408:	24020003 	li	v0,3
     40c:	0062001b 	divu	zero,v1,v0
     410:	14400002 	bnez	v0,41c <interrupt_handler+0xe8>
     414:	00000000 	nop
     418:	0007000d 	break	0x7
     41c:	00001010 	mfhi	v0
     420:	00001812 	mflo	v1
     424:	24020003 	li	v0,3
     428:	00000000 	nop
     42c:	0062001b 	divu	zero,v1,v0
     430:	14400002 	bnez	v0,43c <interrupt_handler+0x108>
     434:	00000000 	nop
     438:	0007000d 	break	0x7
     43c:	00001010 	mfhi	v0
     440:	afc20028 	sw	v0,40(s8)
     444:	8fc20028 	lw	v0,40(s8)
     448:	00000000 	nop
     44c:	14400007 	bnez	v0,46c <interrupt_handler+0x138>
     450:	00000000 	nop
     454:	240200ff 	li	v0,255
     458:	afc20018 	sw	v0,24(s8)
     45c:	afc0001c 	sw	zero,28(s8)
     460:	afc00020 	sw	zero,32(s8)
     464:	1000000f 	b	4a4 <interrupt_handler+0x170>
     468:	00000000 	nop
     46c:	8fc30028 	lw	v1,40(s8)
     470:	24020001 	li	v0,1
     474:	14620007 	bne	v1,v0,494 <interrupt_handler+0x160>
     478:	00000000 	nop
     47c:	afc00018 	sw	zero,24(s8)
     480:	240200ff 	li	v0,255
     484:	afc2001c 	sw	v0,28(s8)
     488:	afc00020 	sw	zero,32(s8)
     48c:	10000005 	b	4a4 <interrupt_handler+0x170>
     490:	00000000 	nop
     494:	afc00018 	sw	zero,24(s8)
     498:	afc0001c 	sw	zero,28(s8)
     49c:	240200ff 	li	v0,255
     4a0:	afc20020 	sw	v0,32(s8)
     4a4:	3c020000 	lui	v0,0x0
     4a8:	8c424b48 	lw	v0,19272(v0)
     4ac:	00000000 	nop
     4b0:	14400010 	bnez	v0,4f4 <interrupt_handler+0x1c0>
     4b4:	00000000 	nop
     4b8:	8fc20020 	lw	v0,32(s8)
     4bc:	00000000 	nop
     4c0:	afa20014 	sw	v0,20(sp)
     4c4:	8fc2001c 	lw	v0,28(s8)
     4c8:	00000000 	nop
     4cc:	afa20010 	sw	v0,16(sp)
     4d0:	8fc70018 	lw	a3,24(s8)
     4d4:	3c020000 	lui	v0,0x0
     4d8:	244649c0 	addiu	a2,v0,18880
     4dc:	24050001 	li	a1,1
     4e0:	24040002 	li	a0,2
     4e4:	0c000a49 	jal	2924 <lcd_puts_color>
     4e8:	00000000 	nop
     4ec:	10000022 	b	578 <interrupt_handler+0x244>
     4f0:	00000000 	nop
     4f4:	3c020000 	lui	v0,0x0
     4f8:	8c434b48 	lw	v1,19272(v0)
     4fc:	24020001 	li	v0,1
     500:	14620010 	bne	v1,v0,544 <interrupt_handler+0x210>
     504:	00000000 	nop
     508:	8fc20020 	lw	v0,32(s8)
     50c:	00000000 	nop
     510:	afa20014 	sw	v0,20(sp)
     514:	8fc2001c 	lw	v0,28(s8)
     518:	00000000 	nop
     51c:	afa20010 	sw	v0,16(sp)
     520:	8fc70018 	lw	a3,24(s8)
     524:	3c020000 	lui	v0,0x0
     528:	244649cc 	addiu	a2,v0,18892
     52c:	00002825 	move	a1,zero
     530:	24040002 	li	a0,2
     534:	0c000a49 	jal	2924 <lcd_puts_color>
     538:	00000000 	nop
     53c:	1000000e 	b	578 <interrupt_handler+0x244>
     540:	00000000 	nop
     544:	8fc20020 	lw	v0,32(s8)
     548:	00000000 	nop
     54c:	afa20014 	sw	v0,20(sp)
     550:	8fc2001c 	lw	v0,28(s8)
     554:	00000000 	nop
     558:	afa20010 	sw	v0,16(sp)
     55c:	8fc70018 	lw	a3,24(s8)
     560:	3c020000 	lui	v0,0x0
     564:	244649d8 	addiu	a2,v0,18904
     568:	00002825 	move	a1,zero
     56c:	24040002 	li	a0,2
     570:	0c000a49 	jal	2924 <lcd_puts_color>
     574:	00000000 	nop
     578:	3c020000 	lui	v0,0x0
     57c:	8c434b50 	lw	v1,19280(v0)
     580:	24020005 	li	v0,5
     584:	0062001b 	divu	zero,v1,v0
     588:	14400002 	bnez	v0,594 <interrupt_handler+0x260>
     58c:	00000000 	nop
     590:	0007000d 	break	0x7
     594:	00001010 	mfhi	v0
     598:	00001012 	mflo	v0
     59c:	30420001 	andi	v0,v0,0x1
     5a0:	10400017 	beqz	v0,600 <interrupt_handler+0x2cc>
     5a4:	00000000 	nop
     5a8:	afa00014 	sw	zero,20(sp)
     5ac:	240200ff 	li	v0,255
     5b0:	afa20010 	sw	v0,16(sp)
     5b4:	240700ff 	li	a3,255
     5b8:	3c020000 	lui	v0,0x0
     5bc:	244649e4 	addiu	a2,v0,18916
     5c0:	00002825 	move	a1,zero
     5c4:	24040004 	li	a0,4
     5c8:	0c000a49 	jal	2924 <lcd_puts_color>
     5cc:	00000000 	nop
     5d0:	afa00014 	sw	zero,20(sp)
     5d4:	240200ff 	li	v0,255
     5d8:	afa20010 	sw	v0,16(sp)
     5dc:	240700ff 	li	a3,255
     5e0:	3c020000 	lui	v0,0x0
     5e4:	244649ec 	addiu	a2,v0,18924
     5e8:	00002825 	move	a1,zero
     5ec:	24040005 	li	a0,5
     5f0:	0c000a49 	jal	2924 <lcd_puts_color>
     5f4:	00000000 	nop
     5f8:	10000239 	b	ee0 <interrupt_handler+0xbac>
     5fc:	00000000 	nop
     600:	afa00014 	sw	zero,20(sp)
     604:	afa00010 	sw	zero,16(sp)
     608:	240700ff 	li	a3,255
     60c:	3c020000 	lui	v0,0x0
     610:	244649e4 	addiu	a2,v0,18916
     614:	00002825 	move	a1,zero
     618:	24040004 	li	a0,4
     61c:	0c000a49 	jal	2924 <lcd_puts_color>
     620:	00000000 	nop
     624:	afa00014 	sw	zero,20(sp)
     628:	afa00010 	sw	zero,16(sp)
     62c:	240700ff 	li	a3,255
     630:	3c020000 	lui	v0,0x0
     634:	244649ec 	addiu	a2,v0,18924
     638:	00002825 	move	a1,zero
     63c:	24040005 	li	a0,5
     640:	0c000a49 	jal	2924 <lcd_puts_color>
     644:	00000000 	nop
     648:	10000225 	b	ee0 <interrupt_handler+0xbac>
     64c:	00000000 	nop
     650:	3c020000 	lui	v0,0x0
     654:	8c434b44 	lw	v1,19268(v0)
     658:	24020003 	li	v0,3
     65c:	14620182 	bne	v1,v0,c68 <interrupt_handler+0x934>
     660:	00000000 	nop
     664:	3c020000 	lui	v0,0x0
     668:	8c424b48 	lw	v0,19272(v0)
     66c:	00000000 	nop
     670:	14400179 	bnez	v0,c58 <interrupt_handler+0x924>
     674:	00000000 	nop
     678:	3c020000 	lui	v0,0x0
     67c:	8c434b18 	lw	v1,19224(v0)
     680:	24020001 	li	v0,1
     684:	1462000d 	bne	v1,v0,6bc <interrupt_handler+0x388>
     688:	00000000 	nop
     68c:	3c020000 	lui	v0,0x0
     690:	8c424afc 	lw	v0,19196(v0)
     694:	00000000 	nop
     698:	28420006 	slti	v0,v0,6
     69c:	14400007 	bnez	v0,6bc <interrupt_handler+0x388>
     6a0:	00000000 	nop
     6a4:	3c020000 	lui	v0,0x0
     6a8:	8c424afc 	lw	v0,19196(v0)
     6ac:	00000000 	nop
     6b0:	2443fffa 	addiu	v1,v0,-6
     6b4:	3c020000 	lui	v0,0x0
     6b8:	ac434afc 	sw	v1,19196(v0)
     6bc:	3c020000 	lui	v0,0x0
     6c0:	8c434b18 	lw	v1,19224(v0)
     6c4:	24020007 	li	v0,7
     6c8:	1462000d 	bne	v1,v0,700 <interrupt_handler+0x3cc>
     6cc:	00000000 	nop
     6d0:	3c020000 	lui	v0,0x0
     6d4:	8c424afc 	lw	v0,19196(v0)
     6d8:	00000000 	nop
     6dc:	2842002f 	slti	v0,v0,47
     6e0:	10400007 	beqz	v0,700 <interrupt_handler+0x3cc>
     6e4:	00000000 	nop
     6e8:	3c020000 	lui	v0,0x0
     6ec:	8c424afc 	lw	v0,19196(v0)
     6f0:	00000000 	nop
     6f4:	24430006 	addiu	v1,v0,6
     6f8:	3c020000 	lui	v0,0x0
     6fc:	ac434afc 	sw	v1,19196(v0)
     700:	3c020000 	lui	v0,0x0
     704:	8c434b18 	lw	v1,19224(v0)
     708:	24020004 	li	v0,4
     70c:	1462000d 	bne	v1,v0,744 <interrupt_handler+0x410>
     710:	00000000 	nop
     714:	3c020000 	lui	v0,0x0
     718:	8c424af8 	lw	v0,19192(v0)
     71c:	00000000 	nop
     720:	28420006 	slti	v0,v0,6
     724:	14400007 	bnez	v0,744 <interrupt_handler+0x410>
     728:	00000000 	nop
     72c:	3c020000 	lui	v0,0x0
     730:	8c424af8 	lw	v0,19192(v0)
     734:	00000000 	nop
     738:	2443fffa 	addiu	v1,v0,-6
     73c:	3c020000 	lui	v0,0x0
     740:	ac434af8 	sw	v1,19192(v0)
     744:	3c020000 	lui	v0,0x0
     748:	8c434b18 	lw	v1,19224(v0)
     74c:	24020005 	li	v0,5
     750:	1462000d 	bne	v1,v0,788 <interrupt_handler+0x454>
     754:	00000000 	nop
     758:	3c020000 	lui	v0,0x0
     75c:	8c424af8 	lw	v0,19192(v0)
     760:	00000000 	nop
     764:	28420028 	slti	v0,v0,40
     768:	10400007 	beqz	v0,788 <interrupt_handler+0x454>
     76c:	00000000 	nop
     770:	3c020000 	lui	v0,0x0
     774:	8c424af8 	lw	v0,19192(v0)
     778:	00000000 	nop
     77c:	24430006 	addiu	v1,v0,6
     780:	3c020000 	lui	v0,0x0
     784:	ac434af8 	sw	v1,19192(v0)
     788:	3c020000 	lui	v0,0x0
     78c:	8c434b1c 	lw	v1,19228(v0)
     790:	2402000a 	li	v0,10
     794:	1462000d 	bne	v1,v0,7cc <interrupt_handler+0x498>
     798:	00000000 	nop
     79c:	3c020000 	lui	v0,0x0
     7a0:	8c424b04 	lw	v0,19204(v0)
     7a4:	00000000 	nop
     7a8:	28420006 	slti	v0,v0,6
     7ac:	14400007 	bnez	v0,7cc <interrupt_handler+0x498>
     7b0:	00000000 	nop
     7b4:	3c020000 	lui	v0,0x0
     7b8:	8c424b04 	lw	v0,19204(v0)
     7bc:	00000000 	nop
     7c0:	2443fffa 	addiu	v1,v0,-6
     7c4:	3c020000 	lui	v0,0x0
     7c8:	ac434b04 	sw	v1,19204(v0)
     7cc:	3c020000 	lui	v0,0x0
     7d0:	8c434b1c 	lw	v1,19228(v0)
     7d4:	2402000c 	li	v0,12
     7d8:	1462000d 	bne	v1,v0,810 <interrupt_handler+0x4dc>
     7dc:	00000000 	nop
     7e0:	3c020000 	lui	v0,0x0
     7e4:	8c424b04 	lw	v0,19204(v0)
     7e8:	00000000 	nop
     7ec:	2842002f 	slti	v0,v0,47
     7f0:	10400007 	beqz	v0,810 <interrupt_handler+0x4dc>
     7f4:	00000000 	nop
     7f8:	3c020000 	lui	v0,0x0
     7fc:	8c424b04 	lw	v0,19204(v0)
     800:	00000000 	nop
     804:	24430006 	addiu	v1,v0,6
     808:	3c020000 	lui	v0,0x0
     80c:	ac434b04 	sw	v1,19204(v0)
     810:	3c020000 	lui	v0,0x0
     814:	8c434b1c 	lw	v1,19228(v0)
     818:	24020006 	li	v0,6
     81c:	1462000d 	bne	v1,v0,854 <interrupt_handler+0x520>
     820:	00000000 	nop
     824:	3c020000 	lui	v0,0x0
     828:	8c424b00 	lw	v0,19200(v0)
     82c:	00000000 	nop
     830:	28420033 	slti	v0,v0,51
     834:	14400007 	bnez	v0,854 <interrupt_handler+0x520>
     838:	00000000 	nop
     83c:	3c020000 	lui	v0,0x0
     840:	8c424b00 	lw	v0,19200(v0)
     844:	00000000 	nop
     848:	2443fffa 	addiu	v1,v0,-6
     84c:	3c020000 	lui	v0,0x0
     850:	ac434b00 	sw	v1,19200(v0)
     854:	3c020000 	lui	v0,0x0
     858:	8c434b1c 	lw	v1,19228(v0)
     85c:	2402000b 	li	v0,11
     860:	1462000d 	bne	v1,v0,898 <interrupt_handler+0x564>
     864:	00000000 	nop
     868:	3c020000 	lui	v0,0x0
     86c:	8c424b00 	lw	v0,19200(v0)
     870:	00000000 	nop
     874:	28420056 	slti	v0,v0,86
     878:	10400007 	beqz	v0,898 <interrupt_handler+0x564>
     87c:	00000000 	nop
     880:	3c020000 	lui	v0,0x0
     884:	8c424b00 	lw	v0,19200(v0)
     888:	00000000 	nop
     88c:	24430006 	addiu	v1,v0,6
     890:	3c020000 	lui	v0,0x0
     894:	ac434b00 	sw	v1,19200(v0)
     898:	3c020000 	lui	v0,0x0
     89c:	8c434b08 	lw	v1,19208(v0)
     8a0:	3c020000 	lui	v0,0x0
     8a4:	8c424b10 	lw	v0,19216(v0)
     8a8:	00000000 	nop
     8ac:	00621821 	addu	v1,v1,v0
     8b0:	3c020000 	lui	v0,0x0
     8b4:	ac434b08 	sw	v1,19208(v0)
     8b8:	3c020000 	lui	v0,0x0
     8bc:	8c434b0c 	lw	v1,19212(v0)
     8c0:	3c020000 	lui	v0,0x0
     8c4:	8c424b14 	lw	v0,19220(v0)
     8c8:	00000000 	nop
     8cc:	00621821 	addu	v1,v1,v0
     8d0:	3c020000 	lui	v0,0x0
     8d4:	ac434b0c 	sw	v1,19212(v0)
     8d8:	3c020000 	lui	v0,0x0
     8dc:	8c424b0c 	lw	v0,19212(v0)
     8e0:	00000000 	nop
     8e4:	28420006 	slti	v0,v0,6
     8e8:	1040000a 	beqz	v0,914 <interrupt_handler+0x5e0>
     8ec:	00000000 	nop
     8f0:	3c020000 	lui	v0,0x0
     8f4:	24030005 	li	v1,5
     8f8:	ac434b0c 	sw	v1,19212(v0)
     8fc:	3c020000 	lui	v0,0x0
     900:	8c424b14 	lw	v0,19220(v0)
     904:	00000000 	nop
     908:	00021823 	negu	v1,v0
     90c:	3c020000 	lui	v0,0x0
     910:	ac434b14 	sw	v1,19220(v0)
     914:	3c020000 	lui	v0,0x0
     918:	8c424b0c 	lw	v0,19212(v0)
     91c:	00000000 	nop
     920:	28420037 	slti	v0,v0,55
     924:	1440000a 	bnez	v0,950 <interrupt_handler+0x61c>
     928:	00000000 	nop
     92c:	3c020000 	lui	v0,0x0
     930:	24030037 	li	v1,55
     934:	ac434b0c 	sw	v1,19212(v0)
     938:	3c020000 	lui	v0,0x0
     93c:	8c424b14 	lw	v0,19220(v0)
     940:	00000000 	nop
     944:	00021823 	negu	v1,v0
     948:	3c020000 	lui	v0,0x0
     94c:	ac434b14 	sw	v1,19220(v0)
     950:	3c020000 	lui	v0,0x0
     954:	8c424af8 	lw	v0,19192(v0)
     958:	00000000 	nop
     95c:	24430008 	addiu	v1,v0,8
     960:	3c020000 	lui	v0,0x0
     964:	8c424b08 	lw	v0,19208(v0)
     968:	00000000 	nop
     96c:	0062102a 	slt	v0,v1,v0
     970:	14400031 	bnez	v0,a38 <interrupt_handler+0x704>
     974:	00000000 	nop
     978:	3c020000 	lui	v0,0x0
     97c:	8c424b08 	lw	v0,19208(v0)
     980:	00000000 	nop
     984:	24430004 	addiu	v1,v0,4
     988:	3c020000 	lui	v0,0x0
     98c:	8c424af8 	lw	v0,19192(v0)
     990:	00000000 	nop
     994:	0062102a 	slt	v0,v1,v0
     998:	14400027 	bnez	v0,a38 <interrupt_handler+0x704>
     99c:	00000000 	nop
     9a0:	3c020000 	lui	v0,0x0
     9a4:	8c424b0c 	lw	v0,19212(v0)
     9a8:	00000000 	nop
     9ac:	24430004 	addiu	v1,v0,4
     9b0:	3c020000 	lui	v0,0x0
     9b4:	8c424afc 	lw	v0,19196(v0)
     9b8:	00000000 	nop
     9bc:	0062102a 	slt	v0,v1,v0
     9c0:	1440001d 	bnez	v0,a38 <interrupt_handler+0x704>
     9c4:	00000000 	nop
     9c8:	3c020000 	lui	v0,0x0
     9cc:	8c424afc 	lw	v0,19196(v0)
     9d0:	00000000 	nop
     9d4:	2443000c 	addiu	v1,v0,12
     9d8:	3c020000 	lui	v0,0x0
     9dc:	8c424b0c 	lw	v0,19212(v0)
     9e0:	00000000 	nop
     9e4:	0062102a 	slt	v0,v1,v0
     9e8:	14400013 	bnez	v0,a38 <interrupt_handler+0x704>
     9ec:	00000000 	nop
     9f0:	3c020000 	lui	v0,0x0
     9f4:	8c424af8 	lw	v0,19192(v0)
     9f8:	00000000 	nop
     9fc:	24430008 	addiu	v1,v0,8
     a00:	3c020000 	lui	v0,0x0
     a04:	ac434b08 	sw	v1,19208(v0)
     a08:	3c020000 	lui	v0,0x0
     a0c:	8c424b10 	lw	v0,19216(v0)
     a10:	00000000 	nop
     a14:	00021823 	negu	v1,v0
     a18:	3c020000 	lui	v0,0x0
     a1c:	ac434b10 	sw	v1,19216(v0)
     a20:	24040008 	li	a0,8
     a24:	0c000838 	jal	20e0 <buzzer_play>
     a28:	00000000 	nop
     a2c:	3c020000 	lui	v0,0x0
     a30:	24030002 	li	v1,2
     a34:	ac434b70 	sw	v1,19312(v0)
     a38:	3c020000 	lui	v0,0x0
     a3c:	8c424b08 	lw	v0,19208(v0)
     a40:	00000000 	nop
     a44:	24430004 	addiu	v1,v0,4
     a48:	3c020000 	lui	v0,0x0
     a4c:	8c424b00 	lw	v0,19200(v0)
     a50:	00000000 	nop
     a54:	0062102a 	slt	v0,v1,v0
     a58:	14400031 	bnez	v0,b20 <interrupt_handler+0x7ec>
     a5c:	00000000 	nop
     a60:	3c020000 	lui	v0,0x0
     a64:	8c424b00 	lw	v0,19200(v0)
     a68:	00000000 	nop
     a6c:	24430008 	addiu	v1,v0,8
     a70:	3c020000 	lui	v0,0x0
     a74:	8c424b08 	lw	v0,19208(v0)
     a78:	00000000 	nop
     a7c:	0062102a 	slt	v0,v1,v0
     a80:	14400027 	bnez	v0,b20 <interrupt_handler+0x7ec>
     a84:	00000000 	nop
     a88:	3c020000 	lui	v0,0x0
     a8c:	8c424b0c 	lw	v0,19212(v0)
     a90:	00000000 	nop
     a94:	24430004 	addiu	v1,v0,4
     a98:	3c020000 	lui	v0,0x0
     a9c:	8c424b04 	lw	v0,19204(v0)
     aa0:	00000000 	nop
     aa4:	0062102a 	slt	v0,v1,v0
     aa8:	1440001d 	bnez	v0,b20 <interrupt_handler+0x7ec>
     aac:	00000000 	nop
     ab0:	3c020000 	lui	v0,0x0
     ab4:	8c424b04 	lw	v0,19204(v0)
     ab8:	00000000 	nop
     abc:	2443000c 	addiu	v1,v0,12
     ac0:	3c020000 	lui	v0,0x0
     ac4:	8c424b0c 	lw	v0,19212(v0)
     ac8:	00000000 	nop
     acc:	0062102a 	slt	v0,v1,v0
     ad0:	14400013 	bnez	v0,b20 <interrupt_handler+0x7ec>
     ad4:	00000000 	nop
     ad8:	3c020000 	lui	v0,0x0
     adc:	8c424b00 	lw	v0,19200(v0)
     ae0:	00000000 	nop
     ae4:	2443fffc 	addiu	v1,v0,-4
     ae8:	3c020000 	lui	v0,0x0
     aec:	ac434b08 	sw	v1,19208(v0)
     af0:	3c020000 	lui	v0,0x0
     af4:	8c424b10 	lw	v0,19216(v0)
     af8:	00000000 	nop
     afc:	00021823 	negu	v1,v0
     b00:	3c020000 	lui	v0,0x0
     b04:	ac434b10 	sw	v1,19216(v0)
     b08:	24040008 	li	a0,8
     b0c:	0c000838 	jal	20e0 <buzzer_play>
     b10:	00000000 	nop
     b14:	3c020000 	lui	v0,0x0
     b18:	24030002 	li	v1,2
     b1c:	ac434b70 	sw	v1,19312(v0)
     b20:	3c020000 	lui	v0,0x0
     b24:	8c424b08 	lw	v0,19208(v0)
     b28:	00000000 	nop
     b2c:	04410019 	bgez	v0,b94 <interrupt_handler+0x860>
     b30:	00000000 	nop
     b34:	3c020000 	lui	v0,0x0
     b38:	8c424b64 	lw	v0,19300(v0)
     b3c:	00000000 	nop
     b40:	24430001 	addiu	v1,v0,1
     b44:	3c020000 	lui	v0,0x0
     b48:	ac434b64 	sw	v1,19300(v0)
     b4c:	3c020000 	lui	v0,0x0
     b50:	2403002e 	li	v1,46
     b54:	ac434b08 	sw	v1,19208(v0)
     b58:	3c020000 	lui	v0,0x0
     b5c:	2403001a 	li	v1,26
     b60:	ac434b0c 	sw	v1,19212(v0)
     b64:	3c020000 	lui	v0,0x0
     b68:	24030003 	li	v1,3
     b6c:	ac434b10 	sw	v1,19216(v0)
     b70:	3c020000 	lui	v0,0x0
     b74:	24030002 	li	v1,2
     b78:	ac434b14 	sw	v1,19220(v0)
     b7c:	2404000d 	li	a0,13
     b80:	0c000838 	jal	20e0 <buzzer_play>
     b84:	00000000 	nop
     b88:	3c020000 	lui	v0,0x0
     b8c:	24030005 	li	v1,5
     b90:	ac434b70 	sw	v1,19312(v0)
     b94:	3c020000 	lui	v0,0x0
     b98:	8c424b08 	lw	v0,19208(v0)
     b9c:	00000000 	nop
     ba0:	2842005d 	slti	v0,v0,93
     ba4:	14400019 	bnez	v0,c0c <interrupt_handler+0x8d8>
     ba8:	00000000 	nop
     bac:	3c020000 	lui	v0,0x0
     bb0:	8c424b60 	lw	v0,19296(v0)
     bb4:	00000000 	nop
     bb8:	24430001 	addiu	v1,v0,1
     bbc:	3c020000 	lui	v0,0x0
     bc0:	ac434b60 	sw	v1,19296(v0)
     bc4:	3c020000 	lui	v0,0x0
     bc8:	2403002e 	li	v1,46
     bcc:	ac434b08 	sw	v1,19208(v0)
     bd0:	3c020000 	lui	v0,0x0
     bd4:	2403001a 	li	v1,26
     bd8:	ac434b0c 	sw	v1,19212(v0)
     bdc:	3c020000 	lui	v0,0x0
     be0:	2403fffd 	li	v1,-3
     be4:	ac434b10 	sw	v1,19216(v0)
     be8:	3c020000 	lui	v0,0x0
     bec:	24030002 	li	v1,2
     bf0:	ac434b14 	sw	v1,19220(v0)
     bf4:	2404000d 	li	a0,13
     bf8:	0c000838 	jal	20e0 <buzzer_play>
     bfc:	00000000 	nop
     c00:	3c020000 	lui	v0,0x0
     c04:	24030005 	li	v1,5
     c08:	ac434b70 	sw	v1,19312(v0)
     c0c:	3c020000 	lui	v0,0x0
     c10:	8c424b60 	lw	v0,19296(v0)
     c14:	00000000 	nop
     c18:	28420005 	slti	v0,v0,5
     c1c:	10400007 	beqz	v0,c3c <interrupt_handler+0x908>
     c20:	00000000 	nop
     c24:	3c020000 	lui	v0,0x0
     c28:	8c424b64 	lw	v0,19300(v0)
     c2c:	00000000 	nop
     c30:	28420005 	slti	v0,v0,5
     c34:	14400004 	bnez	v0,c48 <interrupt_handler+0x914>
     c38:	00000000 	nop
     c3c:	3c020000 	lui	v0,0x0
     c40:	24030004 	li	v1,4
     c44:	ac434b44 	sw	v1,19268(v0)
     c48:	0c000bcc 	jal	2f30 <draw_tennis_game>
     c4c:	00000000 	nop
     c50:	100000a3 	b	ee0 <interrupt_handler+0xbac>
     c54:	00000000 	nop
     c58:	0c000f0b 	jal	3c2c <squash_update>
     c5c:	00000000 	nop
     c60:	1000009f 	b	ee0 <interrupt_handler+0xbac>
     c64:	00000000 	nop
     c68:	3c020000 	lui	v0,0x0
     c6c:	8c434b44 	lw	v1,19268(v0)
     c70:	24020004 	li	v0,4
     c74:	1462009a 	bne	v1,v0,ee0 <interrupt_handler+0xbac>
     c78:	00000000 	nop
     c7c:	3c020000 	lui	v0,0x0
     c80:	8c424b48 	lw	v0,19272(v0)
     c84:	00000000 	nop
     c88:	1440008f 	bnez	v0,ec8 <interrupt_handler+0xb94>
     c8c:	00000000 	nop
     c90:	0c000912 	jal	2448 <lcd_clear_vbuf>
     c94:	00000000 	nop
     c98:	3c020000 	lui	v0,0x0
     c9c:	8c424b50 	lw	v0,19280(v0)
     ca0:	00000000 	nop
     ca4:	00021042 	srl	v0,v0,0x1
     ca8:	30420001 	andi	v0,v0,0x1
     cac:	afc20024 	sw	v0,36(s8)
     cb0:	240200ff 	li	v0,255
     cb4:	afa20014 	sw	v0,20(sp)
     cb8:	240200ff 	li	v0,255
     cbc:	afa20010 	sw	v0,16(sp)
     cc0:	240700ff 	li	a3,255
     cc4:	3c020000 	lui	v0,0x0
     cc8:	244649f8 	addiu	a2,v0,18936
     ccc:	00002825 	move	a1,zero
     cd0:	24040001 	li	a0,1
     cd4:	0c000a49 	jal	2924 <lcd_puts_color>
     cd8:	00000000 	nop
     cdc:	8fc20024 	lw	v0,36(s8)
     ce0:	00000000 	nop
     ce4:	1040000c 	beqz	v0,d18 <interrupt_handler+0x9e4>
     ce8:	00000000 	nop
     cec:	afa00014 	sw	zero,20(sp)
     cf0:	afa00010 	sw	zero,16(sp)
     cf4:	240700ff 	li	a3,255
     cf8:	3c020000 	lui	v0,0x0
     cfc:	24464a08 	addiu	a2,v0,18952
     d00:	00002825 	move	a1,zero
     d04:	24040002 	li	a0,2
     d08:	0c000a49 	jal	2924 <lcd_puts_color>
     d0c:	00000000 	nop
     d10:	1000000c 	b	d44 <interrupt_handler+0xa10>
     d14:	00000000 	nop
     d18:	240200ff 	li	v0,255
     d1c:	afa20014 	sw	v0,20(sp)
     d20:	240200ff 	li	v0,255
     d24:	afa20010 	sw	v0,16(sp)
     d28:	240700ff 	li	a3,255
     d2c:	3c020000 	lui	v0,0x0
     d30:	24464a08 	addiu	a2,v0,18952
     d34:	00002825 	move	a1,zero
     d38:	24040002 	li	a0,2
     d3c:	0c000a49 	jal	2924 <lcd_puts_color>
     d40:	00000000 	nop
     d44:	240200ff 	li	v0,255
     d48:	afa20014 	sw	v0,20(sp)
     d4c:	240200ff 	li	v0,255
     d50:	afa20010 	sw	v0,16(sp)
     d54:	240700ff 	li	a3,255
     d58:	3c020000 	lui	v0,0x0
     d5c:	244649f8 	addiu	a2,v0,18936
     d60:	00002825 	move	a1,zero
     d64:	24040003 	li	a0,3
     d68:	0c000a49 	jal	2924 <lcd_puts_color>
     d6c:	00000000 	nop
     d70:	3c020000 	lui	v0,0x0
     d74:	8c434b60 	lw	v1,19296(v0)
     d78:	3c020000 	lui	v0,0x0
     d7c:	8c424b64 	lw	v0,19300(v0)
     d80:	00000000 	nop
     d84:	0043102a 	slt	v0,v0,v1
     d88:	1040000d 	beqz	v0,dc0 <interrupt_handler+0xa8c>
     d8c:	00000000 	nop
     d90:	afa00014 	sw	zero,20(sp)
     d94:	240200ff 	li	v0,255
     d98:	afa20010 	sw	v0,16(sp)
     d9c:	00003825 	move	a3,zero
     da0:	3c020000 	lui	v0,0x0
     da4:	24464a18 	addiu	a2,v0,18968
     da8:	00002825 	move	a1,zero
     dac:	24040004 	li	a0,4
     db0:	0c000a49 	jal	2924 <lcd_puts_color>
     db4:	00000000 	nop
     db8:	1000000b 	b	de8 <interrupt_handler+0xab4>
     dbc:	00000000 	nop
     dc0:	afa00014 	sw	zero,20(sp)
     dc4:	24020080 	li	v0,128
     dc8:	afa20010 	sw	v0,16(sp)
     dcc:	240700ff 	li	a3,255
     dd0:	3c020000 	lui	v0,0x0
     dd4:	24464a28 	addiu	a2,v0,18984
     dd8:	00002825 	move	a1,zero
     ddc:	24040004 	li	a0,4
     de0:	0c000a49 	jal	2924 <lcd_puts_color>
     de4:	00000000 	nop
     de8:	24020053 	li	v0,83
     dec:	a3c2002c 	sb	v0,44(s8)
     df0:	24020043 	li	v0,67
     df4:	a3c2002d 	sb	v0,45(s8)
     df8:	2402004f 	li	v0,79
     dfc:	a3c2002e 	sb	v0,46(s8)
     e00:	24020052 	li	v0,82
     e04:	a3c2002f 	sb	v0,47(s8)
     e08:	24020045 	li	v0,69
     e0c:	a3c20030 	sb	v0,48(s8)
     e10:	2402003a 	li	v0,58
     e14:	a3c20031 	sb	v0,49(s8)
     e18:	3c020000 	lui	v0,0x0
     e1c:	8c424b60 	lw	v0,19296(v0)
     e20:	00000000 	nop
     e24:	304200ff 	andi	v0,v0,0xff
     e28:	24420030 	addiu	v0,v0,48
     e2c:	304200ff 	andi	v0,v0,0xff
     e30:	00021600 	sll	v0,v0,0x18
     e34:	00021603 	sra	v0,v0,0x18
     e38:	a3c20032 	sb	v0,50(s8)
     e3c:	2402002d 	li	v0,45
     e40:	a3c20033 	sb	v0,51(s8)
     e44:	3c020000 	lui	v0,0x0
     e48:	8c424b64 	lw	v0,19300(v0)
     e4c:	00000000 	nop
     e50:	304200ff 	andi	v0,v0,0xff
     e54:	24420030 	addiu	v0,v0,48
     e58:	304200ff 	andi	v0,v0,0xff
     e5c:	00021600 	sll	v0,v0,0x18
     e60:	00021603 	sra	v0,v0,0x18
     e64:	a3c20034 	sb	v0,52(s8)
     e68:	a3c00035 	sb	zero,53(s8)
     e6c:	27c3002c 	addiu	v1,s8,44
     e70:	afa00014 	sw	zero,20(sp)
     e74:	240200ff 	li	v0,255
     e78:	afa20010 	sw	v0,16(sp)
     e7c:	240700ff 	li	a3,255
     e80:	00603025 	move	a2,v1
     e84:	24050001 	li	a1,1
     e88:	24040006 	li	a0,6
     e8c:	0c000a49 	jal	2924 <lcd_puts_color>
     e90:	00000000 	nop
     e94:	240200ff 	li	v0,255
     e98:	afa20014 	sw	v0,20(sp)
     e9c:	240200ff 	li	v0,255
     ea0:	afa20010 	sw	v0,16(sp)
     ea4:	00003825 	move	a3,zero
     ea8:	3c020000 	lui	v0,0x0
     eac:	24464a38 	addiu	a2,v0,19000
     eb0:	00002825 	move	a1,zero
     eb4:	24040007 	li	a0,7
     eb8:	0c000a49 	jal	2924 <lcd_puts_color>
     ebc:	00000000 	nop
     ec0:	10000007 	b	ee0 <interrupt_handler+0xbac>
     ec4:	00000000 	nop
     ec8:	3c020000 	lui	v0,0x0
     ecc:	8c424b74 	lw	v0,19316(v0)
     ed0:	00000000 	nop
     ed4:	00402025 	move	a0,v0
     ed8:	0c0010d7 	jal	435c <draw_result_squash>
     edc:	00000000 	nop
     ee0:	0c000940 	jal	2500 <lcd_sync_vbuf>
     ee4:	00000000 	nop
     ee8:	00000000 	nop
     eec:	03c0e825 	move	sp,s8
     ef0:	8fbf003c 	lw	ra,60(sp)
     ef4:	8fbe0038 	lw	s8,56(sp)
     ef8:	27bd0040 	addiu	sp,sp,64
     efc:	03e00008 	jr	ra
     f00:	00000000 	nop

00000f04 <main>:
     f04:	27bdffc0 	addiu	sp,sp,-64
     f08:	afbf003c 	sw	ra,60(sp)
     f0c:	afbe0038 	sw	s8,56(sp)
     f10:	03a0f025 	move	s8,sp
     f14:	3402ff14 	li	v0,0xff14
     f18:	afc20014 	sw	v0,20(s8)
     f1c:	8fc20014 	lw	v0,20(s8)
     f20:	24030005 	li	v1,5
     f24:	ac430000 	sw	v1,0(v0)
     f28:	3c020001 	lui	v0,0x1
     f2c:	344486a0 	ori	a0,v0,0x86a0
     f30:	0c000856 	jal	2158 <lcd_wait>
     f34:	00000000 	nop
     f38:	8fc20014 	lw	v0,20(s8)
     f3c:	24030008 	li	v1,8
     f40:	ac430000 	sw	v1,0(v0)
     f44:	3c020002 	lui	v0,0x2
     f48:	344449f0 	ori	a0,v0,0x49f0
     f4c:	0c000856 	jal	2158 <lcd_wait>
     f50:	00000000 	nop
     f54:	8fc20014 	lw	v0,20(s8)
     f58:	2403000a 	li	v1,10
     f5c:	ac430000 	sw	v1,0(v0)
     f60:	3c020003 	lui	v0,0x3
     f64:	34440d40 	ori	a0,v0,0xd40
     f68:	0c000856 	jal	2158 <lcd_wait>
     f6c:	00000000 	nop
     f70:	8fc20014 	lw	v0,20(s8)
     f74:	2403000d 	li	v1,13
     f78:	ac430000 	sw	v1,0(v0)
     f7c:	3c020004 	lui	v0,0x4
     f80:	344493e0 	ori	a0,v0,0x93e0
     f84:	0c000856 	jal	2158 <lcd_wait>
     f88:	00000000 	nop
     f8c:	8fc20014 	lw	v0,20(s8)
     f90:	00000000 	nop
     f94:	ac400000 	sw	zero,0(v0)
     f98:	3c020003 	lui	v0,0x3
     f9c:	34440d40 	ori	a0,v0,0xd40
     fa0:	0c000856 	jal	2158 <lcd_wait>
     fa4:	00000000 	nop
     fa8:	8fc20014 	lw	v0,20(s8)
     fac:	24030008 	li	v1,8
     fb0:	ac430000 	sw	v1,0(v0)
     fb4:	3c020002 	lui	v0,0x2
     fb8:	344449f0 	ori	a0,v0,0x49f0
     fbc:	0c000856 	jal	2158 <lcd_wait>
     fc0:	00000000 	nop
     fc4:	8fc20014 	lw	v0,20(s8)
     fc8:	2403000a 	li	v1,10
     fcc:	ac430000 	sw	v1,0(v0)
     fd0:	3c020002 	lui	v0,0x2
     fd4:	344449f0 	ori	a0,v0,0x49f0
     fd8:	0c000856 	jal	2158 <lcd_wait>
     fdc:	00000000 	nop
     fe0:	8fc20014 	lw	v0,20(s8)
     fe4:	2403000c 	li	v1,12
     fe8:	ac430000 	sw	v1,0(v0)
     fec:	3c020004 	lui	v0,0x4
     ff0:	344493e0 	ori	a0,v0,0x93e0
     ff4:	0c000856 	jal	2158 <lcd_wait>
     ff8:	00000000 	nop
     ffc:	8fc20014 	lw	v0,20(s8)
    1000:	00000000 	nop
    1004:	ac400000 	sw	zero,0(v0)
    1008:	3c020001 	lui	v0,0x1
    100c:	344486a0 	ori	a0,v0,0x86a0
    1010:	0c000856 	jal	2158 <lcd_wait>
    1014:	00000000 	nop
    1018:	8fc20014 	lw	v0,20(s8)
    101c:	2403000d 	li	v1,13
    1020:	ac430000 	sw	v1,0(v0)
    1024:	3c020007 	lui	v0,0x7
    1028:	3444a120 	ori	a0,v0,0xa120
    102c:	0c000856 	jal	2158 <lcd_wait>
    1030:	00000000 	nop
    1034:	8fc20014 	lw	v0,20(s8)
    1038:	00000000 	nop
    103c:	ac400000 	sw	zero,0(v0)
    1040:	3c020001 	lui	v0,0x1
    1044:	344486a0 	ori	a0,v0,0x86a0
    1048:	0c000856 	jal	2158 <lcd_wait>
    104c:	00000000 	nop
    1050:	3c020000 	lui	v0,0x0
    1054:	8c424b44 	lw	v0,19268(v0)
    1058:	00000000 	nop
    105c:	1440000f 	bnez	v0,109c <main+0x198>
    1060:	00000000 	nop
    1064:	0c0008af 	jal	22bc <lcd_init>
    1068:	00000000 	nop
    106c:	3c020000 	lui	v0,0x0
    1070:	24030001 	li	v1,1
    1074:	ac434b44 	sw	v1,19268(v0)
    1078:	3c020000 	lui	v0,0x0
    107c:	ac404b4c 	sw	zero,19276(v0)
    1080:	0c0006ab 	jal	1aac <rotary_read>
    1084:	00000000 	nop
    1088:	00401825 	move	v1,v0
    108c:	3c020000 	lui	v0,0x0
    1090:	ac434af0 	sw	v1,19184(v0)
    1094:	1000ffee 	b	1050 <main+0x14c>
    1098:	00000000 	nop
    109c:	3c020000 	lui	v0,0x0
    10a0:	8c434b44 	lw	v1,19268(v0)
    10a4:	24020001 	li	v0,1
    10a8:	146200a9 	bne	v1,v0,1350 <main+0x44c>
    10ac:	00000000 	nop
    10b0:	0c00069a 	jal	1a68 <btn_check_3>
    10b4:	00000000 	nop
    10b8:	afc20028 	sw	v0,40(s8)
    10bc:	0c000689 	jal	1a24 <btn_check_2>
    10c0:	00000000 	nop
    10c4:	afc2002c 	sw	v0,44(s8)
    10c8:	0c000667 	jal	199c <btn_check_0>
    10cc:	00000000 	nop
    10d0:	afc20030 	sw	v0,48(s8)
    10d4:	8fc20028 	lw	v0,40(s8)
    10d8:	00000000 	nop
    10dc:	10400013 	beqz	v0,112c <main+0x228>
    10e0:	00000000 	nop
    10e4:	3c020000 	lui	v0,0x0
    10e8:	8c424b5c 	lw	v0,19292(v0)
    10ec:	00000000 	nop
    10f0:	1440000e 	bnez	v0,112c <main+0x228>
    10f4:	00000000 	nop
    10f8:	3c020000 	lui	v0,0x0
    10fc:	8c424b4c 	lw	v0,19276(v0)
    1100:	00000000 	nop
    1104:	18400009 	blez	v0,112c <main+0x228>
    1108:	00000000 	nop
    110c:	3c020000 	lui	v0,0x0
    1110:	8c424b4c 	lw	v0,19276(v0)
    1114:	00000000 	nop
    1118:	2443ffff 	addiu	v1,v0,-1
    111c:	3c020000 	lui	v0,0x0
    1120:	ac434b4c 	sw	v1,19276(v0)
    1124:	0c00081a 	jal	2068 <led_blink>
    1128:	00000000 	nop
    112c:	8fc2002c 	lw	v0,44(s8)
    1130:	00000000 	nop
    1134:	10400014 	beqz	v0,1188 <main+0x284>
    1138:	00000000 	nop
    113c:	3c020000 	lui	v0,0x0
    1140:	8c424b58 	lw	v0,19288(v0)
    1144:	00000000 	nop
    1148:	1440000f 	bnez	v0,1188 <main+0x284>
    114c:	00000000 	nop
    1150:	3c020000 	lui	v0,0x0
    1154:	8c424b4c 	lw	v0,19276(v0)
    1158:	00000000 	nop
    115c:	28420002 	slti	v0,v0,2
    1160:	10400009 	beqz	v0,1188 <main+0x284>
    1164:	00000000 	nop
    1168:	3c020000 	lui	v0,0x0
    116c:	8c424b4c 	lw	v0,19276(v0)
    1170:	00000000 	nop
    1174:	24430001 	addiu	v1,v0,1
    1178:	3c020000 	lui	v0,0x0
    117c:	ac434b4c 	sw	v1,19276(v0)
    1180:	0c00081a 	jal	2068 <led_blink>
    1184:	00000000 	nop
    1188:	0c0006ab 	jal	1aac <rotary_read>
    118c:	00000000 	nop
    1190:	afc20034 	sw	v0,52(s8)
    1194:	3c020000 	lui	v0,0x0
    1198:	8c424af0 	lw	v0,19184(v0)
    119c:	8fc30034 	lw	v1,52(s8)
    11a0:	00000000 	nop
    11a4:	00621023 	subu	v0,v1,v0
    11a8:	afc20010 	sw	v0,16(s8)
    11ac:	8fc20010 	lw	v0,16(s8)
    11b0:	00000000 	nop
    11b4:	28420081 	slti	v0,v0,129
    11b8:	14400007 	bnez	v0,11d8 <main+0x2d4>
    11bc:	00000000 	nop
    11c0:	8fc20010 	lw	v0,16(s8)
    11c4:	00000000 	nop
    11c8:	2442ff00 	addiu	v0,v0,-256
    11cc:	afc20010 	sw	v0,16(s8)
    11d0:	1000000a 	b	11fc <main+0x2f8>
    11d4:	00000000 	nop
    11d8:	8fc20010 	lw	v0,16(s8)
    11dc:	00000000 	nop
    11e0:	2842ff80 	slti	v0,v0,-128
    11e4:	10400005 	beqz	v0,11fc <main+0x2f8>
    11e8:	00000000 	nop
    11ec:	8fc20010 	lw	v0,16(s8)
    11f0:	00000000 	nop
    11f4:	24420100 	addiu	v0,v0,256
    11f8:	afc20010 	sw	v0,16(s8)
    11fc:	3c020000 	lui	v0,0x0
    1200:	8c424af4 	lw	v0,19188(v0)
    1204:	8fc30010 	lw	v1,16(s8)
    1208:	00000000 	nop
    120c:	0062102a 	slt	v0,v1,v0
    1210:	14400015 	bnez	v0,1268 <main+0x364>
    1214:	00000000 	nop
    1218:	3c020000 	lui	v0,0x0
    121c:	8c424b4c 	lw	v0,19276(v0)
    1220:	00000000 	nop
    1224:	28420002 	slti	v0,v0,2
    1228:	10400009 	beqz	v0,1250 <main+0x34c>
    122c:	00000000 	nop
    1230:	3c020000 	lui	v0,0x0
    1234:	8c424b4c 	lw	v0,19276(v0)
    1238:	00000000 	nop
    123c:	24430001 	addiu	v1,v0,1
    1240:	3c020000 	lui	v0,0x0
    1244:	ac434b4c 	sw	v1,19276(v0)
    1248:	0c00081a 	jal	2068 <led_blink>
    124c:	00000000 	nop
    1250:	3c020000 	lui	v0,0x0
    1254:	8fc30034 	lw	v1,52(s8)
    1258:	00000000 	nop
    125c:	ac434af0 	sw	v1,19184(v0)
    1260:	1000001b 	b	12d0 <main+0x3cc>
    1264:	00000000 	nop
    1268:	3c020000 	lui	v0,0x0
    126c:	8c424af4 	lw	v0,19188(v0)
    1270:	00000000 	nop
    1274:	00021023 	negu	v0,v0
    1278:	8fc30010 	lw	v1,16(s8)
    127c:	00000000 	nop
    1280:	0043102a 	slt	v0,v0,v1
    1284:	14400012 	bnez	v0,12d0 <main+0x3cc>
    1288:	00000000 	nop
    128c:	3c020000 	lui	v0,0x0
    1290:	8c424b4c 	lw	v0,19276(v0)
    1294:	00000000 	nop
    1298:	18400009 	blez	v0,12c0 <main+0x3bc>
    129c:	00000000 	nop
    12a0:	3c020000 	lui	v0,0x0
    12a4:	8c424b4c 	lw	v0,19276(v0)
    12a8:	00000000 	nop
    12ac:	2443ffff 	addiu	v1,v0,-1
    12b0:	3c020000 	lui	v0,0x0
    12b4:	ac434b4c 	sw	v1,19276(v0)
    12b8:	0c00081a 	jal	2068 <led_blink>
    12bc:	00000000 	nop
    12c0:	3c020000 	lui	v0,0x0
    12c4:	8fc30034 	lw	v1,52(s8)
    12c8:	00000000 	nop
    12cc:	ac434af0 	sw	v1,19184(v0)
    12d0:	8fc20030 	lw	v0,48(s8)
    12d4:	00000000 	nop
    12d8:	1040000f 	beqz	v0,1318 <main+0x414>
    12dc:	00000000 	nop
    12e0:	3c020000 	lui	v0,0x0
    12e4:	8c424b54 	lw	v0,19284(v0)
    12e8:	00000000 	nop
    12ec:	1440000a 	bnez	v0,1318 <main+0x414>
    12f0:	00000000 	nop
    12f4:	3c020000 	lui	v0,0x0
    12f8:	8c434b4c 	lw	v1,19276(v0)
    12fc:	3c020000 	lui	v0,0x0
    1300:	ac434b48 	sw	v1,19272(v0)
    1304:	3c020000 	lui	v0,0x0
    1308:	24030002 	li	v1,2
    130c:	ac434b44 	sw	v1,19268(v0)
    1310:	0c00081a 	jal	2068 <led_blink>
    1314:	00000000 	nop
    1318:	3c020000 	lui	v0,0x0
    131c:	8fc30030 	lw	v1,48(s8)
    1320:	00000000 	nop
    1324:	ac434b54 	sw	v1,19284(v0)
    1328:	3c020000 	lui	v0,0x0
    132c:	8fc3002c 	lw	v1,44(s8)
    1330:	00000000 	nop
    1334:	ac434b58 	sw	v1,19288(v0)
    1338:	3c020000 	lui	v0,0x0
    133c:	8fc30028 	lw	v1,40(s8)
    1340:	00000000 	nop
    1344:	ac434b5c 	sw	v1,19292(v0)
    1348:	1000ff41 	b	1050 <main+0x14c>
    134c:	00000000 	nop
    1350:	3c020000 	lui	v0,0x0
    1354:	8c434b44 	lw	v1,19268(v0)
    1358:	24020002 	li	v0,2
    135c:	14620073 	bne	v1,v0,152c <main+0x628>
    1360:	00000000 	nop
    1364:	0c000667 	jal	199c <btn_check_0>
    1368:	00000000 	nop
    136c:	afc20020 	sw	v0,32(s8)
    1370:	0c000678 	jal	19e0 <btn_check_1>
    1374:	00000000 	nop
    1378:	afc20024 	sw	v0,36(s8)
    137c:	8fc20020 	lw	v0,32(s8)
    1380:	00000000 	nop
    1384:	10400011 	beqz	v0,13cc <main+0x4c8>
    1388:	00000000 	nop
    138c:	8fc20024 	lw	v0,36(s8)
    1390:	00000000 	nop
    1394:	1040000d 	beqz	v0,13cc <main+0x4c8>
    1398:	00000000 	nop
    139c:	3c020000 	lui	v0,0x0
    13a0:	24030001 	li	v1,1
    13a4:	ac434b44 	sw	v1,19268(v0)
    13a8:	3c020000 	lui	v0,0x0
    13ac:	ac404b4c 	sw	zero,19276(v0)
    13b0:	0c0006ab 	jal	1aac <rotary_read>
    13b4:	00000000 	nop
    13b8:	00401825 	move	v1,v0
    13bc:	3c020000 	lui	v0,0x0
    13c0:	ac434af0 	sw	v1,19184(v0)
    13c4:	10000053 	b	1514 <main+0x610>
    13c8:	00000000 	nop
    13cc:	8fc20020 	lw	v0,32(s8)
    13d0:	00000000 	nop
    13d4:	1040004f 	beqz	v0,1514 <main+0x610>
    13d8:	00000000 	nop
    13dc:	3c020000 	lui	v0,0x0
    13e0:	8c424b54 	lw	v0,19284(v0)
    13e4:	00000000 	nop
    13e8:	1440004a 	bnez	v0,1514 <main+0x610>
    13ec:	00000000 	nop
    13f0:	3c020000 	lui	v0,0x0
    13f4:	8c424b48 	lw	v0,19272(v0)
    13f8:	00000000 	nop
    13fc:	1440001f 	bnez	v0,147c <main+0x578>
    1400:	00000000 	nop
    1404:	3c020000 	lui	v0,0x0
    1408:	24030002 	li	v1,2
    140c:	ac434af8 	sw	v1,19192(v0)
    1410:	3c020000 	lui	v0,0x0
    1414:	24030018 	li	v1,24
    1418:	ac434afc 	sw	v1,19196(v0)
    141c:	3c020000 	lui	v0,0x0
    1420:	24030056 	li	v1,86
    1424:	ac434b00 	sw	v1,19200(v0)
    1428:	3c020000 	lui	v0,0x0
    142c:	24030018 	li	v1,24
    1430:	ac434b04 	sw	v1,19204(v0)
    1434:	3c020000 	lui	v0,0x0
    1438:	2403002e 	li	v1,46
    143c:	ac434b08 	sw	v1,19208(v0)
    1440:	3c020000 	lui	v0,0x0
    1444:	2403001e 	li	v1,30
    1448:	ac434b0c 	sw	v1,19212(v0)
    144c:	3c020000 	lui	v0,0x0
    1450:	24030003 	li	v1,3
    1454:	ac434b10 	sw	v1,19216(v0)
    1458:	3c020000 	lui	v0,0x0
    145c:	24030002 	li	v1,2
    1460:	ac434b14 	sw	v1,19220(v0)
    1464:	3c020000 	lui	v0,0x0
    1468:	ac404b60 	sw	zero,19296(v0)
    146c:	3c020000 	lui	v0,0x0
    1470:	ac404b64 	sw	zero,19300(v0)
    1474:	10000022 	b	1500 <main+0x5fc>
    1478:	00000000 	nop
    147c:	3c020000 	lui	v0,0x0
    1480:	24030002 	li	v1,2
    1484:	ac434b20 	sw	v1,19232(v0)
    1488:	3c020000 	lui	v0,0x0
    148c:	24030010 	li	v1,16
    1490:	ac434b24 	sw	v1,19236(v0)
    1494:	3c020000 	lui	v0,0x0
    1498:	24030002 	li	v1,2
    149c:	ac434b28 	sw	v1,19240(v0)
    14a0:	3c020000 	lui	v0,0x0
    14a4:	24030024 	li	v1,36
    14a8:	ac434b2c 	sw	v1,19244(v0)
    14ac:	3c020000 	lui	v0,0x0
    14b0:	24030014 	li	v1,20
    14b4:	ac434b30 	sw	v1,19248(v0)
    14b8:	3c020000 	lui	v0,0x0
    14bc:	2403001a 	li	v1,26
    14c0:	ac434b34 	sw	v1,19252(v0)
    14c4:	3c020000 	lui	v0,0x0
    14c8:	24030003 	li	v1,3
    14cc:	ac434b38 	sw	v1,19256(v0)
    14d0:	3c020000 	lui	v0,0x0
    14d4:	24030002 	li	v1,2
    14d8:	ac434b3c 	sw	v1,19260(v0)
    14dc:	3c020000 	lui	v0,0x0
    14e0:	ac404b74 	sw	zero,19316(v0)
    14e4:	3c020000 	lui	v0,0x0
    14e8:	24030003 	li	v1,3
    14ec:	ac434b40 	sw	v1,19264(v0)
    14f0:	3c020000 	lui	v0,0x0
    14f4:	ac404b78 	sw	zero,19320(v0)
    14f8:	3c020000 	lui	v0,0x0
    14fc:	ac404b7c 	sw	zero,19324(v0)
    1500:	3c020000 	lui	v0,0x0
    1504:	24030003 	li	v1,3
    1508:	ac434b44 	sw	v1,19268(v0)
    150c:	0c00081a 	jal	2068 <led_blink>
    1510:	00000000 	nop
    1514:	3c020000 	lui	v0,0x0
    1518:	8fc30020 	lw	v1,32(s8)
    151c:	00000000 	nop
    1520:	ac434b54 	sw	v1,19284(v0)
    1524:	1000feca 	b	1050 <main+0x14c>
    1528:	00000000 	nop
    152c:	3c020000 	lui	v0,0x0
    1530:	8c434b44 	lw	v1,19268(v0)
    1534:	24020003 	li	v0,3
    1538:	14620013 	bne	v1,v0,1588 <main+0x684>
    153c:	00000000 	nop
    1540:	3c020000 	lui	v0,0x0
    1544:	24454b1c 	addiu	a1,v0,19228
    1548:	3c020000 	lui	v0,0x0
    154c:	24444b18 	addiu	a0,v0,19224
    1550:	0c00078a 	jal	1e28 <kypd_scan_both>
    1554:	00000000 	nop
    1558:	0c000667 	jal	199c <btn_check_0>
    155c:	00000000 	nop
    1560:	00401825 	move	v1,v0
    1564:	3c020000 	lui	v0,0x0
    1568:	ac434b68 	sw	v1,19304(v0)
    156c:	0c000678 	jal	19e0 <btn_check_1>
    1570:	00000000 	nop
    1574:	00401825 	move	v1,v0
    1578:	3c020000 	lui	v0,0x0
    157c:	ac434b6c 	sw	v1,19308(v0)
    1580:	1000feb3 	b	1050 <main+0x14c>
    1584:	00000000 	nop
    1588:	3c020000 	lui	v0,0x0
    158c:	8c434b44 	lw	v1,19268(v0)
    1590:	24020004 	li	v0,4
    1594:	1462feae 	bne	v1,v0,1050 <main+0x14c>
    1598:	00000000 	nop
    159c:	0c000667 	jal	199c <btn_check_0>
    15a0:	00000000 	nop
    15a4:	afc20018 	sw	v0,24(s8)
    15a8:	0c000678 	jal	19e0 <btn_check_1>
    15ac:	00000000 	nop
    15b0:	afc2001c 	sw	v0,28(s8)
    15b4:	8fc20018 	lw	v0,24(s8)
    15b8:	00000000 	nop
    15bc:	1040fea4 	beqz	v0,1050 <main+0x14c>
    15c0:	00000000 	nop
    15c4:	8fc2001c 	lw	v0,28(s8)
    15c8:	00000000 	nop
    15cc:	1040fea0 	beqz	v0,1050 <main+0x14c>
    15d0:	00000000 	nop
    15d4:	3c020000 	lui	v0,0x0
    15d8:	24030001 	li	v1,1
    15dc:	ac434b44 	sw	v1,19268(v0)
    15e0:	3c020000 	lui	v0,0x0
    15e4:	ac404b4c 	sw	zero,19276(v0)
    15e8:	0c0006ab 	jal	1aac <rotary_read>
    15ec:	00000000 	nop
    15f0:	00401825 	move	v1,v0
    15f4:	3c020000 	lui	v0,0x0
    15f8:	ac434af0 	sw	v1,19184(v0)
    15fc:	1000fe94 	b	1050 <main+0x14c>
    1600:	00000000 	nop

00001604 <draw_mode_select>:
    1604:	27bdffc0 	addiu	sp,sp,-64
    1608:	afbf003c 	sw	ra,60(sp)
    160c:	afbe0038 	sw	s8,56(sp)
    1610:	03a0f025 	move	s8,sp
    1614:	afc40040 	sw	a0,64(s8)
    1618:	0c000912 	jal	2448 <lcd_clear_vbuf>
    161c:	00000000 	nop
    1620:	3c020000 	lui	v0,0x0
    1624:	8c424b50 	lw	v0,19280(v0)
    1628:	00000000 	nop
    162c:	00021842 	srl	v1,v0,0x1
    1630:	24020006 	li	v0,6
    1634:	0062001b 	divu	zero,v1,v0
    1638:	14400002 	bnez	v0,1644 <draw_mode_select+0x40>
    163c:	00000000 	nop
    1640:	0007000d 	break	0x7
    1644:	00001010 	mfhi	v0
    1648:	afc20024 	sw	v0,36(s8)
    164c:	8fc20024 	lw	v0,36(s8)
    1650:	00000000 	nop
    1654:	2c420006 	sltiu	v0,v0,6
    1658:	10400032 	beqz	v0,1724 <draw_mode_select+0x120>
    165c:	00000000 	nop
    1660:	8fc20024 	lw	v0,36(s8)
    1664:	00000000 	nop
    1668:	00021880 	sll	v1,v0,0x2
    166c:	3c020000 	lui	v0,0x0
    1670:	24424acc 	addiu	v0,v0,19148
    1674:	00621021 	addu	v0,v1,v0
    1678:	8c420000 	lw	v0,0(v0)
    167c:	00000000 	nop
    1680:	00400008 	jr	v0
    1684:	00000000 	nop
    1688:	240200ff 	li	v0,255
    168c:	afc20018 	sw	v0,24(s8)
    1690:	afc0001c 	sw	zero,28(s8)
    1694:	afc00020 	sw	zero,32(s8)
    1698:	10000029 	b	1740 <draw_mode_select+0x13c>
    169c:	00000000 	nop
    16a0:	240200ff 	li	v0,255
    16a4:	afc20018 	sw	v0,24(s8)
    16a8:	240200ff 	li	v0,255
    16ac:	afc2001c 	sw	v0,28(s8)
    16b0:	afc00020 	sw	zero,32(s8)
    16b4:	10000022 	b	1740 <draw_mode_select+0x13c>
    16b8:	00000000 	nop
    16bc:	afc00018 	sw	zero,24(s8)
    16c0:	240200ff 	li	v0,255
    16c4:	afc2001c 	sw	v0,28(s8)
    16c8:	afc00020 	sw	zero,32(s8)
    16cc:	1000001c 	b	1740 <draw_mode_select+0x13c>
    16d0:	00000000 	nop
    16d4:	afc00018 	sw	zero,24(s8)
    16d8:	240200ff 	li	v0,255
    16dc:	afc2001c 	sw	v0,28(s8)
    16e0:	240200ff 	li	v0,255
    16e4:	afc20020 	sw	v0,32(s8)
    16e8:	10000015 	b	1740 <draw_mode_select+0x13c>
    16ec:	00000000 	nop
    16f0:	afc00018 	sw	zero,24(s8)
    16f4:	afc0001c 	sw	zero,28(s8)
    16f8:	240200ff 	li	v0,255
    16fc:	afc20020 	sw	v0,32(s8)
    1700:	1000000f 	b	1740 <draw_mode_select+0x13c>
    1704:	00000000 	nop
    1708:	240200ff 	li	v0,255
    170c:	afc20018 	sw	v0,24(s8)
    1710:	afc0001c 	sw	zero,28(s8)
    1714:	240200ff 	li	v0,255
    1718:	afc20020 	sw	v0,32(s8)
    171c:	10000008 	b	1740 <draw_mode_select+0x13c>
    1720:	00000000 	nop
    1724:	240200ff 	li	v0,255
    1728:	afc20018 	sw	v0,24(s8)
    172c:	240200ff 	li	v0,255
    1730:	afc2001c 	sw	v0,28(s8)
    1734:	240200ff 	li	v0,255
    1738:	afc20020 	sw	v0,32(s8)
    173c:	00000000 	nop
    1740:	8fc20020 	lw	v0,32(s8)
    1744:	00000000 	nop
    1748:	afa20014 	sw	v0,20(sp)
    174c:	8fc2001c 	lw	v0,28(s8)
    1750:	00000000 	nop
    1754:	afa20010 	sw	v0,16(sp)
    1758:	8fc70018 	lw	a3,24(s8)
    175c:	3c020000 	lui	v0,0x0
    1760:	24464a44 	addiu	a2,v0,19012
    1764:	00002825 	move	a1,zero
    1768:	00002025 	move	a0,zero
    176c:	0c000a49 	jal	2924 <lcd_puts_color>
    1770:	00000000 	nop
    1774:	3c020000 	lui	v0,0x0
    1778:	8c434b50 	lw	v1,19280(v0)
    177c:	24020003 	li	v0,3
    1780:	0062001b 	divu	zero,v1,v0
    1784:	14400002 	bnez	v0,1790 <draw_mode_select+0x18c>
    1788:	00000000 	nop
    178c:	0007000d 	break	0x7
    1790:	00001010 	mfhi	v0
    1794:	00001012 	mflo	v0
    1798:	30420001 	andi	v0,v0,0x1
    179c:	afc20028 	sw	v0,40(s8)
    17a0:	240200ff 	li	v0,255
    17a4:	afc2002c 	sw	v0,44(s8)
    17a8:	8fc20028 	lw	v0,40(s8)
    17ac:	00000000 	nop
    17b0:	10400004 	beqz	v0,17c4 <draw_mode_select+0x1c0>
    17b4:	00000000 	nop
    17b8:	240200ff 	li	v0,255
    17bc:	10000002 	b	17c8 <draw_mode_select+0x1c4>
    17c0:	00000000 	nop
    17c4:	00001025 	move	v0,zero
    17c8:	afc20030 	sw	v0,48(s8)
    17cc:	afc00034 	sw	zero,52(s8)
    17d0:	8fc20040 	lw	v0,64(s8)
    17d4:	00000000 	nop
    17d8:	14400010 	bnez	v0,181c <draw_mode_select+0x218>
    17dc:	00000000 	nop
    17e0:	8fc20034 	lw	v0,52(s8)
    17e4:	00000000 	nop
    17e8:	afa20014 	sw	v0,20(sp)
    17ec:	8fc20030 	lw	v0,48(s8)
    17f0:	00000000 	nop
    17f4:	afa20010 	sw	v0,16(sp)
    17f8:	8fc7002c 	lw	a3,44(s8)
    17fc:	3c020000 	lui	v0,0x0
    1800:	24464a54 	addiu	a2,v0,19028
    1804:	00002825 	move	a1,zero
    1808:	24040002 	li	a0,2
    180c:	0c000a49 	jal	2924 <lcd_puts_color>
    1810:	00000000 	nop
    1814:	1000000b 	b	1844 <draw_mode_select+0x240>
    1818:	00000000 	nop
    181c:	240200ff 	li	v0,255
    1820:	afa20014 	sw	v0,20(sp)
    1824:	afa00010 	sw	zero,16(sp)
    1828:	00003825 	move	a3,zero
    182c:	3c020000 	lui	v0,0x0
    1830:	24464a64 	addiu	a2,v0,19044
    1834:	00002825 	move	a1,zero
    1838:	24040002 	li	a0,2
    183c:	0c000a49 	jal	2924 <lcd_puts_color>
    1840:	00000000 	nop
    1844:	8fc30040 	lw	v1,64(s8)
    1848:	24020001 	li	v0,1
    184c:	14620010 	bne	v1,v0,1890 <draw_mode_select+0x28c>
    1850:	00000000 	nop
    1854:	8fc20034 	lw	v0,52(s8)
    1858:	00000000 	nop
    185c:	afa20014 	sw	v0,20(sp)
    1860:	8fc20030 	lw	v0,48(s8)
    1864:	00000000 	nop
    1868:	afa20010 	sw	v0,16(sp)
    186c:	8fc7002c 	lw	a3,44(s8)
    1870:	3c020000 	lui	v0,0x0
    1874:	24464a74 	addiu	a2,v0,19060
    1878:	00002825 	move	a1,zero
    187c:	24040003 	li	a0,3
    1880:	0c000a49 	jal	2924 <lcd_puts_color>
    1884:	00000000 	nop
    1888:	1000000b 	b	18b8 <draw_mode_select+0x2b4>
    188c:	00000000 	nop
    1890:	240200ff 	li	v0,255
    1894:	afa20014 	sw	v0,20(sp)
    1898:	afa00010 	sw	zero,16(sp)
    189c:	00003825 	move	a3,zero
    18a0:	3c020000 	lui	v0,0x0
    18a4:	24464a84 	addiu	a2,v0,19076
    18a8:	00002825 	move	a1,zero
    18ac:	24040003 	li	a0,3
    18b0:	0c000a49 	jal	2924 <lcd_puts_color>
    18b4:	00000000 	nop
    18b8:	8fc30040 	lw	v1,64(s8)
    18bc:	24020002 	li	v0,2
    18c0:	14620010 	bne	v1,v0,1904 <draw_mode_select+0x300>
    18c4:	00000000 	nop
    18c8:	8fc20034 	lw	v0,52(s8)
    18cc:	00000000 	nop
    18d0:	afa20014 	sw	v0,20(sp)
    18d4:	8fc20030 	lw	v0,48(s8)
    18d8:	00000000 	nop
    18dc:	afa20010 	sw	v0,16(sp)
    18e0:	8fc7002c 	lw	a3,44(s8)
    18e4:	3c020000 	lui	v0,0x0
    18e8:	24464a94 	addiu	a2,v0,19092
    18ec:	00002825 	move	a1,zero
    18f0:	24040004 	li	a0,4
    18f4:	0c000a49 	jal	2924 <lcd_puts_color>
    18f8:	00000000 	nop
    18fc:	1000000b 	b	192c <draw_mode_select+0x328>
    1900:	00000000 	nop
    1904:	240200ff 	li	v0,255
    1908:	afa20014 	sw	v0,20(sp)
    190c:	afa00010 	sw	zero,16(sp)
    1910:	00003825 	move	a3,zero
    1914:	3c020000 	lui	v0,0x0
    1918:	24464aa4 	addiu	a2,v0,19108
    191c:	00002825 	move	a1,zero
    1920:	24040004 	li	a0,4
    1924:	0c000a49 	jal	2924 <lcd_puts_color>
    1928:	00000000 	nop
    192c:	240200ff 	li	v0,255
    1930:	afa20014 	sw	v0,20(sp)
    1934:	240200ff 	li	v0,255
    1938:	afa20010 	sw	v0,16(sp)
    193c:	00003825 	move	a3,zero
    1940:	3c020000 	lui	v0,0x0
    1944:	24464ab4 	addiu	a2,v0,19124
    1948:	00002825 	move	a1,zero
    194c:	24040006 	li	a0,6
    1950:	0c000a49 	jal	2924 <lcd_puts_color>
    1954:	00000000 	nop
    1958:	240200ff 	li	v0,255
    195c:	afa20014 	sw	v0,20(sp)
    1960:	afa00010 	sw	zero,16(sp)
    1964:	240700ff 	li	a3,255
    1968:	3c020000 	lui	v0,0x0
    196c:	24464ac0 	addiu	a2,v0,19136
    1970:	00002825 	move	a1,zero
    1974:	24040007 	li	a0,7
    1978:	0c000a49 	jal	2924 <lcd_puts_color>
    197c:	00000000 	nop
    1980:	00000000 	nop
    1984:	03c0e825 	move	sp,s8
    1988:	8fbf003c 	lw	ra,60(sp)
    198c:	8fbe0038 	lw	s8,56(sp)
    1990:	27bd0040 	addiu	sp,sp,64
    1994:	03e00008 	jr	ra
    1998:	00000000 	nop

0000199c <btn_check_0>:
    199c:	27bdfff0 	addiu	sp,sp,-16
    19a0:	afbe000c 	sw	s8,12(sp)
    19a4:	03a0f025 	move	s8,sp
    19a8:	3402ff04 	li	v0,0xff04
    19ac:	afc20000 	sw	v0,0(s8)
    19b0:	8fc20000 	lw	v0,0(s8)
    19b4:	00000000 	nop
    19b8:	8c420000 	lw	v0,0(v0)
    19bc:	00000000 	nop
    19c0:	30420010 	andi	v0,v0,0x10
    19c4:	0002102b 	sltu	v0,zero,v0
    19c8:	304200ff 	andi	v0,v0,0xff
    19cc:	03c0e825 	move	sp,s8
    19d0:	8fbe000c 	lw	s8,12(sp)
    19d4:	27bd0010 	addiu	sp,sp,16
    19d8:	03e00008 	jr	ra
    19dc:	00000000 	nop

000019e0 <btn_check_1>:
    19e0:	27bdfff0 	addiu	sp,sp,-16
    19e4:	afbe000c 	sw	s8,12(sp)
    19e8:	03a0f025 	move	s8,sp
    19ec:	3402ff04 	li	v0,0xff04
    19f0:	afc20000 	sw	v0,0(s8)
    19f4:	8fc20000 	lw	v0,0(s8)
    19f8:	00000000 	nop
    19fc:	8c420000 	lw	v0,0(v0)
    1a00:	00000000 	nop
    1a04:	30420020 	andi	v0,v0,0x20
    1a08:	0002102b 	sltu	v0,zero,v0
    1a0c:	304200ff 	andi	v0,v0,0xff
    1a10:	03c0e825 	move	sp,s8
    1a14:	8fbe000c 	lw	s8,12(sp)
    1a18:	27bd0010 	addiu	sp,sp,16
    1a1c:	03e00008 	jr	ra
    1a20:	00000000 	nop

00001a24 <btn_check_2>:
    1a24:	27bdfff0 	addiu	sp,sp,-16
    1a28:	afbe000c 	sw	s8,12(sp)
    1a2c:	03a0f025 	move	s8,sp
    1a30:	3402ff04 	li	v0,0xff04
    1a34:	afc20000 	sw	v0,0(s8)
    1a38:	8fc20000 	lw	v0,0(s8)
    1a3c:	00000000 	nop
    1a40:	8c420000 	lw	v0,0(v0)
    1a44:	00000000 	nop
    1a48:	30420040 	andi	v0,v0,0x40
    1a4c:	0002102b 	sltu	v0,zero,v0
    1a50:	304200ff 	andi	v0,v0,0xff
    1a54:	03c0e825 	move	sp,s8
    1a58:	8fbe000c 	lw	s8,12(sp)
    1a5c:	27bd0010 	addiu	sp,sp,16
    1a60:	03e00008 	jr	ra
    1a64:	00000000 	nop

00001a68 <btn_check_3>:
    1a68:	27bdfff0 	addiu	sp,sp,-16
    1a6c:	afbe000c 	sw	s8,12(sp)
    1a70:	03a0f025 	move	s8,sp
    1a74:	3402ff04 	li	v0,0xff04
    1a78:	afc20000 	sw	v0,0(s8)
    1a7c:	8fc20000 	lw	v0,0(s8)
    1a80:	00000000 	nop
    1a84:	8c420000 	lw	v0,0(v0)
    1a88:	00000000 	nop
    1a8c:	30420080 	andi	v0,v0,0x80
    1a90:	0002102b 	sltu	v0,zero,v0
    1a94:	304200ff 	andi	v0,v0,0xff
    1a98:	03c0e825 	move	sp,s8
    1a9c:	8fbe000c 	lw	s8,12(sp)
    1aa0:	27bd0010 	addiu	sp,sp,16
    1aa4:	03e00008 	jr	ra
    1aa8:	00000000 	nop

00001aac <rotary_read>:
    1aac:	27bdfff0 	addiu	sp,sp,-16
    1ab0:	afbe000c 	sw	s8,12(sp)
    1ab4:	03a0f025 	move	s8,sp
    1ab8:	3402ff10 	li	v0,0xff10
    1abc:	afc20000 	sw	v0,0(s8)
    1ac0:	8fc20000 	lw	v0,0(s8)
    1ac4:	00000000 	nop
    1ac8:	8c420000 	lw	v0,0(v0)
    1acc:	00000000 	nop
    1ad0:	afc20004 	sw	v0,4(s8)
    1ad4:	8fc20004 	lw	v0,4(s8)
    1ad8:	00000000 	nop
    1adc:	00021083 	sra	v0,v0,0x2
    1ae0:	304200ff 	andi	v0,v0,0xff
    1ae4:	03c0e825 	move	sp,s8
    1ae8:	8fbe000c 	lw	s8,12(sp)
    1aec:	27bd0010 	addiu	sp,sp,16
    1af0:	03e00008 	jr	ra
    1af4:	00000000 	nop

00001af8 <tiny_wait>:
    1af8:	27bdfff0 	addiu	sp,sp,-16
    1afc:	afbe000c 	sw	s8,12(sp)
    1b00:	03a0f025 	move	s8,sp
    1b04:	afc40010 	sw	a0,16(s8)
    1b08:	afc00000 	sw	zero,0(s8)
    1b0c:	10000005 	b	1b24 <tiny_wait+0x2c>
    1b10:	00000000 	nop
    1b14:	8fc20000 	lw	v0,0(s8)
    1b18:	00000000 	nop
    1b1c:	24420001 	addiu	v0,v0,1
    1b20:	afc20000 	sw	v0,0(s8)
    1b24:	8fc20000 	lw	v0,0(s8)
    1b28:	8fc30010 	lw	v1,16(s8)
    1b2c:	00000000 	nop
    1b30:	0043102a 	slt	v0,v0,v1
    1b34:	1440fff7 	bnez	v0,1b14 <tiny_wait+0x1c>
    1b38:	00000000 	nop
    1b3c:	00000000 	nop
    1b40:	03c0e825 	move	sp,s8
    1b44:	8fbe000c 	lw	s8,12(sp)
    1b48:	27bd0010 	addiu	sp,sp,16
    1b4c:	03e00008 	jr	ra
    1b50:	00000000 	nop

00001b54 <kypd_scan>:
    1b54:	27bdffe0 	addiu	sp,sp,-32
    1b58:	afbf001c 	sw	ra,28(sp)
    1b5c:	afbe0018 	sw	s8,24(sp)
    1b60:	03a0f025 	move	s8,sp
    1b64:	3402ff18 	li	v0,0xff18
    1b68:	afc20010 	sw	v0,16(s8)
    1b6c:	8fc20010 	lw	v0,16(s8)
    1b70:	24030007 	li	v1,7
    1b74:	ac430000 	sw	v1,0(v0)
    1b78:	2404012c 	li	a0,300
    1b7c:	0c0006be 	jal	1af8 <tiny_wait>
    1b80:	00000000 	nop
    1b84:	8fc20010 	lw	v0,16(s8)
    1b88:	00000000 	nop
    1b8c:	8c420000 	lw	v0,0(v0)
    1b90:	00000000 	nop
    1b94:	a3c20014 	sb	v0,20(s8)
    1b98:	83c20014 	lb	v0,20(s8)
    1b9c:	00000000 	nop
    1ba0:	04400004 	bltz	v0,1bb4 <kypd_scan+0x60>
    1ba4:	00000000 	nop
    1ba8:	24020001 	li	v0,1
    1bac:	10000098 	b	1e10 <kypd_scan+0x2bc>
    1bb0:	00000000 	nop
    1bb4:	93c20014 	lbu	v0,20(s8)
    1bb8:	00000000 	nop
    1bbc:	30420040 	andi	v0,v0,0x40
    1bc0:	14400004 	bnez	v0,1bd4 <kypd_scan+0x80>
    1bc4:	00000000 	nop
    1bc8:	24020004 	li	v0,4
    1bcc:	10000090 	b	1e10 <kypd_scan+0x2bc>
    1bd0:	00000000 	nop
    1bd4:	93c20014 	lbu	v0,20(s8)
    1bd8:	00000000 	nop
    1bdc:	30420020 	andi	v0,v0,0x20
    1be0:	14400004 	bnez	v0,1bf4 <kypd_scan+0xa0>
    1be4:	00000000 	nop
    1be8:	24020007 	li	v0,7
    1bec:	10000088 	b	1e10 <kypd_scan+0x2bc>
    1bf0:	00000000 	nop
    1bf4:	93c20014 	lbu	v0,20(s8)
    1bf8:	00000000 	nop
    1bfc:	30420010 	andi	v0,v0,0x10
    1c00:	14400004 	bnez	v0,1c14 <kypd_scan+0xc0>
    1c04:	00000000 	nop
    1c08:	00001025 	move	v0,zero
    1c0c:	10000080 	b	1e10 <kypd_scan+0x2bc>
    1c10:	00000000 	nop
    1c14:	8fc20010 	lw	v0,16(s8)
    1c18:	2403000b 	li	v1,11
    1c1c:	ac430000 	sw	v1,0(v0)
    1c20:	2404012c 	li	a0,300
    1c24:	0c0006be 	jal	1af8 <tiny_wait>
    1c28:	00000000 	nop
    1c2c:	8fc20010 	lw	v0,16(s8)
    1c30:	00000000 	nop
    1c34:	8c420000 	lw	v0,0(v0)
    1c38:	00000000 	nop
    1c3c:	a3c20014 	sb	v0,20(s8)
    1c40:	83c20014 	lb	v0,20(s8)
    1c44:	00000000 	nop
    1c48:	04400004 	bltz	v0,1c5c <kypd_scan+0x108>
    1c4c:	00000000 	nop
    1c50:	24020002 	li	v0,2
    1c54:	1000006e 	b	1e10 <kypd_scan+0x2bc>
    1c58:	00000000 	nop
    1c5c:	93c20014 	lbu	v0,20(s8)
    1c60:	00000000 	nop
    1c64:	30420040 	andi	v0,v0,0x40
    1c68:	14400004 	bnez	v0,1c7c <kypd_scan+0x128>
    1c6c:	00000000 	nop
    1c70:	24020005 	li	v0,5
    1c74:	10000066 	b	1e10 <kypd_scan+0x2bc>
    1c78:	00000000 	nop
    1c7c:	93c20014 	lbu	v0,20(s8)
    1c80:	00000000 	nop
    1c84:	30420020 	andi	v0,v0,0x20
    1c88:	14400004 	bnez	v0,1c9c <kypd_scan+0x148>
    1c8c:	00000000 	nop
    1c90:	24020008 	li	v0,8
    1c94:	1000005e 	b	1e10 <kypd_scan+0x2bc>
    1c98:	00000000 	nop
    1c9c:	93c20014 	lbu	v0,20(s8)
    1ca0:	00000000 	nop
    1ca4:	30420010 	andi	v0,v0,0x10
    1ca8:	14400004 	bnez	v0,1cbc <kypd_scan+0x168>
    1cac:	00000000 	nop
    1cb0:	2402000f 	li	v0,15
    1cb4:	10000056 	b	1e10 <kypd_scan+0x2bc>
    1cb8:	00000000 	nop
    1cbc:	8fc20010 	lw	v0,16(s8)
    1cc0:	2403000d 	li	v1,13
    1cc4:	ac430000 	sw	v1,0(v0)
    1cc8:	2404012c 	li	a0,300
    1ccc:	0c0006be 	jal	1af8 <tiny_wait>
    1cd0:	00000000 	nop
    1cd4:	8fc20010 	lw	v0,16(s8)
    1cd8:	00000000 	nop
    1cdc:	8c420000 	lw	v0,0(v0)
    1ce0:	00000000 	nop
    1ce4:	a3c20014 	sb	v0,20(s8)
    1ce8:	83c20014 	lb	v0,20(s8)
    1cec:	00000000 	nop
    1cf0:	04400004 	bltz	v0,1d04 <kypd_scan+0x1b0>
    1cf4:	00000000 	nop
    1cf8:	24020003 	li	v0,3
    1cfc:	10000044 	b	1e10 <kypd_scan+0x2bc>
    1d00:	00000000 	nop
    1d04:	93c20014 	lbu	v0,20(s8)
    1d08:	00000000 	nop
    1d0c:	30420040 	andi	v0,v0,0x40
    1d10:	14400004 	bnez	v0,1d24 <kypd_scan+0x1d0>
    1d14:	00000000 	nop
    1d18:	24020006 	li	v0,6
    1d1c:	1000003c 	b	1e10 <kypd_scan+0x2bc>
    1d20:	00000000 	nop
    1d24:	93c20014 	lbu	v0,20(s8)
    1d28:	00000000 	nop
    1d2c:	30420020 	andi	v0,v0,0x20
    1d30:	14400004 	bnez	v0,1d44 <kypd_scan+0x1f0>
    1d34:	00000000 	nop
    1d38:	24020009 	li	v0,9
    1d3c:	10000034 	b	1e10 <kypd_scan+0x2bc>
    1d40:	00000000 	nop
    1d44:	93c20014 	lbu	v0,20(s8)
    1d48:	00000000 	nop
    1d4c:	30420010 	andi	v0,v0,0x10
    1d50:	14400004 	bnez	v0,1d64 <kypd_scan+0x210>
    1d54:	00000000 	nop
    1d58:	2402000e 	li	v0,14
    1d5c:	1000002c 	b	1e10 <kypd_scan+0x2bc>
    1d60:	00000000 	nop
    1d64:	8fc20010 	lw	v0,16(s8)
    1d68:	2403000e 	li	v1,14
    1d6c:	ac430000 	sw	v1,0(v0)
    1d70:	2404012c 	li	a0,300
    1d74:	0c0006be 	jal	1af8 <tiny_wait>
    1d78:	00000000 	nop
    1d7c:	8fc20010 	lw	v0,16(s8)
    1d80:	00000000 	nop
    1d84:	8c420000 	lw	v0,0(v0)
    1d88:	00000000 	nop
    1d8c:	a3c20014 	sb	v0,20(s8)
    1d90:	83c20014 	lb	v0,20(s8)
    1d94:	00000000 	nop
    1d98:	04400004 	bltz	v0,1dac <kypd_scan+0x258>
    1d9c:	00000000 	nop
    1da0:	2402000a 	li	v0,10
    1da4:	1000001a 	b	1e10 <kypd_scan+0x2bc>
    1da8:	00000000 	nop
    1dac:	93c20014 	lbu	v0,20(s8)
    1db0:	00000000 	nop
    1db4:	30420040 	andi	v0,v0,0x40
    1db8:	14400004 	bnez	v0,1dcc <kypd_scan+0x278>
    1dbc:	00000000 	nop
    1dc0:	2402000b 	li	v0,11
    1dc4:	10000012 	b	1e10 <kypd_scan+0x2bc>
    1dc8:	00000000 	nop
    1dcc:	93c20014 	lbu	v0,20(s8)
    1dd0:	00000000 	nop
    1dd4:	30420020 	andi	v0,v0,0x20
    1dd8:	14400004 	bnez	v0,1dec <kypd_scan+0x298>
    1ddc:	00000000 	nop
    1de0:	2402000c 	li	v0,12
    1de4:	1000000a 	b	1e10 <kypd_scan+0x2bc>
    1de8:	00000000 	nop
    1dec:	93c20014 	lbu	v0,20(s8)
    1df0:	00000000 	nop
    1df4:	30420010 	andi	v0,v0,0x10
    1df8:	14400004 	bnez	v0,1e0c <kypd_scan+0x2b8>
    1dfc:	00000000 	nop
    1e00:	2402000d 	li	v0,13
    1e04:	10000002 	b	1e10 <kypd_scan+0x2bc>
    1e08:	00000000 	nop
    1e0c:	2402ffff 	li	v0,-1
    1e10:	03c0e825 	move	sp,s8
    1e14:	8fbf001c 	lw	ra,28(sp)
    1e18:	8fbe0018 	lw	s8,24(sp)
    1e1c:	27bd0020 	addiu	sp,sp,32
    1e20:	03e00008 	jr	ra
    1e24:	00000000 	nop

00001e28 <kypd_scan_both>:
    1e28:	27bdffd8 	addiu	sp,sp,-40
    1e2c:	afbf0024 	sw	ra,36(sp)
    1e30:	afbe0020 	sw	s8,32(sp)
    1e34:	03a0f025 	move	s8,sp
    1e38:	afc40028 	sw	a0,40(s8)
    1e3c:	afc5002c 	sw	a1,44(s8)
    1e40:	3402ff18 	li	v0,0xff18
    1e44:	afc20018 	sw	v0,24(s8)
    1e48:	2402ffff 	li	v0,-1
    1e4c:	afc20010 	sw	v0,16(s8)
    1e50:	2402ffff 	li	v0,-1
    1e54:	afc20014 	sw	v0,20(s8)
    1e58:	8fc20018 	lw	v0,24(s8)
    1e5c:	24030007 	li	v1,7
    1e60:	ac430000 	sw	v1,0(v0)
    1e64:	2404012c 	li	a0,300
    1e68:	0c0006be 	jal	1af8 <tiny_wait>
    1e6c:	00000000 	nop
    1e70:	8fc20018 	lw	v0,24(s8)
    1e74:	00000000 	nop
    1e78:	8c420000 	lw	v0,0(v0)
    1e7c:	00000000 	nop
    1e80:	a3c2001c 	sb	v0,28(s8)
    1e84:	83c2001c 	lb	v0,28(s8)
    1e88:	00000000 	nop
    1e8c:	04400003 	bltz	v0,1e9c <kypd_scan_both+0x74>
    1e90:	00000000 	nop
    1e94:	24020001 	li	v0,1
    1e98:	afc20010 	sw	v0,16(s8)
    1e9c:	93c2001c 	lbu	v0,28(s8)
    1ea0:	00000000 	nop
    1ea4:	30420040 	andi	v0,v0,0x40
    1ea8:	14400003 	bnez	v0,1eb8 <kypd_scan_both+0x90>
    1eac:	00000000 	nop
    1eb0:	24020004 	li	v0,4
    1eb4:	afc20010 	sw	v0,16(s8)
    1eb8:	93c2001c 	lbu	v0,28(s8)
    1ebc:	00000000 	nop
    1ec0:	30420020 	andi	v0,v0,0x20
    1ec4:	14400003 	bnez	v0,1ed4 <kypd_scan_both+0xac>
    1ec8:	00000000 	nop
    1ecc:	24020007 	li	v0,7
    1ed0:	afc20010 	sw	v0,16(s8)
    1ed4:	8fc20018 	lw	v0,24(s8)
    1ed8:	2403000b 	li	v1,11
    1edc:	ac430000 	sw	v1,0(v0)
    1ee0:	2404012c 	li	a0,300
    1ee4:	0c0006be 	jal	1af8 <tiny_wait>
    1ee8:	00000000 	nop
    1eec:	8fc20018 	lw	v0,24(s8)
    1ef0:	00000000 	nop
    1ef4:	8c420000 	lw	v0,0(v0)
    1ef8:	00000000 	nop
    1efc:	a3c2001c 	sb	v0,28(s8)
    1f00:	93c2001c 	lbu	v0,28(s8)
    1f04:	00000000 	nop
    1f08:	30420040 	andi	v0,v0,0x40
    1f0c:	14400003 	bnez	v0,1f1c <kypd_scan_both+0xf4>
    1f10:	00000000 	nop
    1f14:	24020005 	li	v0,5
    1f18:	afc20010 	sw	v0,16(s8)
    1f1c:	8fc20018 	lw	v0,24(s8)
    1f20:	2403000d 	li	v1,13
    1f24:	ac430000 	sw	v1,0(v0)
    1f28:	2404012c 	li	a0,300
    1f2c:	0c0006be 	jal	1af8 <tiny_wait>
    1f30:	00000000 	nop
    1f34:	8fc20018 	lw	v0,24(s8)
    1f38:	00000000 	nop
    1f3c:	8c420000 	lw	v0,0(v0)
    1f40:	00000000 	nop
    1f44:	a3c2001c 	sb	v0,28(s8)
    1f48:	93c2001c 	lbu	v0,28(s8)
    1f4c:	00000000 	nop
    1f50:	30420040 	andi	v0,v0,0x40
    1f54:	14400003 	bnez	v0,1f64 <kypd_scan_both+0x13c>
    1f58:	00000000 	nop
    1f5c:	24020006 	li	v0,6
    1f60:	afc20014 	sw	v0,20(s8)
    1f64:	8fc20018 	lw	v0,24(s8)
    1f68:	2403000e 	li	v1,14
    1f6c:	ac430000 	sw	v1,0(v0)
    1f70:	2404012c 	li	a0,300
    1f74:	0c0006be 	jal	1af8 <tiny_wait>
    1f78:	00000000 	nop
    1f7c:	8fc20018 	lw	v0,24(s8)
    1f80:	00000000 	nop
    1f84:	8c420000 	lw	v0,0(v0)
    1f88:	00000000 	nop
    1f8c:	a3c2001c 	sb	v0,28(s8)
    1f90:	83c2001c 	lb	v0,28(s8)
    1f94:	00000000 	nop
    1f98:	04400003 	bltz	v0,1fa8 <kypd_scan_both+0x180>
    1f9c:	00000000 	nop
    1fa0:	2402000a 	li	v0,10
    1fa4:	afc20014 	sw	v0,20(s8)
    1fa8:	93c2001c 	lbu	v0,28(s8)
    1fac:	00000000 	nop
    1fb0:	30420040 	andi	v0,v0,0x40
    1fb4:	14400003 	bnez	v0,1fc4 <kypd_scan_both+0x19c>
    1fb8:	00000000 	nop
    1fbc:	2402000b 	li	v0,11
    1fc0:	afc20014 	sw	v0,20(s8)
    1fc4:	93c2001c 	lbu	v0,28(s8)
    1fc8:	00000000 	nop
    1fcc:	30420020 	andi	v0,v0,0x20
    1fd0:	14400003 	bnez	v0,1fe0 <kypd_scan_both+0x1b8>
    1fd4:	00000000 	nop
    1fd8:	2402000c 	li	v0,12
    1fdc:	afc20014 	sw	v0,20(s8)
    1fe0:	8fc20028 	lw	v0,40(s8)
    1fe4:	8fc30010 	lw	v1,16(s8)
    1fe8:	00000000 	nop
    1fec:	ac430000 	sw	v1,0(v0)
    1ff0:	8fc2002c 	lw	v0,44(s8)
    1ff4:	8fc30014 	lw	v1,20(s8)
    1ff8:	00000000 	nop
    1ffc:	ac430000 	sw	v1,0(v0)
    2000:	24040064 	li	a0,100
    2004:	0c0006be 	jal	1af8 <tiny_wait>
    2008:	00000000 	nop
    200c:	00000000 	nop
    2010:	03c0e825 	move	sp,s8
    2014:	8fbf0024 	lw	ra,36(sp)
    2018:	8fbe0020 	lw	s8,32(sp)
    201c:	27bd0028 	addiu	sp,sp,40
    2020:	03e00008 	jr	ra
    2024:	00000000 	nop

00002028 <led_set>:
    2028:	27bdfff0 	addiu	sp,sp,-16
    202c:	afbe000c 	sw	s8,12(sp)
    2030:	03a0f025 	move	s8,sp
    2034:	afc40010 	sw	a0,16(s8)
    2038:	3402ff08 	li	v0,0xff08
    203c:	afc20000 	sw	v0,0(s8)
    2040:	8fc20000 	lw	v0,0(s8)
    2044:	8fc30010 	lw	v1,16(s8)
    2048:	00000000 	nop
    204c:	ac430000 	sw	v1,0(v0)
    2050:	00000000 	nop
    2054:	03c0e825 	move	sp,s8
    2058:	8fbe000c 	lw	s8,12(sp)
    205c:	27bd0010 	addiu	sp,sp,16
    2060:	03e00008 	jr	ra
    2064:	00000000 	nop

00002068 <led_blink>:
    2068:	27bdffe0 	addiu	sp,sp,-32
    206c:	afbf001c 	sw	ra,28(sp)
    2070:	afbe0018 	sw	s8,24(sp)
    2074:	03a0f025 	move	s8,sp
    2078:	2404000f 	li	a0,15
    207c:	0c00080a 	jal	2028 <led_set>
    2080:	00000000 	nop
    2084:	afc00010 	sw	zero,16(s8)
    2088:	10000005 	b	20a0 <led_blink+0x38>
    208c:	00000000 	nop
    2090:	8fc20010 	lw	v0,16(s8)
    2094:	00000000 	nop
    2098:	24420001 	addiu	v0,v0,1
    209c:	afc20010 	sw	v0,16(s8)
    20a0:	8fc30010 	lw	v1,16(s8)
    20a4:	3c020001 	lui	v0,0x1
    20a8:	344286a0 	ori	v0,v0,0x86a0
    20ac:	0062102a 	slt	v0,v1,v0
    20b0:	1440fff7 	bnez	v0,2090 <led_blink+0x28>
    20b4:	00000000 	nop
    20b8:	00002025 	move	a0,zero
    20bc:	0c00080a 	jal	2028 <led_set>
    20c0:	00000000 	nop
    20c4:	00000000 	nop
    20c8:	03c0e825 	move	sp,s8
    20cc:	8fbf001c 	lw	ra,28(sp)
    20d0:	8fbe0018 	lw	s8,24(sp)
    20d4:	27bd0020 	addiu	sp,sp,32
    20d8:	03e00008 	jr	ra
    20dc:	00000000 	nop

000020e0 <buzzer_play>:
    20e0:	27bdfff0 	addiu	sp,sp,-16
    20e4:	afbe000c 	sw	s8,12(sp)
    20e8:	03a0f025 	move	s8,sp
    20ec:	afc40010 	sw	a0,16(s8)
    20f0:	3402ff14 	li	v0,0xff14
    20f4:	afc20000 	sw	v0,0(s8)
    20f8:	8fc20000 	lw	v0,0(s8)
    20fc:	8fc30010 	lw	v1,16(s8)
    2100:	00000000 	nop
    2104:	ac430000 	sw	v1,0(v0)
    2108:	00000000 	nop
    210c:	03c0e825 	move	sp,s8
    2110:	8fbe000c 	lw	s8,12(sp)
    2114:	27bd0010 	addiu	sp,sp,16
    2118:	03e00008 	jr	ra
    211c:	00000000 	nop

00002120 <buzzer_stop>:
    2120:	27bdfff0 	addiu	sp,sp,-16
    2124:	afbe000c 	sw	s8,12(sp)
    2128:	03a0f025 	move	s8,sp
    212c:	3402ff14 	li	v0,0xff14
    2130:	afc20000 	sw	v0,0(s8)
    2134:	8fc20000 	lw	v0,0(s8)
    2138:	00000000 	nop
    213c:	ac400000 	sw	zero,0(v0)
    2140:	00000000 	nop
    2144:	03c0e825 	move	sp,s8
    2148:	8fbe000c 	lw	s8,12(sp)
    214c:	27bd0010 	addiu	sp,sp,16
    2150:	03e00008 	jr	ra
    2154:	00000000 	nop

00002158 <lcd_wait>:
    2158:	27bdfff0 	addiu	sp,sp,-16
    215c:	afbe000c 	sw	s8,12(sp)
    2160:	03a0f025 	move	s8,sp
    2164:	afc40010 	sw	a0,16(s8)
    2168:	afc00000 	sw	zero,0(s8)
    216c:	10000005 	b	2184 <lcd_wait+0x2c>
    2170:	00000000 	nop
    2174:	8fc20000 	lw	v0,0(s8)
    2178:	00000000 	nop
    217c:	24420001 	addiu	v0,v0,1
    2180:	afc20000 	sw	v0,0(s8)
    2184:	8fc30000 	lw	v1,0(s8)
    2188:	8fc20010 	lw	v0,16(s8)
    218c:	00000000 	nop
    2190:	0062102a 	slt	v0,v1,v0
    2194:	1440fff7 	bnez	v0,2174 <lcd_wait+0x1c>
    2198:	00000000 	nop
    219c:	00000000 	nop
    21a0:	03c0e825 	move	sp,s8
    21a4:	8fbe000c 	lw	s8,12(sp)
    21a8:	27bd0010 	addiu	sp,sp,16
    21ac:	03e00008 	jr	ra
    21b0:	00000000 	nop

000021b4 <lcd_cmd>:
    21b4:	27bdffe0 	addiu	sp,sp,-32
    21b8:	afbf001c 	sw	ra,28(sp)
    21bc:	afbe0018 	sw	s8,24(sp)
    21c0:	03a0f025 	move	s8,sp
    21c4:	00801025 	move	v0,a0
    21c8:	a3c20020 	sb	v0,32(s8)
    21cc:	3402ff0c 	li	v0,0xff0c
    21d0:	afc20010 	sw	v0,16(s8)
    21d4:	93c30020 	lbu	v1,32(s8)
    21d8:	8fc20010 	lw	v0,16(s8)
    21dc:	00000000 	nop
    21e0:	ac430000 	sw	v1,0(v0)
    21e4:	240403e8 	li	a0,1000
    21e8:	0c000856 	jal	2158 <lcd_wait>
    21ec:	00000000 	nop
    21f0:	00000000 	nop
    21f4:	03c0e825 	move	sp,s8
    21f8:	8fbf001c 	lw	ra,28(sp)
    21fc:	8fbe0018 	lw	s8,24(sp)
    2200:	27bd0020 	addiu	sp,sp,32
    2204:	03e00008 	jr	ra
    2208:	00000000 	nop

0000220c <lcd_data>:
    220c:	27bdffe0 	addiu	sp,sp,-32
    2210:	afbf001c 	sw	ra,28(sp)
    2214:	afbe0018 	sw	s8,24(sp)
    2218:	03a0f025 	move	s8,sp
    221c:	00801025 	move	v0,a0
    2220:	a3c20020 	sb	v0,32(s8)
    2224:	3402ff0c 	li	v0,0xff0c
    2228:	afc20010 	sw	v0,16(s8)
    222c:	93c20020 	lbu	v0,32(s8)
    2230:	00000000 	nop
    2234:	34430100 	ori	v1,v0,0x100
    2238:	8fc20010 	lw	v0,16(s8)
    223c:	00000000 	nop
    2240:	ac430000 	sw	v1,0(v0)
    2244:	240400c8 	li	a0,200
    2248:	0c000856 	jal	2158 <lcd_wait>
    224c:	00000000 	nop
    2250:	00000000 	nop
    2254:	03c0e825 	move	sp,s8
    2258:	8fbf001c 	lw	ra,28(sp)
    225c:	8fbe0018 	lw	s8,24(sp)
    2260:	27bd0020 	addiu	sp,sp,32
    2264:	03e00008 	jr	ra
    2268:	00000000 	nop

0000226c <lcd_pwr_on>:
    226c:	27bdffe0 	addiu	sp,sp,-32
    2270:	afbf001c 	sw	ra,28(sp)
    2274:	afbe0018 	sw	s8,24(sp)
    2278:	03a0f025 	move	s8,sp
    227c:	3402ff0c 	li	v0,0xff0c
    2280:	afc20010 	sw	v0,16(s8)
    2284:	8fc20010 	lw	v0,16(s8)
    2288:	24030200 	li	v1,512
    228c:	ac430000 	sw	v1,0(v0)
    2290:	3c02000a 	lui	v0,0xa
    2294:	3444ae60 	ori	a0,v0,0xae60
    2298:	0c000856 	jal	2158 <lcd_wait>
    229c:	00000000 	nop
    22a0:	00000000 	nop
    22a4:	03c0e825 	move	sp,s8
    22a8:	8fbf001c 	lw	ra,28(sp)
    22ac:	8fbe0018 	lw	s8,24(sp)
    22b0:	27bd0020 	addiu	sp,sp,32
    22b4:	03e00008 	jr	ra
    22b8:	00000000 	nop

000022bc <lcd_init>:
    22bc:	27bdffe8 	addiu	sp,sp,-24
    22c0:	afbf0014 	sw	ra,20(sp)
    22c4:	afbe0010 	sw	s8,16(sp)
    22c8:	03a0f025 	move	s8,sp
    22cc:	0c00089b 	jal	226c <lcd_pwr_on>
    22d0:	00000000 	nop
    22d4:	240400a0 	li	a0,160
    22d8:	0c00086d 	jal	21b4 <lcd_cmd>
    22dc:	00000000 	nop
    22e0:	24040020 	li	a0,32
    22e4:	0c00086d 	jal	21b4 <lcd_cmd>
    22e8:	00000000 	nop
    22ec:	24040015 	li	a0,21
    22f0:	0c00086d 	jal	21b4 <lcd_cmd>
    22f4:	00000000 	nop
    22f8:	00002025 	move	a0,zero
    22fc:	0c00086d 	jal	21b4 <lcd_cmd>
    2300:	00000000 	nop
    2304:	2404005f 	li	a0,95
    2308:	0c00086d 	jal	21b4 <lcd_cmd>
    230c:	00000000 	nop
    2310:	24040075 	li	a0,117
    2314:	0c00086d 	jal	21b4 <lcd_cmd>
    2318:	00000000 	nop
    231c:	00002025 	move	a0,zero
    2320:	0c00086d 	jal	21b4 <lcd_cmd>
    2324:	00000000 	nop
    2328:	2404003f 	li	a0,63
    232c:	0c00086d 	jal	21b4 <lcd_cmd>
    2330:	00000000 	nop
    2334:	240400af 	li	a0,175
    2338:	0c00086d 	jal	21b4 <lcd_cmd>
    233c:	00000000 	nop
    2340:	00000000 	nop
    2344:	03c0e825 	move	sp,s8
    2348:	8fbf0014 	lw	ra,20(sp)
    234c:	8fbe0010 	lw	s8,16(sp)
    2350:	27bd0018 	addiu	sp,sp,24
    2354:	03e00008 	jr	ra
    2358:	00000000 	nop

0000235c <lcd_set_vbuf_pixel>:
    235c:	27bdfff8 	addiu	sp,sp,-8
    2360:	afbe0004 	sw	s8,4(sp)
    2364:	03a0f025 	move	s8,sp
    2368:	afc40008 	sw	a0,8(s8)
    236c:	afc5000c 	sw	a1,12(s8)
    2370:	afc60010 	sw	a2,16(s8)
    2374:	afc70014 	sw	a3,20(s8)
    2378:	8fc20010 	lw	v0,16(s8)
    237c:	00000000 	nop
    2380:	00021143 	sra	v0,v0,0x5
    2384:	afc20010 	sw	v0,16(s8)
    2388:	8fc20014 	lw	v0,20(s8)
    238c:	00000000 	nop
    2390:	00021143 	sra	v0,v0,0x5
    2394:	afc20014 	sw	v0,20(s8)
    2398:	8fc20018 	lw	v0,24(s8)
    239c:	00000000 	nop
    23a0:	00021183 	sra	v0,v0,0x6
    23a4:	afc20018 	sw	v0,24(s8)
    23a8:	8fc20010 	lw	v0,16(s8)
    23ac:	00000000 	nop
    23b0:	00021140 	sll	v0,v0,0x5
    23b4:	00021e00 	sll	v1,v0,0x18
    23b8:	00031e03 	sra	v1,v1,0x18
    23bc:	8fc20014 	lw	v0,20(s8)
    23c0:	00000000 	nop
    23c4:	00021080 	sll	v0,v0,0x2
    23c8:	00021600 	sll	v0,v0,0x18
    23cc:	00021603 	sra	v0,v0,0x18
    23d0:	00621025 	or	v0,v1,v0
    23d4:	00021e00 	sll	v1,v0,0x18
    23d8:	00031e03 	sra	v1,v1,0x18
    23dc:	8fc20018 	lw	v0,24(s8)
    23e0:	00000000 	nop
    23e4:	00021600 	sll	v0,v0,0x18
    23e8:	00021603 	sra	v0,v0,0x18
    23ec:	00621025 	or	v0,v1,v0
    23f0:	00021600 	sll	v0,v0,0x18
    23f4:	00021603 	sra	v0,v0,0x18
    23f8:	304400ff 	andi	a0,v0,0xff
    23fc:	3c050000 	lui	a1,0x0
    2400:	8fc30008 	lw	v1,8(s8)
    2404:	00000000 	nop
    2408:	00601025 	move	v0,v1
    240c:	00021040 	sll	v0,v0,0x1
    2410:	00431021 	addu	v0,v0,v1
    2414:	00021140 	sll	v0,v0,0x5
    2418:	24a34b80 	addiu	v1,a1,19328
    241c:	00431821 	addu	v1,v0,v1
    2420:	8fc2000c 	lw	v0,12(s8)
    2424:	00000000 	nop
    2428:	00621021 	addu	v0,v1,v0
    242c:	a0440000 	sb	a0,0(v0)
    2430:	00000000 	nop
    2434:	03c0e825 	move	sp,s8
    2438:	8fbe0004 	lw	s8,4(sp)
    243c:	27bd0008 	addiu	sp,sp,8
    2440:	03e00008 	jr	ra
    2444:	00000000 	nop

00002448 <lcd_clear_vbuf>:
    2448:	27bdfff0 	addiu	sp,sp,-16
    244c:	afbe000c 	sw	s8,12(sp)
    2450:	03a0f025 	move	s8,sp
    2454:	afc00000 	sw	zero,0(s8)
    2458:	1000001e 	b	24d4 <lcd_clear_vbuf+0x8c>
    245c:	00000000 	nop
    2460:	afc00004 	sw	zero,4(s8)
    2464:	10000012 	b	24b0 <lcd_clear_vbuf+0x68>
    2468:	00000000 	nop
    246c:	3c040000 	lui	a0,0x0
    2470:	8fc30000 	lw	v1,0(s8)
    2474:	00000000 	nop
    2478:	00601025 	move	v0,v1
    247c:	00021040 	sll	v0,v0,0x1
    2480:	00431021 	addu	v0,v0,v1
    2484:	00021140 	sll	v0,v0,0x5
    2488:	24834b80 	addiu	v1,a0,19328
    248c:	00431821 	addu	v1,v0,v1
    2490:	8fc20004 	lw	v0,4(s8)
    2494:	00000000 	nop
    2498:	00621021 	addu	v0,v1,v0
    249c:	a0400000 	sb	zero,0(v0)
    24a0:	8fc20004 	lw	v0,4(s8)
    24a4:	00000000 	nop
    24a8:	24420001 	addiu	v0,v0,1
    24ac:	afc20004 	sw	v0,4(s8)
    24b0:	8fc20004 	lw	v0,4(s8)
    24b4:	00000000 	nop
    24b8:	28420060 	slti	v0,v0,96
    24bc:	1440ffeb 	bnez	v0,246c <lcd_clear_vbuf+0x24>
    24c0:	00000000 	nop
    24c4:	8fc20000 	lw	v0,0(s8)
    24c8:	00000000 	nop
    24cc:	24420001 	addiu	v0,v0,1
    24d0:	afc20000 	sw	v0,0(s8)
    24d4:	8fc20000 	lw	v0,0(s8)
    24d8:	00000000 	nop
    24dc:	28420040 	slti	v0,v0,64
    24e0:	1440ffdf 	bnez	v0,2460 <lcd_clear_vbuf+0x18>
    24e4:	00000000 	nop
    24e8:	00000000 	nop
    24ec:	03c0e825 	move	sp,s8
    24f0:	8fbe000c 	lw	s8,12(sp)
    24f4:	27bd0010 	addiu	sp,sp,16
    24f8:	03e00008 	jr	ra
    24fc:	00000000 	nop

00002500 <lcd_sync_vbuf>:
    2500:	27bdffe0 	addiu	sp,sp,-32
    2504:	afbf001c 	sw	ra,28(sp)
    2508:	afbe0018 	sw	s8,24(sp)
    250c:	03a0f025 	move	s8,sp
    2510:	afc00010 	sw	zero,16(s8)
    2514:	10000022 	b	25a0 <lcd_sync_vbuf+0xa0>
    2518:	00000000 	nop
    251c:	afc00014 	sw	zero,20(s8)
    2520:	10000016 	b	257c <lcd_sync_vbuf+0x7c>
    2524:	00000000 	nop
    2528:	3c040000 	lui	a0,0x0
    252c:	8fc30010 	lw	v1,16(s8)
    2530:	00000000 	nop
    2534:	00601025 	move	v0,v1
    2538:	00021040 	sll	v0,v0,0x1
    253c:	00431021 	addu	v0,v0,v1
    2540:	00021140 	sll	v0,v0,0x5
    2544:	24834b80 	addiu	v1,a0,19328
    2548:	00431821 	addu	v1,v0,v1
    254c:	8fc20014 	lw	v0,20(s8)
    2550:	00000000 	nop
    2554:	00621021 	addu	v0,v1,v0
    2558:	90420000 	lbu	v0,0(v0)
    255c:	00000000 	nop
    2560:	00402025 	move	a0,v0
    2564:	0c000883 	jal	220c <lcd_data>
    2568:	00000000 	nop
    256c:	8fc20014 	lw	v0,20(s8)
    2570:	00000000 	nop
    2574:	24420001 	addiu	v0,v0,1
    2578:	afc20014 	sw	v0,20(s8)
    257c:	8fc20014 	lw	v0,20(s8)
    2580:	00000000 	nop
    2584:	28420060 	slti	v0,v0,96
    2588:	1440ffe7 	bnez	v0,2528 <lcd_sync_vbuf+0x28>
    258c:	00000000 	nop
    2590:	8fc20010 	lw	v0,16(s8)
    2594:	00000000 	nop
    2598:	24420001 	addiu	v0,v0,1
    259c:	afc20010 	sw	v0,16(s8)
    25a0:	8fc20010 	lw	v0,16(s8)
    25a4:	00000000 	nop
    25a8:	28420040 	slti	v0,v0,64
    25ac:	1440ffdb 	bnez	v0,251c <lcd_sync_vbuf+0x1c>
    25b0:	00000000 	nop
    25b4:	00000000 	nop
    25b8:	03c0e825 	move	sp,s8
    25bc:	8fbf001c 	lw	ra,28(sp)
    25c0:	8fbe0018 	lw	s8,24(sp)
    25c4:	27bd0020 	addiu	sp,sp,32
    25c8:	03e00008 	jr	ra
    25cc:	00000000 	nop

000025d0 <lcd_putc>:
    25d0:	27bdffd8 	addiu	sp,sp,-40
    25d4:	afbf0024 	sw	ra,36(sp)
    25d8:	afbe0020 	sw	s8,32(sp)
    25dc:	03a0f025 	move	s8,sp
    25e0:	afc40028 	sw	a0,40(s8)
    25e4:	afc5002c 	sw	a1,44(s8)
    25e8:	afc60030 	sw	a2,48(s8)
    25ec:	afc00018 	sw	zero,24(s8)
    25f0:	10000036 	b	26cc <lcd_putc+0xfc>
    25f4:	00000000 	nop
    25f8:	afc0001c 	sw	zero,28(s8)
    25fc:	1000002a 	b	26a8 <lcd_putc+0xd8>
    2600:	00000000 	nop
    2604:	8fc20030 	lw	v0,48(s8)
    2608:	00000000 	nop
    260c:	2442ffe0 	addiu	v0,v0,-32
    2610:	000218c0 	sll	v1,v0,0x3
    2614:	8fc2001c 	lw	v0,28(s8)
    2618:	00000000 	nop
    261c:	00621821 	addu	v1,v1,v0
    2620:	3c020000 	lui	v0,0x0
    2624:	24424620 	addiu	v0,v0,17952
    2628:	00621021 	addu	v0,v1,v0
    262c:	90420000 	lbu	v0,0(v0)
    2630:	00000000 	nop
    2634:	00401825 	move	v1,v0
    2638:	8fc20018 	lw	v0,24(s8)
    263c:	00000000 	nop
    2640:	00431007 	srav	v0,v1,v0
    2644:	30420001 	andi	v0,v0,0x1
    2648:	10400013 	beqz	v0,2698 <lcd_putc+0xc8>
    264c:	00000000 	nop
    2650:	8fc20028 	lw	v0,40(s8)
    2654:	00000000 	nop
    2658:	000218c0 	sll	v1,v0,0x3
    265c:	8fc20018 	lw	v0,24(s8)
    2660:	00000000 	nop
    2664:	00622021 	addu	a0,v1,v0
    2668:	8fc2002c 	lw	v0,44(s8)
    266c:	00000000 	nop
    2670:	000218c0 	sll	v1,v0,0x3
    2674:	8fc2001c 	lw	v0,28(s8)
    2678:	00000000 	nop
    267c:	00621021 	addu	v0,v1,v0
    2680:	afa00010 	sw	zero,16(sp)
    2684:	240700ff 	li	a3,255
    2688:	00003025 	move	a2,zero
    268c:	00402825 	move	a1,v0
    2690:	0c0008d7 	jal	235c <lcd_set_vbuf_pixel>
    2694:	00000000 	nop
    2698:	8fc2001c 	lw	v0,28(s8)
    269c:	00000000 	nop
    26a0:	24420001 	addiu	v0,v0,1
    26a4:	afc2001c 	sw	v0,28(s8)
    26a8:	8fc2001c 	lw	v0,28(s8)
    26ac:	00000000 	nop
    26b0:	28420008 	slti	v0,v0,8
    26b4:	1440ffd3 	bnez	v0,2604 <lcd_putc+0x34>
    26b8:	00000000 	nop
    26bc:	8fc20018 	lw	v0,24(s8)
    26c0:	00000000 	nop
    26c4:	24420001 	addiu	v0,v0,1
    26c8:	afc20018 	sw	v0,24(s8)
    26cc:	8fc20018 	lw	v0,24(s8)
    26d0:	00000000 	nop
    26d4:	28420008 	slti	v0,v0,8
    26d8:	1440ffc7 	bnez	v0,25f8 <lcd_putc+0x28>
    26dc:	00000000 	nop
    26e0:	00000000 	nop
    26e4:	03c0e825 	move	sp,s8
    26e8:	8fbf0024 	lw	ra,36(sp)
    26ec:	8fbe0020 	lw	s8,32(sp)
    26f0:	27bd0028 	addiu	sp,sp,40
    26f4:	03e00008 	jr	ra
    26f8:	00000000 	nop

000026fc <lcd_puts>:
    26fc:	27bdffe0 	addiu	sp,sp,-32
    2700:	afbf001c 	sw	ra,28(sp)
    2704:	afbe0018 	sw	s8,24(sp)
    2708:	03a0f025 	move	s8,sp
    270c:	afc40020 	sw	a0,32(s8)
    2710:	afc50024 	sw	a1,36(s8)
    2714:	afc60028 	sw	a2,40(s8)
    2718:	afc00010 	sw	zero,16(s8)
    271c:	1000001d 	b	2794 <lcd_puts+0x98>
    2720:	00000000 	nop
    2724:	8fc20010 	lw	v0,16(s8)
    2728:	8fc30028 	lw	v1,40(s8)
    272c:	00000000 	nop
    2730:	00621021 	addu	v0,v1,v0
    2734:	80420000 	lb	v0,0(v0)
    2738:	00000000 	nop
    273c:	28420020 	slti	v0,v0,32
    2740:	14400010 	bnez	v0,2784 <lcd_puts+0x88>
    2744:	00000000 	nop
    2748:	8fc30024 	lw	v1,36(s8)
    274c:	8fc20010 	lw	v0,16(s8)
    2750:	00000000 	nop
    2754:	00622021 	addu	a0,v1,v0
    2758:	8fc20010 	lw	v0,16(s8)
    275c:	8fc30028 	lw	v1,40(s8)
    2760:	00000000 	nop
    2764:	00621021 	addu	v0,v1,v0
    2768:	80420000 	lb	v0,0(v0)
    276c:	00000000 	nop
    2770:	00403025 	move	a2,v0
    2774:	00802825 	move	a1,a0
    2778:	8fc40020 	lw	a0,32(s8)
    277c:	0c000974 	jal	25d0 <lcd_putc>
    2780:	00000000 	nop
    2784:	8fc20010 	lw	v0,16(s8)
    2788:	00000000 	nop
    278c:	24420001 	addiu	v0,v0,1
    2790:	afc20010 	sw	v0,16(s8)
    2794:	8fc20010 	lw	v0,16(s8)
    2798:	8fc30028 	lw	v1,40(s8)
    279c:	00000000 	nop
    27a0:	00621021 	addu	v0,v1,v0
    27a4:	80420000 	lb	v0,0(v0)
    27a8:	00000000 	nop
    27ac:	10400008 	beqz	v0,27d0 <lcd_puts+0xd4>
    27b0:	00000000 	nop
    27b4:	8fc30024 	lw	v1,36(s8)
    27b8:	8fc20010 	lw	v0,16(s8)
    27bc:	00000000 	nop
    27c0:	00621021 	addu	v0,v1,v0
    27c4:	2842000c 	slti	v0,v0,12
    27c8:	1440ffd6 	bnez	v0,2724 <lcd_puts+0x28>
    27cc:	00000000 	nop
    27d0:	00000000 	nop
    27d4:	03c0e825 	move	sp,s8
    27d8:	8fbf001c 	lw	ra,28(sp)
    27dc:	8fbe0018 	lw	s8,24(sp)
    27e0:	27bd0020 	addiu	sp,sp,32
    27e4:	03e00008 	jr	ra
    27e8:	00000000 	nop

000027ec <lcd_putc_color>:
    27ec:	27bdffd8 	addiu	sp,sp,-40
    27f0:	afbf0024 	sw	ra,36(sp)
    27f4:	afbe0020 	sw	s8,32(sp)
    27f8:	03a0f025 	move	s8,sp
    27fc:	afc40028 	sw	a0,40(s8)
    2800:	afc5002c 	sw	a1,44(s8)
    2804:	afc60030 	sw	a2,48(s8)
    2808:	afc70034 	sw	a3,52(s8)
    280c:	afc00018 	sw	zero,24(s8)
    2810:	10000038 	b	28f4 <lcd_putc_color+0x108>
    2814:	00000000 	nop
    2818:	afc0001c 	sw	zero,28(s8)
    281c:	1000002c 	b	28d0 <lcd_putc_color+0xe4>
    2820:	00000000 	nop
    2824:	8fc20030 	lw	v0,48(s8)
    2828:	00000000 	nop
    282c:	2442ffe0 	addiu	v0,v0,-32
    2830:	000218c0 	sll	v1,v0,0x3
    2834:	8fc2001c 	lw	v0,28(s8)
    2838:	00000000 	nop
    283c:	00621821 	addu	v1,v1,v0
    2840:	3c020000 	lui	v0,0x0
    2844:	24424620 	addiu	v0,v0,17952
    2848:	00621021 	addu	v0,v1,v0
    284c:	90420000 	lbu	v0,0(v0)
    2850:	00000000 	nop
    2854:	00401825 	move	v1,v0
    2858:	8fc20018 	lw	v0,24(s8)
    285c:	00000000 	nop
    2860:	00431007 	srav	v0,v1,v0
    2864:	30420001 	andi	v0,v0,0x1
    2868:	10400015 	beqz	v0,28c0 <lcd_putc_color+0xd4>
    286c:	00000000 	nop
    2870:	8fc20028 	lw	v0,40(s8)
    2874:	00000000 	nop
    2878:	000218c0 	sll	v1,v0,0x3
    287c:	8fc20018 	lw	v0,24(s8)
    2880:	00000000 	nop
    2884:	00622021 	addu	a0,v1,v0
    2888:	8fc2002c 	lw	v0,44(s8)
    288c:	00000000 	nop
    2890:	000218c0 	sll	v1,v0,0x3
    2894:	8fc2001c 	lw	v0,28(s8)
    2898:	00000000 	nop
    289c:	00621821 	addu	v1,v1,v0
    28a0:	8fc2003c 	lw	v0,60(s8)
    28a4:	00000000 	nop
    28a8:	afa20010 	sw	v0,16(sp)
    28ac:	8fc70038 	lw	a3,56(s8)
    28b0:	8fc60034 	lw	a2,52(s8)
    28b4:	00602825 	move	a1,v1
    28b8:	0c0008d7 	jal	235c <lcd_set_vbuf_pixel>
    28bc:	00000000 	nop
    28c0:	8fc2001c 	lw	v0,28(s8)
    28c4:	00000000 	nop
    28c8:	24420001 	addiu	v0,v0,1
    28cc:	afc2001c 	sw	v0,28(s8)
    28d0:	8fc2001c 	lw	v0,28(s8)
    28d4:	00000000 	nop
    28d8:	28420008 	slti	v0,v0,8
    28dc:	1440ffd1 	bnez	v0,2824 <lcd_putc_color+0x38>
    28e0:	00000000 	nop
    28e4:	8fc20018 	lw	v0,24(s8)
    28e8:	00000000 	nop
    28ec:	24420001 	addiu	v0,v0,1
    28f0:	afc20018 	sw	v0,24(s8)
    28f4:	8fc20018 	lw	v0,24(s8)
    28f8:	00000000 	nop
    28fc:	28420008 	slti	v0,v0,8
    2900:	1440ffc5 	bnez	v0,2818 <lcd_putc_color+0x2c>
    2904:	00000000 	nop
    2908:	00000000 	nop
    290c:	03c0e825 	move	sp,s8
    2910:	8fbf0024 	lw	ra,36(sp)
    2914:	8fbe0020 	lw	s8,32(sp)
    2918:	27bd0028 	addiu	sp,sp,40
    291c:	03e00008 	jr	ra
    2920:	00000000 	nop

00002924 <lcd_puts_color>:
    2924:	27bdffd8 	addiu	sp,sp,-40
    2928:	afbf0024 	sw	ra,36(sp)
    292c:	afbe0020 	sw	s8,32(sp)
    2930:	03a0f025 	move	s8,sp
    2934:	afc40028 	sw	a0,40(s8)
    2938:	afc5002c 	sw	a1,44(s8)
    293c:	afc60030 	sw	a2,48(s8)
    2940:	afc70034 	sw	a3,52(s8)
    2944:	afc00018 	sw	zero,24(s8)
    2948:	10000025 	b	29e0 <lcd_puts_color+0xbc>
    294c:	00000000 	nop
    2950:	8fc20018 	lw	v0,24(s8)
    2954:	8fc30030 	lw	v1,48(s8)
    2958:	00000000 	nop
    295c:	00621021 	addu	v0,v1,v0
    2960:	80420000 	lb	v0,0(v0)
    2964:	00000000 	nop
    2968:	28420020 	slti	v0,v0,32
    296c:	14400018 	bnez	v0,29d0 <lcd_puts_color+0xac>
    2970:	00000000 	nop
    2974:	8fc3002c 	lw	v1,44(s8)
    2978:	8fc20018 	lw	v0,24(s8)
    297c:	00000000 	nop
    2980:	00622021 	addu	a0,v1,v0
    2984:	8fc20018 	lw	v0,24(s8)
    2988:	8fc30030 	lw	v1,48(s8)
    298c:	00000000 	nop
    2990:	00621021 	addu	v0,v1,v0
    2994:	80420000 	lb	v0,0(v0)
    2998:	00000000 	nop
    299c:	00401825 	move	v1,v0
    29a0:	8fc2003c 	lw	v0,60(s8)
    29a4:	00000000 	nop
    29a8:	afa20014 	sw	v0,20(sp)
    29ac:	8fc20038 	lw	v0,56(s8)
    29b0:	00000000 	nop
    29b4:	afa20010 	sw	v0,16(sp)
    29b8:	8fc70034 	lw	a3,52(s8)
    29bc:	00603025 	move	a2,v1
    29c0:	00802825 	move	a1,a0
    29c4:	8fc40028 	lw	a0,40(s8)
    29c8:	0c0009fb 	jal	27ec <lcd_putc_color>
    29cc:	00000000 	nop
    29d0:	8fc20018 	lw	v0,24(s8)
    29d4:	00000000 	nop
    29d8:	24420001 	addiu	v0,v0,1
    29dc:	afc20018 	sw	v0,24(s8)
    29e0:	8fc20018 	lw	v0,24(s8)
    29e4:	8fc30030 	lw	v1,48(s8)
    29e8:	00000000 	nop
    29ec:	00621021 	addu	v0,v1,v0
    29f0:	80420000 	lb	v0,0(v0)
    29f4:	00000000 	nop
    29f8:	10400008 	beqz	v0,2a1c <lcd_puts_color+0xf8>
    29fc:	00000000 	nop
    2a00:	8fc3002c 	lw	v1,44(s8)
    2a04:	8fc20018 	lw	v0,24(s8)
    2a08:	00000000 	nop
    2a0c:	00621021 	addu	v0,v1,v0
    2a10:	2842000c 	slti	v0,v0,12
    2a14:	1440ffce 	bnez	v0,2950 <lcd_puts_color+0x2c>
    2a18:	00000000 	nop
    2a1c:	00000000 	nop
    2a20:	03c0e825 	move	sp,s8
    2a24:	8fbf0024 	lw	ra,36(sp)
    2a28:	8fbe0020 	lw	s8,32(sp)
    2a2c:	27bd0028 	addiu	sp,sp,40
    2a30:	03e00008 	jr	ra
    2a34:	00000000 	nop

00002a38 <draw_court_lines>:
    2a38:	27bdffc8 	addiu	sp,sp,-56
    2a3c:	afbf0034 	sw	ra,52(sp)
    2a40:	afbe0030 	sw	s8,48(sp)
    2a44:	03a0f025 	move	s8,sp
    2a48:	24020004 	li	v0,4
    2a4c:	afc20018 	sw	v0,24(s8)
    2a50:	10000015 	b	2aa8 <draw_court_lines+0x70>
    2a54:	00000000 	nop
    2a58:	240200ff 	li	v0,255
    2a5c:	afa20010 	sw	v0,16(sp)
    2a60:	240700ff 	li	a3,255
    2a64:	240600ff 	li	a2,255
    2a68:	8fc50018 	lw	a1,24(s8)
    2a6c:	24040004 	li	a0,4
    2a70:	0c0008d7 	jal	235c <lcd_set_vbuf_pixel>
    2a74:	00000000 	nop
    2a78:	240200ff 	li	v0,255
    2a7c:	afa20010 	sw	v0,16(sp)
    2a80:	240700ff 	li	a3,255
    2a84:	240600ff 	li	a2,255
    2a88:	8fc50018 	lw	a1,24(s8)
    2a8c:	2404003b 	li	a0,59
    2a90:	0c0008d7 	jal	235c <lcd_set_vbuf_pixel>
    2a94:	00000000 	nop
    2a98:	8fc20018 	lw	v0,24(s8)
    2a9c:	00000000 	nop
    2aa0:	24420001 	addiu	v0,v0,1
    2aa4:	afc20018 	sw	v0,24(s8)
    2aa8:	8fc20018 	lw	v0,24(s8)
    2aac:	00000000 	nop
    2ab0:	2842005c 	slti	v0,v0,92
    2ab4:	1440ffe8 	bnez	v0,2a58 <draw_court_lines+0x20>
    2ab8:	00000000 	nop
    2abc:	24020004 	li	v0,4
    2ac0:	afc2001c 	sw	v0,28(s8)
    2ac4:	10000015 	b	2b1c <draw_court_lines+0xe4>
    2ac8:	00000000 	nop
    2acc:	240200ff 	li	v0,255
    2ad0:	afa20010 	sw	v0,16(sp)
    2ad4:	240700ff 	li	a3,255
    2ad8:	240600ff 	li	a2,255
    2adc:	24050004 	li	a1,4
    2ae0:	8fc4001c 	lw	a0,28(s8)
    2ae4:	0c0008d7 	jal	235c <lcd_set_vbuf_pixel>
    2ae8:	00000000 	nop
    2aec:	240200ff 	li	v0,255
    2af0:	afa20010 	sw	v0,16(sp)
    2af4:	240700ff 	li	a3,255
    2af8:	240600ff 	li	a2,255
    2afc:	2405005b 	li	a1,91
    2b00:	8fc4001c 	lw	a0,28(s8)
    2b04:	0c0008d7 	jal	235c <lcd_set_vbuf_pixel>
    2b08:	00000000 	nop
    2b0c:	8fc2001c 	lw	v0,28(s8)
    2b10:	00000000 	nop
    2b14:	24420001 	addiu	v0,v0,1
    2b18:	afc2001c 	sw	v0,28(s8)
    2b1c:	8fc2001c 	lw	v0,28(s8)
    2b20:	00000000 	nop
    2b24:	2842003c 	slti	v0,v0,60
    2b28:	1440ffe8 	bnez	v0,2acc <draw_court_lines+0x94>
    2b2c:	00000000 	nop
    2b30:	24020010 	li	v0,16
    2b34:	afc20020 	sw	v0,32(s8)
    2b38:	10000015 	b	2b90 <draw_court_lines+0x158>
    2b3c:	00000000 	nop
    2b40:	240200ff 	li	v0,255
    2b44:	afa20010 	sw	v0,16(sp)
    2b48:	240700ff 	li	a3,255
    2b4c:	240600ff 	li	a2,255
    2b50:	24050018 	li	a1,24
    2b54:	8fc40020 	lw	a0,32(s8)
    2b58:	0c0008d7 	jal	235c <lcd_set_vbuf_pixel>
    2b5c:	00000000 	nop
    2b60:	240200ff 	li	v0,255
    2b64:	afa20010 	sw	v0,16(sp)
    2b68:	240700ff 	li	a3,255
    2b6c:	240600ff 	li	a2,255
    2b70:	24050047 	li	a1,71
    2b74:	8fc40020 	lw	a0,32(s8)
    2b78:	0c0008d7 	jal	235c <lcd_set_vbuf_pixel>
    2b7c:	00000000 	nop
    2b80:	8fc20020 	lw	v0,32(s8)
    2b84:	00000000 	nop
    2b88:	24420001 	addiu	v0,v0,1
    2b8c:	afc20020 	sw	v0,32(s8)
    2b90:	8fc20020 	lw	v0,32(s8)
    2b94:	00000000 	nop
    2b98:	28420030 	slti	v0,v0,48
    2b9c:	1440ffe8 	bnez	v0,2b40 <draw_court_lines+0x108>
    2ba0:	00000000 	nop
    2ba4:	24020018 	li	v0,24
    2ba8:	afc20024 	sw	v0,36(s8)
    2bac:	1000000d 	b	2be4 <draw_court_lines+0x1ac>
    2bb0:	00000000 	nop
    2bb4:	240200ff 	li	v0,255
    2bb8:	afa20010 	sw	v0,16(sp)
    2bbc:	240700ff 	li	a3,255
    2bc0:	240600ff 	li	a2,255
    2bc4:	8fc50024 	lw	a1,36(s8)
    2bc8:	24040020 	li	a0,32
    2bcc:	0c0008d7 	jal	235c <lcd_set_vbuf_pixel>
    2bd0:	00000000 	nop
    2bd4:	8fc20024 	lw	v0,36(s8)
    2bd8:	00000000 	nop
    2bdc:	24420002 	addiu	v0,v0,2
    2be0:	afc20024 	sw	v0,36(s8)
    2be4:	8fc20024 	lw	v0,36(s8)
    2be8:	00000000 	nop
    2bec:	28420048 	slti	v0,v0,72
    2bf0:	1440fff0 	bnez	v0,2bb4 <draw_court_lines+0x17c>
    2bf4:	00000000 	nop
    2bf8:	24020002 	li	v0,2
    2bfc:	afc20028 	sw	v0,40(s8)
    2c00:	1000000d 	b	2c38 <draw_court_lines+0x200>
    2c04:	00000000 	nop
    2c08:	240200b4 	li	v0,180
    2c0c:	afa20010 	sw	v0,16(sp)
    2c10:	240700b4 	li	a3,180
    2c14:	240600b4 	li	a2,180
    2c18:	24050030 	li	a1,48
    2c1c:	8fc40028 	lw	a0,40(s8)
    2c20:	0c0008d7 	jal	235c <lcd_set_vbuf_pixel>
    2c24:	00000000 	nop
    2c28:	8fc20028 	lw	v0,40(s8)
    2c2c:	00000000 	nop
    2c30:	24420002 	addiu	v0,v0,2
    2c34:	afc20028 	sw	v0,40(s8)
    2c38:	8fc20028 	lw	v0,40(s8)
    2c3c:	00000000 	nop
    2c40:	2842003e 	slti	v0,v0,62
    2c44:	1440fff0 	bnez	v0,2c08 <draw_court_lines+0x1d0>
    2c48:	00000000 	nop
    2c4c:	00000000 	nop
    2c50:	03c0e825 	move	sp,s8
    2c54:	8fbf0034 	lw	ra,52(sp)
    2c58:	8fbe0030 	lw	s8,48(sp)
    2c5c:	27bd0038 	addiu	sp,sp,56
    2c60:	03e00008 	jr	ra
    2c64:	00000000 	nop

00002c68 <draw_racket>:
    2c68:	27bdffc8 	addiu	sp,sp,-56
    2c6c:	afbf0034 	sw	ra,52(sp)
    2c70:	afbe0030 	sw	s8,48(sp)
    2c74:	03a0f025 	move	s8,sp
    2c78:	afc40038 	sw	a0,56(s8)
    2c7c:	afc5003c 	sw	a1,60(s8)
    2c80:	afc60040 	sw	a2,64(s8)
    2c84:	afc70044 	sw	a3,68(s8)
    2c88:	afc00018 	sw	zero,24(s8)
    2c8c:	10000054 	b	2de0 <draw_racket+0x178>
    2c90:	00000000 	nop
    2c94:	afc0001c 	sw	zero,28(s8)
    2c98:	10000048 	b	2dbc <draw_racket+0x154>
    2c9c:	00000000 	nop
    2ca0:	8fc3003c 	lw	v1,60(s8)
    2ca4:	8fc20018 	lw	v0,24(s8)
    2ca8:	00000000 	nop
    2cac:	00621021 	addu	v0,v1,v0
    2cb0:	afc20020 	sw	v0,32(s8)
    2cb4:	8fc30038 	lw	v1,56(s8)
    2cb8:	8fc2001c 	lw	v0,28(s8)
    2cbc:	00000000 	nop
    2cc0:	00621021 	addu	v0,v1,v0
    2cc4:	afc20024 	sw	v0,36(s8)
    2cc8:	8fc20024 	lw	v0,36(s8)
    2ccc:	00000000 	nop
    2cd0:	04400036 	bltz	v0,2dac <draw_racket+0x144>
    2cd4:	00000000 	nop
    2cd8:	8fc20024 	lw	v0,36(s8)
    2cdc:	00000000 	nop
    2ce0:	28420060 	slti	v0,v0,96
    2ce4:	10400031 	beqz	v0,2dac <draw_racket+0x144>
    2ce8:	00000000 	nop
    2cec:	8fc20020 	lw	v0,32(s8)
    2cf0:	00000000 	nop
    2cf4:	0440002d 	bltz	v0,2dac <draw_racket+0x144>
    2cf8:	00000000 	nop
    2cfc:	8fc20020 	lw	v0,32(s8)
    2d00:	00000000 	nop
    2d04:	28420040 	slti	v0,v0,64
    2d08:	10400028 	beqz	v0,2dac <draw_racket+0x144>
    2d0c:	00000000 	nop
    2d10:	3c020000 	lui	v0,0x0
    2d14:	8fc30018 	lw	v1,24(s8)
    2d18:	00000000 	nop
    2d1c:	000318c0 	sll	v1,v1,0x3
    2d20:	24424920 	addiu	v0,v0,18720
    2d24:	00621821 	addu	v1,v1,v0
    2d28:	8fc2001c 	lw	v0,28(s8)
    2d2c:	00000000 	nop
    2d30:	00621021 	addu	v0,v1,v0
    2d34:	90420000 	lbu	v0,0(v0)
    2d38:	00000000 	nop
    2d3c:	afc20028 	sw	v0,40(s8)
    2d40:	8fc30028 	lw	v1,40(s8)
    2d44:	24020001 	li	v0,1
    2d48:	1462000c 	bne	v1,v0,2d7c <draw_racket+0x114>
    2d4c:	00000000 	nop
    2d50:	8fc20048 	lw	v0,72(s8)
    2d54:	00000000 	nop
    2d58:	afa20010 	sw	v0,16(sp)
    2d5c:	8fc70044 	lw	a3,68(s8)
    2d60:	8fc60040 	lw	a2,64(s8)
    2d64:	8fc50024 	lw	a1,36(s8)
    2d68:	8fc40020 	lw	a0,32(s8)
    2d6c:	0c0008d7 	jal	235c <lcd_set_vbuf_pixel>
    2d70:	00000000 	nop
    2d74:	1000000d 	b	2dac <draw_racket+0x144>
    2d78:	00000000 	nop
    2d7c:	8fc30028 	lw	v1,40(s8)
    2d80:	24020002 	li	v0,2
    2d84:	14620009 	bne	v1,v0,2dac <draw_racket+0x144>
    2d88:	00000000 	nop
    2d8c:	24020064 	li	v0,100
    2d90:	afa20010 	sw	v0,16(sp)
    2d94:	24070064 	li	a3,100
    2d98:	24060064 	li	a2,100
    2d9c:	8fc50024 	lw	a1,36(s8)
    2da0:	8fc40020 	lw	a0,32(s8)
    2da4:	0c0008d7 	jal	235c <lcd_set_vbuf_pixel>
    2da8:	00000000 	nop
    2dac:	8fc2001c 	lw	v0,28(s8)
    2db0:	00000000 	nop
    2db4:	24420001 	addiu	v0,v0,1
    2db8:	afc2001c 	sw	v0,28(s8)
    2dbc:	8fc2001c 	lw	v0,28(s8)
    2dc0:	00000000 	nop
    2dc4:	28420008 	slti	v0,v0,8
    2dc8:	1440ffb5 	bnez	v0,2ca0 <draw_racket+0x38>
    2dcc:	00000000 	nop
    2dd0:	8fc20018 	lw	v0,24(s8)
    2dd4:	00000000 	nop
    2dd8:	24420001 	addiu	v0,v0,1
    2ddc:	afc20018 	sw	v0,24(s8)
    2de0:	8fc20018 	lw	v0,24(s8)
    2de4:	00000000 	nop
    2de8:	2842000c 	slti	v0,v0,12
    2dec:	1440ffa9 	bnez	v0,2c94 <draw_racket+0x2c>
    2df0:	00000000 	nop
    2df4:	00000000 	nop
    2df8:	03c0e825 	move	sp,s8
    2dfc:	8fbf0034 	lw	ra,52(sp)
    2e00:	8fbe0030 	lw	s8,48(sp)
    2e04:	27bd0038 	addiu	sp,sp,56
    2e08:	03e00008 	jr	ra
    2e0c:	00000000 	nop

00002e10 <draw_ball>:
    2e10:	27bdffd0 	addiu	sp,sp,-48
    2e14:	afbf002c 	sw	ra,44(sp)
    2e18:	afbe0028 	sw	s8,40(sp)
    2e1c:	03a0f025 	move	s8,sp
    2e20:	afc40030 	sw	a0,48(s8)
    2e24:	afc50034 	sw	a1,52(s8)
    2e28:	afc00018 	sw	zero,24(s8)
    2e2c:	10000034 	b	2f00 <draw_ball+0xf0>
    2e30:	00000000 	nop
    2e34:	afc0001c 	sw	zero,28(s8)
    2e38:	10000028 	b	2edc <draw_ball+0xcc>
    2e3c:	00000000 	nop
    2e40:	8fc30034 	lw	v1,52(s8)
    2e44:	8fc20018 	lw	v0,24(s8)
    2e48:	00000000 	nop
    2e4c:	00621021 	addu	v0,v1,v0
    2e50:	afc20020 	sw	v0,32(s8)
    2e54:	8fc30030 	lw	v1,48(s8)
    2e58:	8fc2001c 	lw	v0,28(s8)
    2e5c:	00000000 	nop
    2e60:	00621021 	addu	v0,v1,v0
    2e64:	afc20024 	sw	v0,36(s8)
    2e68:	8fc20024 	lw	v0,36(s8)
    2e6c:	00000000 	nop
    2e70:	04400016 	bltz	v0,2ecc <draw_ball+0xbc>
    2e74:	00000000 	nop
    2e78:	8fc20024 	lw	v0,36(s8)
    2e7c:	00000000 	nop
    2e80:	28420060 	slti	v0,v0,96
    2e84:	10400011 	beqz	v0,2ecc <draw_ball+0xbc>
    2e88:	00000000 	nop
    2e8c:	8fc20020 	lw	v0,32(s8)
    2e90:	00000000 	nop
    2e94:	0440000d 	bltz	v0,2ecc <draw_ball+0xbc>
    2e98:	00000000 	nop
    2e9c:	8fc20020 	lw	v0,32(s8)
    2ea0:	00000000 	nop
    2ea4:	28420040 	slti	v0,v0,64
    2ea8:	10400008 	beqz	v0,2ecc <draw_ball+0xbc>
    2eac:	00000000 	nop
    2eb0:	afa00010 	sw	zero,16(sp)
    2eb4:	240700ff 	li	a3,255
    2eb8:	240600ff 	li	a2,255
    2ebc:	8fc50024 	lw	a1,36(s8)
    2ec0:	8fc40020 	lw	a0,32(s8)
    2ec4:	0c0008d7 	jal	235c <lcd_set_vbuf_pixel>
    2ec8:	00000000 	nop
    2ecc:	8fc2001c 	lw	v0,28(s8)
    2ed0:	00000000 	nop
    2ed4:	24420001 	addiu	v0,v0,1
    2ed8:	afc2001c 	sw	v0,28(s8)
    2edc:	8fc2001c 	lw	v0,28(s8)
    2ee0:	00000000 	nop
    2ee4:	28420004 	slti	v0,v0,4
    2ee8:	1440ffd5 	bnez	v0,2e40 <draw_ball+0x30>
    2eec:	00000000 	nop
    2ef0:	8fc20018 	lw	v0,24(s8)
    2ef4:	00000000 	nop
    2ef8:	24420001 	addiu	v0,v0,1
    2efc:	afc20018 	sw	v0,24(s8)
    2f00:	8fc20018 	lw	v0,24(s8)
    2f04:	00000000 	nop
    2f08:	28420004 	slti	v0,v0,4
    2f0c:	1440ffc9 	bnez	v0,2e34 <draw_ball+0x24>
    2f10:	00000000 	nop
    2f14:	00000000 	nop
    2f18:	03c0e825 	move	sp,s8
    2f1c:	8fbf002c 	lw	ra,44(sp)
    2f20:	8fbe0028 	lw	s8,40(sp)
    2f24:	27bd0030 	addiu	sp,sp,48
    2f28:	03e00008 	jr	ra
    2f2c:	00000000 	nop

00002f30 <draw_tennis_game>:
    2f30:	27bdffd0 	addiu	sp,sp,-48
    2f34:	afbf002c 	sw	ra,44(sp)
    2f38:	afbe0028 	sw	s8,40(sp)
    2f3c:	03a0f025 	move	s8,sp
    2f40:	0c000912 	jal	2448 <lcd_clear_vbuf>
    2f44:	00000000 	nop
    2f48:	afc00018 	sw	zero,24(s8)
    2f4c:	10000018 	b	2fb0 <draw_tennis_game+0x80>
    2f50:	00000000 	nop
    2f54:	afc0001c 	sw	zero,28(s8)
    2f58:	1000000c 	b	2f8c <draw_tennis_game+0x5c>
    2f5c:	00000000 	nop
    2f60:	afa00010 	sw	zero,16(sp)
    2f64:	24070064 	li	a3,100
    2f68:	00003025 	move	a2,zero
    2f6c:	8fc5001c 	lw	a1,28(s8)
    2f70:	8fc40018 	lw	a0,24(s8)
    2f74:	0c0008d7 	jal	235c <lcd_set_vbuf_pixel>
    2f78:	00000000 	nop
    2f7c:	8fc2001c 	lw	v0,28(s8)
    2f80:	00000000 	nop
    2f84:	24420001 	addiu	v0,v0,1
    2f88:	afc2001c 	sw	v0,28(s8)
    2f8c:	8fc2001c 	lw	v0,28(s8)
    2f90:	00000000 	nop
    2f94:	28420060 	slti	v0,v0,96
    2f98:	1440fff1 	bnez	v0,2f60 <draw_tennis_game+0x30>
    2f9c:	00000000 	nop
    2fa0:	8fc20018 	lw	v0,24(s8)
    2fa4:	00000000 	nop
    2fa8:	24420001 	addiu	v0,v0,1
    2fac:	afc20018 	sw	v0,24(s8)
    2fb0:	8fc20018 	lw	v0,24(s8)
    2fb4:	00000000 	nop
    2fb8:	28420040 	slti	v0,v0,64
    2fbc:	1440ffe5 	bnez	v0,2f54 <draw_tennis_game+0x24>
    2fc0:	00000000 	nop
    2fc4:	0c000a8e 	jal	2a38 <draw_court_lines>
    2fc8:	00000000 	nop
    2fcc:	3c020000 	lui	v0,0x0
    2fd0:	8c434af8 	lw	v1,19192(v0)
    2fd4:	3c020000 	lui	v0,0x0
    2fd8:	8c424afc 	lw	v0,19196(v0)
    2fdc:	afa00010 	sw	zero,16(sp)
    2fe0:	240700ff 	li	a3,255
    2fe4:	00003025 	move	a2,zero
    2fe8:	00402825 	move	a1,v0
    2fec:	00602025 	move	a0,v1
    2ff0:	0c000b1a 	jal	2c68 <draw_racket>
    2ff4:	00000000 	nop
    2ff8:	3c020000 	lui	v0,0x0
    2ffc:	8c434b00 	lw	v1,19200(v0)
    3000:	3c020000 	lui	v0,0x0
    3004:	8c424b04 	lw	v0,19204(v0)
    3008:	afa00010 	sw	zero,16(sp)
    300c:	24070080 	li	a3,128
    3010:	240600ff 	li	a2,255
    3014:	00402825 	move	a1,v0
    3018:	00602025 	move	a0,v1
    301c:	0c000b1a 	jal	2c68 <draw_racket>
    3020:	00000000 	nop
    3024:	3c020000 	lui	v0,0x0
    3028:	8c434b08 	lw	v1,19208(v0)
    302c:	3c020000 	lui	v0,0x0
    3030:	8c424b0c 	lw	v0,19212(v0)
    3034:	00000000 	nop
    3038:	00402825 	move	a1,v0
    303c:	00602025 	move	a0,v1
    3040:	0c000b84 	jal	2e10 <draw_ball>
    3044:	00000000 	nop
    3048:	3c020000 	lui	v0,0x0
    304c:	8c424b60 	lw	v0,19296(v0)
    3050:	00000000 	nop
    3054:	304200ff 	andi	v0,v0,0xff
    3058:	24420030 	addiu	v0,v0,48
    305c:	304200ff 	andi	v0,v0,0xff
    3060:	00021600 	sll	v0,v0,0x18
    3064:	00021603 	sra	v0,v0,0x18
    3068:	a3c20020 	sb	v0,32(s8)
    306c:	2402002d 	li	v0,45
    3070:	a3c20021 	sb	v0,33(s8)
    3074:	3c020000 	lui	v0,0x0
    3078:	8c424b64 	lw	v0,19300(v0)
    307c:	00000000 	nop
    3080:	304200ff 	andi	v0,v0,0xff
    3084:	24420030 	addiu	v0,v0,48
    3088:	304200ff 	andi	v0,v0,0xff
    308c:	00021600 	sll	v0,v0,0x18
    3090:	00021603 	sra	v0,v0,0x18
    3094:	a3c20022 	sb	v0,34(s8)
    3098:	a3c00023 	sb	zero,35(s8)
    309c:	27c30020 	addiu	v1,s8,32
    30a0:	240200ff 	li	v0,255
    30a4:	afa20014 	sw	v0,20(sp)
    30a8:	240200ff 	li	v0,255
    30ac:	afa20010 	sw	v0,16(sp)
    30b0:	240700ff 	li	a3,255
    30b4:	00603025 	move	a2,v1
    30b8:	24050005 	li	a1,5
    30bc:	00002025 	move	a0,zero
    30c0:	0c000a49 	jal	2924 <lcd_puts_color>
    30c4:	00000000 	nop
    30c8:	00000000 	nop
    30cc:	03c0e825 	move	sp,s8
    30d0:	8fbf002c 	lw	ra,44(sp)
    30d4:	8fbe0028 	lw	s8,40(sp)
    30d8:	27bd0030 	addiu	sp,sp,48
    30dc:	03e00008 	jr	ra
    30e0:	00000000 	nop

000030e4 <draw_squash_background>:
    30e4:	27bdffd8 	addiu	sp,sp,-40
    30e8:	afbf0024 	sw	ra,36(sp)
    30ec:	afbe0020 	sw	s8,32(sp)
    30f0:	03a0f025 	move	s8,sp
    30f4:	afc00018 	sw	zero,24(s8)
    30f8:	10000019 	b	3160 <draw_squash_background+0x7c>
    30fc:	00000000 	nop
    3100:	afc0001c 	sw	zero,28(s8)
    3104:	1000000d 	b	313c <draw_squash_background+0x58>
    3108:	00000000 	nop
    310c:	2402003c 	li	v0,60
    3110:	afa20010 	sw	v0,16(sp)
    3114:	24070028 	li	a3,40
    3118:	00003025 	move	a2,zero
    311c:	8fc5001c 	lw	a1,28(s8)
    3120:	8fc40018 	lw	a0,24(s8)
    3124:	0c0008d7 	jal	235c <lcd_set_vbuf_pixel>
    3128:	00000000 	nop
    312c:	8fc2001c 	lw	v0,28(s8)
    3130:	00000000 	nop
    3134:	24420001 	addiu	v0,v0,1
    3138:	afc2001c 	sw	v0,28(s8)
    313c:	8fc2001c 	lw	v0,28(s8)
    3140:	00000000 	nop
    3144:	28420060 	slti	v0,v0,96
    3148:	1440fff0 	bnez	v0,310c <draw_squash_background+0x28>
    314c:	00000000 	nop
    3150:	8fc20018 	lw	v0,24(s8)
    3154:	00000000 	nop
    3158:	24420001 	addiu	v0,v0,1
    315c:	afc20018 	sw	v0,24(s8)
    3160:	8fc20018 	lw	v0,24(s8)
    3164:	00000000 	nop
    3168:	28420038 	slti	v0,v0,56
    316c:	1440ffe4 	bnez	v0,3100 <draw_squash_background+0x1c>
    3170:	00000000 	nop
    3174:	00000000 	nop
    3178:	03c0e825 	move	sp,s8
    317c:	8fbf0024 	lw	ra,36(sp)
    3180:	8fbe0020 	lw	s8,32(sp)
    3184:	27bd0028 	addiu	sp,sp,40
    3188:	03e00008 	jr	ra
    318c:	00000000 	nop

00003190 <draw_squash_walls>:
    3190:	27bdffc8 	addiu	sp,sp,-56
    3194:	afbf0034 	sw	ra,52(sp)
    3198:	afbe0030 	sw	s8,48(sp)
    319c:	03a0f025 	move	s8,sp
    31a0:	afc00018 	sw	zero,24(s8)
    31a4:	10000019 	b	320c <draw_squash_walls+0x7c>
    31a8:	00000000 	nop
    31ac:	afc0001c 	sw	zero,28(s8)
    31b0:	1000000d 	b	31e8 <draw_squash_walls+0x58>
    31b4:	00000000 	nop
    31b8:	240200ff 	li	v0,255
    31bc:	afa20010 	sw	v0,16(sp)
    31c0:	240700b4 	li	a3,180
    31c4:	00003025 	move	a2,zero
    31c8:	8fc5001c 	lw	a1,28(s8)
    31cc:	8fc40018 	lw	a0,24(s8)
    31d0:	0c0008d7 	jal	235c <lcd_set_vbuf_pixel>
    31d4:	00000000 	nop
    31d8:	8fc2001c 	lw	v0,28(s8)
    31dc:	00000000 	nop
    31e0:	24420001 	addiu	v0,v0,1
    31e4:	afc2001c 	sw	v0,28(s8)
    31e8:	8fc2001c 	lw	v0,28(s8)
    31ec:	00000000 	nop
    31f0:	28420060 	slti	v0,v0,96
    31f4:	1440fff0 	bnez	v0,31b8 <draw_squash_walls+0x28>
    31f8:	00000000 	nop
    31fc:	8fc20018 	lw	v0,24(s8)
    3200:	00000000 	nop
    3204:	24420001 	addiu	v0,v0,1
    3208:	afc20018 	sw	v0,24(s8)
    320c:	8fc20018 	lw	v0,24(s8)
    3210:	00000000 	nop
    3214:	28420004 	slti	v0,v0,4
    3218:	1440ffe4 	bnez	v0,31ac <draw_squash_walls+0x1c>
    321c:	00000000 	nop
    3220:	24020034 	li	v0,52
    3224:	afc20020 	sw	v0,32(s8)
    3228:	10000019 	b	3290 <draw_squash_walls+0x100>
    322c:	00000000 	nop
    3230:	afc00024 	sw	zero,36(s8)
    3234:	1000000d 	b	326c <draw_squash_walls+0xdc>
    3238:	00000000 	nop
    323c:	240200ff 	li	v0,255
    3240:	afa20010 	sw	v0,16(sp)
    3244:	240700b4 	li	a3,180
    3248:	00003025 	move	a2,zero
    324c:	8fc50024 	lw	a1,36(s8)
    3250:	8fc40020 	lw	a0,32(s8)
    3254:	0c0008d7 	jal	235c <lcd_set_vbuf_pixel>
    3258:	00000000 	nop
    325c:	8fc20024 	lw	v0,36(s8)
    3260:	00000000 	nop
    3264:	24420001 	addiu	v0,v0,1
    3268:	afc20024 	sw	v0,36(s8)
    326c:	8fc20024 	lw	v0,36(s8)
    3270:	00000000 	nop
    3274:	28420060 	slti	v0,v0,96
    3278:	1440fff0 	bnez	v0,323c <draw_squash_walls+0xac>
    327c:	00000000 	nop
    3280:	8fc20020 	lw	v0,32(s8)
    3284:	00000000 	nop
    3288:	24420001 	addiu	v0,v0,1
    328c:	afc20020 	sw	v0,32(s8)
    3290:	8fc20020 	lw	v0,32(s8)
    3294:	00000000 	nop
    3298:	28420038 	slti	v0,v0,56
    329c:	1440ffe4 	bnez	v0,3230 <draw_squash_walls+0xa0>
    32a0:	00000000 	nop
    32a4:	afc00028 	sw	zero,40(s8)
    32a8:	1000001a 	b	3314 <draw_squash_walls+0x184>
    32ac:	00000000 	nop
    32b0:	2402005c 	li	v0,92
    32b4:	afc2002c 	sw	v0,44(s8)
    32b8:	1000000d 	b	32f0 <draw_squash_walls+0x160>
    32bc:	00000000 	nop
    32c0:	240200ff 	li	v0,255
    32c4:	afa20010 	sw	v0,16(sp)
    32c8:	240700b4 	li	a3,180
    32cc:	00003025 	move	a2,zero
    32d0:	8fc5002c 	lw	a1,44(s8)
    32d4:	8fc40028 	lw	a0,40(s8)
    32d8:	0c0008d7 	jal	235c <lcd_set_vbuf_pixel>
    32dc:	00000000 	nop
    32e0:	8fc2002c 	lw	v0,44(s8)
    32e4:	00000000 	nop
    32e8:	24420001 	addiu	v0,v0,1
    32ec:	afc2002c 	sw	v0,44(s8)
    32f0:	8fc2002c 	lw	v0,44(s8)
    32f4:	00000000 	nop
    32f8:	28420060 	slti	v0,v0,96
    32fc:	1440fff0 	bnez	v0,32c0 <draw_squash_walls+0x130>
    3300:	00000000 	nop
    3304:	8fc20028 	lw	v0,40(s8)
    3308:	00000000 	nop
    330c:	24420001 	addiu	v0,v0,1
    3310:	afc20028 	sw	v0,40(s8)
    3314:	8fc20028 	lw	v0,40(s8)
    3318:	00000000 	nop
    331c:	28420038 	slti	v0,v0,56
    3320:	1440ffe3 	bnez	v0,32b0 <draw_squash_walls+0x120>
    3324:	00000000 	nop
    3328:	00000000 	nop
    332c:	03c0e825 	move	sp,s8
    3330:	8fbf0034 	lw	ra,52(sp)
    3334:	8fbe0030 	lw	s8,48(sp)
    3338:	27bd0038 	addiu	sp,sp,56
    333c:	03e00008 	jr	ra
    3340:	00000000 	nop

00003344 <draw_squash_racket>:
    3344:	27bdffc8 	addiu	sp,sp,-56
    3348:	afbf0034 	sw	ra,52(sp)
    334c:	afbe0030 	sw	s8,48(sp)
    3350:	03a0f025 	move	s8,sp
    3354:	afc40038 	sw	a0,56(s8)
    3358:	afc5003c 	sw	a1,60(s8)
    335c:	afc60040 	sw	a2,64(s8)
    3360:	afc70044 	sw	a3,68(s8)
    3364:	afc00018 	sw	zero,24(s8)
    3368:	10000054 	b	34bc <draw_squash_racket+0x178>
    336c:	00000000 	nop
    3370:	afc0001c 	sw	zero,28(s8)
    3374:	10000048 	b	3498 <draw_squash_racket+0x154>
    3378:	00000000 	nop
    337c:	8fc3003c 	lw	v1,60(s8)
    3380:	8fc20018 	lw	v0,24(s8)
    3384:	00000000 	nop
    3388:	00621021 	addu	v0,v1,v0
    338c:	afc20020 	sw	v0,32(s8)
    3390:	8fc30038 	lw	v1,56(s8)
    3394:	8fc2001c 	lw	v0,28(s8)
    3398:	00000000 	nop
    339c:	00621021 	addu	v0,v1,v0
    33a0:	afc20024 	sw	v0,36(s8)
    33a4:	8fc20024 	lw	v0,36(s8)
    33a8:	00000000 	nop
    33ac:	04400036 	bltz	v0,3488 <draw_squash_racket+0x144>
    33b0:	00000000 	nop
    33b4:	8fc20024 	lw	v0,36(s8)
    33b8:	00000000 	nop
    33bc:	28420060 	slti	v0,v0,96
    33c0:	10400031 	beqz	v0,3488 <draw_squash_racket+0x144>
    33c4:	00000000 	nop
    33c8:	8fc20020 	lw	v0,32(s8)
    33cc:	00000000 	nop
    33d0:	0440002d 	bltz	v0,3488 <draw_squash_racket+0x144>
    33d4:	00000000 	nop
    33d8:	8fc20020 	lw	v0,32(s8)
    33dc:	00000000 	nop
    33e0:	28420038 	slti	v0,v0,56
    33e4:	10400028 	beqz	v0,3488 <draw_squash_racket+0x144>
    33e8:	00000000 	nop
    33ec:	3c020000 	lui	v0,0x0
    33f0:	8fc30018 	lw	v1,24(s8)
    33f4:	00000000 	nop
    33f8:	000318c0 	sll	v1,v1,0x3
    33fc:	24424920 	addiu	v0,v0,18720
    3400:	00621821 	addu	v1,v1,v0
    3404:	8fc2001c 	lw	v0,28(s8)
    3408:	00000000 	nop
    340c:	00621021 	addu	v0,v1,v0
    3410:	90420000 	lbu	v0,0(v0)
    3414:	00000000 	nop
    3418:	afc20028 	sw	v0,40(s8)
    341c:	8fc30028 	lw	v1,40(s8)
    3420:	24020001 	li	v0,1
    3424:	1462000c 	bne	v1,v0,3458 <draw_squash_racket+0x114>
    3428:	00000000 	nop
    342c:	8fc20048 	lw	v0,72(s8)
    3430:	00000000 	nop
    3434:	afa20010 	sw	v0,16(sp)
    3438:	8fc70044 	lw	a3,68(s8)
    343c:	8fc60040 	lw	a2,64(s8)
    3440:	8fc50024 	lw	a1,36(s8)
    3444:	8fc40020 	lw	a0,32(s8)
    3448:	0c0008d7 	jal	235c <lcd_set_vbuf_pixel>
    344c:	00000000 	nop
    3450:	1000000d 	b	3488 <draw_squash_racket+0x144>
    3454:	00000000 	nop
    3458:	8fc30028 	lw	v1,40(s8)
    345c:	24020002 	li	v0,2
    3460:	14620009 	bne	v1,v0,3488 <draw_squash_racket+0x144>
    3464:	00000000 	nop
    3468:	24020064 	li	v0,100
    346c:	afa20010 	sw	v0,16(sp)
    3470:	24070064 	li	a3,100
    3474:	24060064 	li	a2,100
    3478:	8fc50024 	lw	a1,36(s8)
    347c:	8fc40020 	lw	a0,32(s8)
    3480:	0c0008d7 	jal	235c <lcd_set_vbuf_pixel>
    3484:	00000000 	nop
    3488:	8fc2001c 	lw	v0,28(s8)
    348c:	00000000 	nop
    3490:	24420001 	addiu	v0,v0,1
    3494:	afc2001c 	sw	v0,28(s8)
    3498:	8fc2001c 	lw	v0,28(s8)
    349c:	00000000 	nop
    34a0:	28420008 	slti	v0,v0,8
    34a4:	1440ffb5 	bnez	v0,337c <draw_squash_racket+0x38>
    34a8:	00000000 	nop
    34ac:	8fc20018 	lw	v0,24(s8)
    34b0:	00000000 	nop
    34b4:	24420001 	addiu	v0,v0,1
    34b8:	afc20018 	sw	v0,24(s8)
    34bc:	8fc20018 	lw	v0,24(s8)
    34c0:	00000000 	nop
    34c4:	2842000c 	slti	v0,v0,12
    34c8:	1440ffa9 	bnez	v0,3370 <draw_squash_racket+0x2c>
    34cc:	00000000 	nop
    34d0:	00000000 	nop
    34d4:	03c0e825 	move	sp,s8
    34d8:	8fbf0034 	lw	ra,52(sp)
    34dc:	8fbe0030 	lw	s8,48(sp)
    34e0:	27bd0038 	addiu	sp,sp,56
    34e4:	03e00008 	jr	ra
    34e8:	00000000 	nop

000034ec <draw_squash_ball>:
    34ec:	27bdffd0 	addiu	sp,sp,-48
    34f0:	afbf002c 	sw	ra,44(sp)
    34f4:	afbe0028 	sw	s8,40(sp)
    34f8:	03a0f025 	move	s8,sp
    34fc:	afc40030 	sw	a0,48(s8)
    3500:	afc50034 	sw	a1,52(s8)
    3504:	afc00018 	sw	zero,24(s8)
    3508:	10000035 	b	35e0 <draw_squash_ball+0xf4>
    350c:	00000000 	nop
    3510:	afc0001c 	sw	zero,28(s8)
    3514:	10000029 	b	35bc <draw_squash_ball+0xd0>
    3518:	00000000 	nop
    351c:	8fc30030 	lw	v1,48(s8)
    3520:	8fc2001c 	lw	v0,28(s8)
    3524:	00000000 	nop
    3528:	00621021 	addu	v0,v1,v0
    352c:	afc20020 	sw	v0,32(s8)
    3530:	8fc30034 	lw	v1,52(s8)
    3534:	8fc20018 	lw	v0,24(s8)
    3538:	00000000 	nop
    353c:	00621021 	addu	v0,v1,v0
    3540:	afc20024 	sw	v0,36(s8)
    3544:	8fc20020 	lw	v0,32(s8)
    3548:	00000000 	nop
    354c:	04400017 	bltz	v0,35ac <draw_squash_ball+0xc0>
    3550:	00000000 	nop
    3554:	8fc20020 	lw	v0,32(s8)
    3558:	00000000 	nop
    355c:	28420060 	slti	v0,v0,96
    3560:	10400012 	beqz	v0,35ac <draw_squash_ball+0xc0>
    3564:	00000000 	nop
    3568:	8fc20024 	lw	v0,36(s8)
    356c:	00000000 	nop
    3570:	0440000e 	bltz	v0,35ac <draw_squash_ball+0xc0>
    3574:	00000000 	nop
    3578:	8fc20024 	lw	v0,36(s8)
    357c:	00000000 	nop
    3580:	28420038 	slti	v0,v0,56
    3584:	10400009 	beqz	v0,35ac <draw_squash_ball+0xc0>
    3588:	00000000 	nop
    358c:	240200ff 	li	v0,255
    3590:	afa20010 	sw	v0,16(sp)
    3594:	240700ff 	li	a3,255
    3598:	240600ff 	li	a2,255
    359c:	8fc50020 	lw	a1,32(s8)
    35a0:	8fc40024 	lw	a0,36(s8)
    35a4:	0c0008d7 	jal	235c <lcd_set_vbuf_pixel>
    35a8:	00000000 	nop
    35ac:	8fc2001c 	lw	v0,28(s8)
    35b0:	00000000 	nop
    35b4:	24420001 	addiu	v0,v0,1
    35b8:	afc2001c 	sw	v0,28(s8)
    35bc:	8fc2001c 	lw	v0,28(s8)
    35c0:	00000000 	nop
    35c4:	28420004 	slti	v0,v0,4
    35c8:	1440ffd4 	bnez	v0,351c <draw_squash_ball+0x30>
    35cc:	00000000 	nop
    35d0:	8fc20018 	lw	v0,24(s8)
    35d4:	00000000 	nop
    35d8:	24420001 	addiu	v0,v0,1
    35dc:	afc20018 	sw	v0,24(s8)
    35e0:	8fc20018 	lw	v0,24(s8)
    35e4:	00000000 	nop
    35e8:	28420004 	slti	v0,v0,4
    35ec:	1440ffc8 	bnez	v0,3510 <draw_squash_ball+0x24>
    35f0:	00000000 	nop
    35f4:	00000000 	nop
    35f8:	03c0e825 	move	sp,s8
    35fc:	8fbf002c 	lw	ra,44(sp)
    3600:	8fbe0028 	lw	s8,40(sp)
    3604:	27bd0030 	addiu	sp,sp,48
    3608:	03e00008 	jr	ra
    360c:	00000000 	nop

00003610 <draw_squash_score>:
    3610:	27bdffe0 	addiu	sp,sp,-32
    3614:	afbf001c 	sw	ra,28(sp)
    3618:	afbe0018 	sw	s8,24(sp)
    361c:	03a0f025 	move	s8,sp
    3620:	afc40020 	sw	a0,32(s8)
    3624:	afa00014 	sw	zero,20(sp)
    3628:	240200ff 	li	v0,255
    362c:	afa20010 	sw	v0,16(sp)
    3630:	00003825 	move	a3,zero
    3634:	24060053 	li	a2,83
    3638:	00002825 	move	a1,zero
    363c:	24040007 	li	a0,7
    3640:	0c0009fb 	jal	27ec <lcd_putc_color>
    3644:	00000000 	nop
    3648:	afa00014 	sw	zero,20(sp)
    364c:	240200ff 	li	v0,255
    3650:	afa20010 	sw	v0,16(sp)
    3654:	00003825 	move	a3,zero
    3658:	2406003a 	li	a2,58
    365c:	24050001 	li	a1,1
    3660:	24040007 	li	a0,7
    3664:	0c0009fb 	jal	27ec <lcd_putc_color>
    3668:	00000000 	nop
    366c:	8fc30020 	lw	v1,32(s8)
    3670:	24020064 	li	v0,100
    3674:	0062001a 	div	zero,v1,v0
    3678:	14400002 	bnez	v0,3684 <draw_squash_score+0x74>
    367c:	00000000 	nop
    3680:	0007000d 	break	0x7
    3684:	00001010 	mfhi	v0
    3688:	00001812 	mflo	v1
    368c:	2402000a 	li	v0,10
    3690:	00000000 	nop
    3694:	0062001a 	div	zero,v1,v0
    3698:	14400002 	bnez	v0,36a4 <draw_squash_score+0x94>
    369c:	00000000 	nop
    36a0:	0007000d 	break	0x7
    36a4:	00001010 	mfhi	v0
    36a8:	24430030 	addiu	v1,v0,48
    36ac:	afa00014 	sw	zero,20(sp)
    36b0:	240200ff 	li	v0,255
    36b4:	afa20010 	sw	v0,16(sp)
    36b8:	00003825 	move	a3,zero
    36bc:	00603025 	move	a2,v1
    36c0:	24050002 	li	a1,2
    36c4:	24040007 	li	a0,7
    36c8:	0c0009fb 	jal	27ec <lcd_putc_color>
    36cc:	00000000 	nop
    36d0:	8fc30020 	lw	v1,32(s8)
    36d4:	2402000a 	li	v0,10
    36d8:	0062001a 	div	zero,v1,v0
    36dc:	14400002 	bnez	v0,36e8 <draw_squash_score+0xd8>
    36e0:	00000000 	nop
    36e4:	0007000d 	break	0x7
    36e8:	00001010 	mfhi	v0
    36ec:	00001812 	mflo	v1
    36f0:	2402000a 	li	v0,10
    36f4:	00000000 	nop
    36f8:	0062001a 	div	zero,v1,v0
    36fc:	14400002 	bnez	v0,3708 <draw_squash_score+0xf8>
    3700:	00000000 	nop
    3704:	0007000d 	break	0x7
    3708:	00001010 	mfhi	v0
    370c:	24430030 	addiu	v1,v0,48
    3710:	afa00014 	sw	zero,20(sp)
    3714:	240200ff 	li	v0,255
    3718:	afa20010 	sw	v0,16(sp)
    371c:	00003825 	move	a3,zero
    3720:	00603025 	move	a2,v1
    3724:	24050003 	li	a1,3
    3728:	24040007 	li	a0,7
    372c:	0c0009fb 	jal	27ec <lcd_putc_color>
    3730:	00000000 	nop
    3734:	8fc30020 	lw	v1,32(s8)
    3738:	2402000a 	li	v0,10
    373c:	0062001a 	div	zero,v1,v0
    3740:	14400002 	bnez	v0,374c <draw_squash_score+0x13c>
    3744:	00000000 	nop
    3748:	0007000d 	break	0x7
    374c:	00001010 	mfhi	v0
    3750:	24430030 	addiu	v1,v0,48
    3754:	afa00014 	sw	zero,20(sp)
    3758:	240200ff 	li	v0,255
    375c:	afa20010 	sw	v0,16(sp)
    3760:	00003825 	move	a3,zero
    3764:	00603025 	move	a2,v1
    3768:	24050004 	li	a1,4
    376c:	24040007 	li	a0,7
    3770:	0c0009fb 	jal	27ec <lcd_putc_color>
    3774:	00000000 	nop
    3778:	00000000 	nop
    377c:	03c0e825 	move	sp,s8
    3780:	8fbf001c 	lw	ra,28(sp)
    3784:	8fbe0018 	lw	s8,24(sp)
    3788:	27bd0020 	addiu	sp,sp,32
    378c:	03e00008 	jr	ra
    3790:	00000000 	nop

00003794 <draw_lives>:
    3794:	27bdffd8 	addiu	sp,sp,-40
    3798:	afbf0024 	sw	ra,36(sp)
    379c:	afbe0020 	sw	s8,32(sp)
    37a0:	03a0f025 	move	s8,sp
    37a4:	afc40028 	sw	a0,40(s8)
    37a8:	afa00014 	sw	zero,20(sp)
    37ac:	afa00010 	sw	zero,16(sp)
    37b0:	240700ff 	li	a3,255
    37b4:	2406004c 	li	a2,76
    37b8:	24050006 	li	a1,6
    37bc:	24040007 	li	a0,7
    37c0:	0c0009fb 	jal	27ec <lcd_putc_color>
    37c4:	00000000 	nop
    37c8:	afa00014 	sw	zero,20(sp)
    37cc:	afa00010 	sw	zero,16(sp)
    37d0:	240700ff 	li	a3,255
    37d4:	2406003a 	li	a2,58
    37d8:	24050007 	li	a1,7
    37dc:	24040007 	li	a0,7
    37e0:	0c0009fb 	jal	27ec <lcd_putc_color>
    37e4:	00000000 	nop
    37e8:	afc00018 	sw	zero,24(s8)
    37ec:	10000025 	b	3884 <draw_lives+0xf0>
    37f0:	00000000 	nop
    37f4:	8fc30018 	lw	v1,24(s8)
    37f8:	8fc20028 	lw	v0,40(s8)
    37fc:	00000000 	nop
    3800:	0062102a 	slt	v0,v1,v0
    3804:	1040000e 	beqz	v0,3840 <draw_lives+0xac>
    3808:	00000000 	nop
    380c:	8fc20018 	lw	v0,24(s8)
    3810:	00000000 	nop
    3814:	24420008 	addiu	v0,v0,8
    3818:	afa00014 	sw	zero,20(sp)
    381c:	afa00010 	sw	zero,16(sp)
    3820:	240700ff 	li	a3,255
    3824:	2406002a 	li	a2,42
    3828:	00402825 	move	a1,v0
    382c:	24040007 	li	a0,7
    3830:	0c0009fb 	jal	27ec <lcd_putc_color>
    3834:	00000000 	nop
    3838:	1000000e 	b	3874 <draw_lives+0xe0>
    383c:	00000000 	nop
    3840:	8fc20018 	lw	v0,24(s8)
    3844:	00000000 	nop
    3848:	24430008 	addiu	v1,v0,8
    384c:	24020064 	li	v0,100
    3850:	afa20014 	sw	v0,20(sp)
    3854:	24020064 	li	v0,100
    3858:	afa20010 	sw	v0,16(sp)
    385c:	24070064 	li	a3,100
    3860:	2406002d 	li	a2,45
    3864:	00602825 	move	a1,v1
    3868:	24040007 	li	a0,7
    386c:	0c0009fb 	jal	27ec <lcd_putc_color>
    3870:	00000000 	nop
    3874:	8fc20018 	lw	v0,24(s8)
    3878:	00000000 	nop
    387c:	24420001 	addiu	v0,v0,1
    3880:	afc20018 	sw	v0,24(s8)
    3884:	8fc20018 	lw	v0,24(s8)
    3888:	00000000 	nop
    388c:	28420003 	slti	v0,v0,3
    3890:	1440ffd8 	bnez	v0,37f4 <draw_lives+0x60>
    3894:	00000000 	nop
    3898:	00000000 	nop
    389c:	03c0e825 	move	sp,s8
    38a0:	8fbf0024 	lw	ra,36(sp)
    38a4:	8fbe0020 	lw	s8,32(sp)
    38a8:	27bd0028 	addiu	sp,sp,40
    38ac:	03e00008 	jr	ra
    38b0:	00000000 	nop

000038b4 <draw_turn_indicator>:
    38b4:	27bdffd8 	addiu	sp,sp,-40
    38b8:	afbf0024 	sw	ra,36(sp)
    38bc:	afbe0020 	sw	s8,32(sp)
    38c0:	03a0f025 	move	s8,sp
    38c4:	afc40028 	sw	a0,40(s8)
    38c8:	afc5002c 	sw	a1,44(s8)
    38cc:	8fc3002c 	lw	v1,44(s8)
    38d0:	24020003 	li	v0,3
    38d4:	0062001a 	div	zero,v1,v0
    38d8:	14400002 	bnez	v0,38e4 <draw_turn_indicator+0x30>
    38dc:	00000000 	nop
    38e0:	0007000d 	break	0x7
    38e4:	00001010 	mfhi	v0
    38e8:	00001812 	mflo	v1
    38ec:	3c028000 	lui	v0,0x8000
    38f0:	34420001 	ori	v0,v0,0x1
    38f4:	00621024 	and	v0,v1,v0
    38f8:	04410005 	bgez	v0,3910 <draw_turn_indicator+0x5c>
    38fc:	00000000 	nop
    3900:	2442ffff 	addiu	v0,v0,-1
    3904:	2403fffe 	li	v1,-2
    3908:	00431025 	or	v0,v0,v1
    390c:	24420001 	addiu	v0,v0,1
    3910:	afc20018 	sw	v0,24(s8)
    3914:	8fc20028 	lw	v0,40(s8)
    3918:	00000000 	nop
    391c:	14400027 	bnez	v0,39bc <draw_turn_indicator+0x108>
    3920:	00000000 	nop
    3924:	8fc20018 	lw	v0,24(s8)
    3928:	00000000 	nop
    392c:	1040000d 	beqz	v0,3964 <draw_turn_indicator+0xb0>
    3930:	00000000 	nop
    3934:	afa00014 	sw	zero,20(sp)
    3938:	240200ff 	li	v0,255
    393c:	afa20010 	sw	v0,16(sp)
    3940:	00003825 	move	a3,zero
    3944:	3c020000 	lui	v0,0x0
    3948:	24464ae4 	addiu	a2,v0,19172
    394c:	00002825 	move	a1,zero
    3950:	00002025 	move	a0,zero
    3954:	0c000a49 	jal	2924 <lcd_puts_color>
    3958:	00000000 	nop
    395c:	1000000b 	b	398c <draw_turn_indicator+0xd8>
    3960:	00000000 	nop
    3964:	afa00014 	sw	zero,20(sp)
    3968:	240200ff 	li	v0,255
    396c:	afa20010 	sw	v0,16(sp)
    3970:	240700ff 	li	a3,255
    3974:	3c020000 	lui	v0,0x0
    3978:	24464ae4 	addiu	a2,v0,19172
    397c:	00002825 	move	a1,zero
    3980:	00002025 	move	a0,zero
    3984:	0c000a49 	jal	2924 <lcd_puts_color>
    3988:	00000000 	nop
    398c:	afa00014 	sw	zero,20(sp)
    3990:	240200ff 	li	v0,255
    3994:	afa20010 	sw	v0,16(sp)
    3998:	240700ff 	li	a3,255
    399c:	3c020000 	lui	v0,0x0
    39a0:	24464ae8 	addiu	a2,v0,19176
    39a4:	24050002 	li	a1,2
    39a8:	00002025 	move	a0,zero
    39ac:	0c000a49 	jal	2924 <lcd_puts_color>
    39b0:	00000000 	nop
    39b4:	10000025 	b	3a4c <draw_turn_indicator+0x198>
    39b8:	00000000 	nop
    39bc:	8fc20018 	lw	v0,24(s8)
    39c0:	00000000 	nop
    39c4:	1040000d 	beqz	v0,39fc <draw_turn_indicator+0x148>
    39c8:	00000000 	nop
    39cc:	afa00014 	sw	zero,20(sp)
    39d0:	24020080 	li	v0,128
    39d4:	afa20010 	sw	v0,16(sp)
    39d8:	240700ff 	li	a3,255
    39dc:	3c020000 	lui	v0,0x0
    39e0:	24464aec 	addiu	a2,v0,19180
    39e4:	00002825 	move	a1,zero
    39e8:	00002025 	move	a0,zero
    39ec:	0c000a49 	jal	2924 <lcd_puts_color>
    39f0:	00000000 	nop
    39f4:	1000000b 	b	3a24 <draw_turn_indicator+0x170>
    39f8:	00000000 	nop
    39fc:	afa00014 	sw	zero,20(sp)
    3a00:	240200ff 	li	v0,255
    3a04:	afa20010 	sw	v0,16(sp)
    3a08:	240700ff 	li	a3,255
    3a0c:	3c020000 	lui	v0,0x0
    3a10:	24464aec 	addiu	a2,v0,19180
    3a14:	00002825 	move	a1,zero
    3a18:	00002025 	move	a0,zero
    3a1c:	0c000a49 	jal	2924 <lcd_puts_color>
    3a20:	00000000 	nop
    3a24:	afa00014 	sw	zero,20(sp)
    3a28:	240200ff 	li	v0,255
    3a2c:	afa20010 	sw	v0,16(sp)
    3a30:	240700ff 	li	a3,255
    3a34:	3c020000 	lui	v0,0x0
    3a38:	24464ae8 	addiu	a2,v0,19176
    3a3c:	24050002 	li	a1,2
    3a40:	00002025 	move	a0,zero
    3a44:	0c000a49 	jal	2924 <lcd_puts_color>
    3a48:	00000000 	nop
    3a4c:	00000000 	nop
    3a50:	03c0e825 	move	sp,s8
    3a54:	8fbf0024 	lw	ra,36(sp)
    3a58:	8fbe0020 	lw	s8,32(sp)
    3a5c:	27bd0028 	addiu	sp,sp,40
    3a60:	03e00008 	jr	ra
    3a64:	00000000 	nop

00003a68 <draw_squash_game>:
    3a68:	27bdffe0 	addiu	sp,sp,-32
    3a6c:	afbf001c 	sw	ra,28(sp)
    3a70:	afbe0018 	sw	s8,24(sp)
    3a74:	03a0f025 	move	s8,sp
    3a78:	0c000912 	jal	2448 <lcd_clear_vbuf>
    3a7c:	00000000 	nop
    3a80:	0c000c39 	jal	30e4 <draw_squash_background>
    3a84:	00000000 	nop
    3a88:	0c000c64 	jal	3190 <draw_squash_walls>
    3a8c:	00000000 	nop
    3a90:	3c020000 	lui	v0,0x0
    3a94:	8c424b78 	lw	v0,19320(v0)
    3a98:	00000000 	nop
    3a9c:	1440001e 	bnez	v0,3b18 <draw_squash_game+0xb0>
    3aa0:	00000000 	nop
    3aa4:	3c020000 	lui	v0,0x0
    3aa8:	8c434b20 	lw	v1,19232(v0)
    3aac:	3c020000 	lui	v0,0x0
    3ab0:	8c424b24 	lw	v0,19236(v0)
    3ab4:	afa00010 	sw	zero,16(sp)
    3ab8:	240700ff 	li	a3,255
    3abc:	00003025 	move	a2,zero
    3ac0:	00402825 	move	a1,v0
    3ac4:	00602025 	move	a0,v1
    3ac8:	0c000cd1 	jal	3344 <draw_squash_racket>
    3acc:	00000000 	nop
    3ad0:	3c020000 	lui	v0,0x0
    3ad4:	8c434b48 	lw	v1,19272(v0)
    3ad8:	24020002 	li	v0,2
    3adc:	14620029 	bne	v1,v0,3b84 <draw_squash_game+0x11c>
    3ae0:	00000000 	nop
    3ae4:	3c020000 	lui	v0,0x0
    3ae8:	8c434b28 	lw	v1,19240(v0)
    3aec:	3c020000 	lui	v0,0x0
    3af0:	8c424b2c 	lw	v0,19244(v0)
    3af4:	afa00010 	sw	zero,16(sp)
    3af8:	24070040 	li	a3,64
    3afc:	24060080 	li	a2,128
    3b00:	00402825 	move	a1,v0
    3b04:	00602025 	move	a0,v1
    3b08:	0c000cd1 	jal	3344 <draw_squash_racket>
    3b0c:	00000000 	nop
    3b10:	1000001c 	b	3b84 <draw_squash_game+0x11c>
    3b14:	00000000 	nop
    3b18:	3c020000 	lui	v0,0x0
    3b1c:	8c434b20 	lw	v1,19232(v0)
    3b20:	3c020000 	lui	v0,0x0
    3b24:	8c424b24 	lw	v0,19236(v0)
    3b28:	afa00010 	sw	zero,16(sp)
    3b2c:	24070080 	li	a3,128
    3b30:	00003025 	move	a2,zero
    3b34:	00402825 	move	a1,v0
    3b38:	00602025 	move	a0,v1
    3b3c:	0c000cd1 	jal	3344 <draw_squash_racket>
    3b40:	00000000 	nop
    3b44:	3c020000 	lui	v0,0x0
    3b48:	8c434b48 	lw	v1,19272(v0)
    3b4c:	24020002 	li	v0,2
    3b50:	1462000c 	bne	v1,v0,3b84 <draw_squash_game+0x11c>
    3b54:	00000000 	nop
    3b58:	3c020000 	lui	v0,0x0
    3b5c:	8c434b28 	lw	v1,19240(v0)
    3b60:	3c020000 	lui	v0,0x0
    3b64:	8c424b2c 	lw	v0,19244(v0)
    3b68:	afa00010 	sw	zero,16(sp)
    3b6c:	24070080 	li	a3,128
    3b70:	240600ff 	li	a2,255
    3b74:	00402825 	move	a1,v0
    3b78:	00602025 	move	a0,v1
    3b7c:	0c000cd1 	jal	3344 <draw_squash_racket>
    3b80:	00000000 	nop
    3b84:	3c020000 	lui	v0,0x0
    3b88:	8c434b30 	lw	v1,19248(v0)
    3b8c:	3c020000 	lui	v0,0x0
    3b90:	8c424b34 	lw	v0,19252(v0)
    3b94:	00000000 	nop
    3b98:	00402825 	move	a1,v0
    3b9c:	00602025 	move	a0,v1
    3ba0:	0c000d3b 	jal	34ec <draw_squash_ball>
    3ba4:	00000000 	nop
    3ba8:	3c020000 	lui	v0,0x0
    3bac:	8c434b48 	lw	v1,19272(v0)
    3bb0:	24020002 	li	v0,2
    3bb4:	1462000a 	bne	v1,v0,3be0 <draw_squash_game+0x178>
    3bb8:	00000000 	nop
    3bbc:	3c020000 	lui	v0,0x0
    3bc0:	8c434b78 	lw	v1,19320(v0)
    3bc4:	3c020000 	lui	v0,0x0
    3bc8:	8c424b50 	lw	v0,19280(v0)
    3bcc:	00000000 	nop
    3bd0:	00402825 	move	a1,v0
    3bd4:	00602025 	move	a0,v1
    3bd8:	0c000e2d 	jal	38b4 <draw_turn_indicator>
    3bdc:	00000000 	nop
    3be0:	3c020000 	lui	v0,0x0
    3be4:	8c424b74 	lw	v0,19316(v0)
    3be8:	00000000 	nop
    3bec:	00402025 	move	a0,v0
    3bf0:	0c000d84 	jal	3610 <draw_squash_score>
    3bf4:	00000000 	nop
    3bf8:	3c020000 	lui	v0,0x0
    3bfc:	8c424b40 	lw	v0,19264(v0)
    3c00:	00000000 	nop
    3c04:	00402025 	move	a0,v0
    3c08:	0c000de5 	jal	3794 <draw_lives>
    3c0c:	00000000 	nop
    3c10:	00000000 	nop
    3c14:	03c0e825 	move	sp,s8
    3c18:	8fbf001c 	lw	ra,28(sp)
    3c1c:	8fbe0018 	lw	s8,24(sp)
    3c20:	27bd0020 	addiu	sp,sp,32
    3c24:	03e00008 	jr	ra
    3c28:	00000000 	nop

00003c2c <squash_update>:
    3c2c:	27bdffe8 	addiu	sp,sp,-24
    3c30:	afbf0014 	sw	ra,20(sp)
    3c34:	afbe0010 	sw	s8,16(sp)
    3c38:	03a0f025 	move	s8,sp
    3c3c:	0c001039 	jal	40e4 <squash_move_players>
    3c40:	00000000 	nop
    3c44:	3c020000 	lui	v0,0x0
    3c48:	8c434b30 	lw	v1,19248(v0)
    3c4c:	3c020000 	lui	v0,0x0
    3c50:	8c424b38 	lw	v0,19256(v0)
    3c54:	00000000 	nop
    3c58:	00621821 	addu	v1,v1,v0
    3c5c:	3c020000 	lui	v0,0x0
    3c60:	ac434b30 	sw	v1,19248(v0)
    3c64:	3c020000 	lui	v0,0x0
    3c68:	8c434b34 	lw	v1,19252(v0)
    3c6c:	3c020000 	lui	v0,0x0
    3c70:	8c424b3c 	lw	v0,19260(v0)
    3c74:	00000000 	nop
    3c78:	00621821 	addu	v1,v1,v0
    3c7c:	3c020000 	lui	v0,0x0
    3c80:	ac434b34 	sw	v1,19252(v0)
    3c84:	3c020000 	lui	v0,0x0
    3c88:	8c424b34 	lw	v0,19252(v0)
    3c8c:	00000000 	nop
    3c90:	28420005 	slti	v0,v0,5
    3c94:	10400010 	beqz	v0,3cd8 <squash_update+0xac>
    3c98:	00000000 	nop
    3c9c:	3c020000 	lui	v0,0x0
    3ca0:	24030004 	li	v1,4
    3ca4:	ac434b34 	sw	v1,19252(v0)
    3ca8:	3c020000 	lui	v0,0x0
    3cac:	8c424b3c 	lw	v0,19260(v0)
    3cb0:	00000000 	nop
    3cb4:	00021823 	negu	v1,v0
    3cb8:	3c020000 	lui	v0,0x0
    3cbc:	ac434b3c 	sw	v1,19260(v0)
    3cc0:	24040008 	li	a0,8
    3cc4:	0c000838 	jal	20e0 <buzzer_play>
    3cc8:	00000000 	nop
    3ccc:	3c020000 	lui	v0,0x0
    3cd0:	24030002 	li	v1,2
    3cd4:	ac434b70 	sw	v1,19312(v0)
    3cd8:	3c020000 	lui	v0,0x0
    3cdc:	8c424b34 	lw	v0,19252(v0)
    3ce0:	00000000 	nop
    3ce4:	28420030 	slti	v0,v0,48
    3ce8:	14400010 	bnez	v0,3d2c <squash_update+0x100>
    3cec:	00000000 	nop
    3cf0:	3c020000 	lui	v0,0x0
    3cf4:	24030030 	li	v1,48
    3cf8:	ac434b34 	sw	v1,19252(v0)
    3cfc:	3c020000 	lui	v0,0x0
    3d00:	8c424b3c 	lw	v0,19260(v0)
    3d04:	00000000 	nop
    3d08:	00021823 	negu	v1,v0
    3d0c:	3c020000 	lui	v0,0x0
    3d10:	ac434b3c 	sw	v1,19260(v0)
    3d14:	24040008 	li	a0,8
    3d18:	0c000838 	jal	20e0 <buzzer_play>
    3d1c:	00000000 	nop
    3d20:	3c020000 	lui	v0,0x0
    3d24:	24030002 	li	v1,2
    3d28:	ac434b70 	sw	v1,19312(v0)
    3d2c:	3c020000 	lui	v0,0x0
    3d30:	8c424b30 	lw	v0,19248(v0)
    3d34:	00000000 	nop
    3d38:	28420058 	slti	v0,v0,88
    3d3c:	14400010 	bnez	v0,3d80 <squash_update+0x154>
    3d40:	00000000 	nop
    3d44:	3c020000 	lui	v0,0x0
    3d48:	24030058 	li	v1,88
    3d4c:	ac434b30 	sw	v1,19248(v0)
    3d50:	3c020000 	lui	v0,0x0
    3d54:	8c424b38 	lw	v0,19256(v0)
    3d58:	00000000 	nop
    3d5c:	00021823 	negu	v1,v0
    3d60:	3c020000 	lui	v0,0x0
    3d64:	ac434b38 	sw	v1,19256(v0)
    3d68:	24040008 	li	a0,8
    3d6c:	0c000838 	jal	20e0 <buzzer_play>
    3d70:	00000000 	nop
    3d74:	3c020000 	lui	v0,0x0
    3d78:	24030002 	li	v1,2
    3d7c:	ac434b70 	sw	v1,19312(v0)
    3d80:	3c020000 	lui	v0,0x0
    3d84:	8c424b38 	lw	v0,19256(v0)
    3d88:	00000000 	nop
    3d8c:	0441004f 	bgez	v0,3ecc <squash_update+0x2a0>
    3d90:	00000000 	nop
    3d94:	3c020000 	lui	v0,0x0
    3d98:	8c424b20 	lw	v0,19232(v0)
    3d9c:	00000000 	nop
    3da0:	24430008 	addiu	v1,v0,8
    3da4:	3c020000 	lui	v0,0x0
    3da8:	8c424b30 	lw	v0,19248(v0)
    3dac:	00000000 	nop
    3db0:	0062102a 	slt	v0,v1,v0
    3db4:	14400045 	bnez	v0,3ecc <squash_update+0x2a0>
    3db8:	00000000 	nop
    3dbc:	3c020000 	lui	v0,0x0
    3dc0:	8c424b30 	lw	v0,19248(v0)
    3dc4:	00000000 	nop
    3dc8:	24430004 	addiu	v1,v0,4
    3dcc:	3c020000 	lui	v0,0x0
    3dd0:	8c424b20 	lw	v0,19232(v0)
    3dd4:	00000000 	nop
    3dd8:	0062102a 	slt	v0,v1,v0
    3ddc:	1440003b 	bnez	v0,3ecc <squash_update+0x2a0>
    3de0:	00000000 	nop
    3de4:	3c020000 	lui	v0,0x0
    3de8:	8c424b34 	lw	v0,19252(v0)
    3dec:	00000000 	nop
    3df0:	24430004 	addiu	v1,v0,4
    3df4:	3c020000 	lui	v0,0x0
    3df8:	8c424b24 	lw	v0,19236(v0)
    3dfc:	00000000 	nop
    3e00:	0062102a 	slt	v0,v1,v0
    3e04:	14400031 	bnez	v0,3ecc <squash_update+0x2a0>
    3e08:	00000000 	nop
    3e0c:	3c020000 	lui	v0,0x0
    3e10:	8c424b24 	lw	v0,19236(v0)
    3e14:	00000000 	nop
    3e18:	2443000c 	addiu	v1,v0,12
    3e1c:	3c020000 	lui	v0,0x0
    3e20:	8c424b34 	lw	v0,19252(v0)
    3e24:	00000000 	nop
    3e28:	0062102a 	slt	v0,v1,v0
    3e2c:	14400027 	bnez	v0,3ecc <squash_update+0x2a0>
    3e30:	00000000 	nop
    3e34:	3c020000 	lui	v0,0x0
    3e38:	8c424b20 	lw	v0,19232(v0)
    3e3c:	00000000 	nop
    3e40:	24430008 	addiu	v1,v0,8
    3e44:	3c020000 	lui	v0,0x0
    3e48:	ac434b30 	sw	v1,19248(v0)
    3e4c:	3c020000 	lui	v0,0x0
    3e50:	8c424b38 	lw	v0,19256(v0)
    3e54:	00000000 	nop
    3e58:	00021823 	negu	v1,v0
    3e5c:	3c020000 	lui	v0,0x0
    3e60:	ac434b38 	sw	v1,19256(v0)
    3e64:	3c020000 	lui	v0,0x0
    3e68:	8c424b74 	lw	v0,19316(v0)
    3e6c:	00000000 	nop
    3e70:	24430001 	addiu	v1,v0,1
    3e74:	3c020000 	lui	v0,0x0
    3e78:	ac434b74 	sw	v1,19316(v0)
    3e7c:	3c020000 	lui	v0,0x0
    3e80:	8c424b7c 	lw	v0,19324(v0)
    3e84:	00000000 	nop
    3e88:	24430001 	addiu	v1,v0,1
    3e8c:	3c020000 	lui	v0,0x0
    3e90:	ac434b7c 	sw	v1,19324(v0)
    3e94:	3c020000 	lui	v0,0x0
    3e98:	8c434b48 	lw	v1,19272(v0)
    3e9c:	24020002 	li	v0,2
    3ea0:	14620004 	bne	v1,v0,3eb4 <squash_update+0x288>
    3ea4:	00000000 	nop
    3ea8:	3c020000 	lui	v0,0x0
    3eac:	24030001 	li	v1,1
    3eb0:	ac434b78 	sw	v1,19320(v0)
    3eb4:	24040008 	li	a0,8
    3eb8:	0c000838 	jal	20e0 <buzzer_play>
    3ebc:	00000000 	nop
    3ec0:	3c020000 	lui	v0,0x0
    3ec4:	24030002 	li	v1,2
    3ec8:	ac434b70 	sw	v1,19312(v0)
    3ecc:	3c020000 	lui	v0,0x0
    3ed0:	8c434b48 	lw	v1,19272(v0)
    3ed4:	24020002 	li	v0,2
    3ed8:	1462004e 	bne	v1,v0,4014 <squash_update+0x3e8>
    3edc:	00000000 	nop
    3ee0:	3c020000 	lui	v0,0x0
    3ee4:	8c424b38 	lw	v0,19256(v0)
    3ee8:	00000000 	nop
    3eec:	04410049 	bgez	v0,4014 <squash_update+0x3e8>
    3ef0:	00000000 	nop
    3ef4:	3c020000 	lui	v0,0x0
    3ef8:	8c424b28 	lw	v0,19240(v0)
    3efc:	00000000 	nop
    3f00:	24430008 	addiu	v1,v0,8
    3f04:	3c020000 	lui	v0,0x0
    3f08:	8c424b30 	lw	v0,19248(v0)
    3f0c:	00000000 	nop
    3f10:	0062102a 	slt	v0,v1,v0
    3f14:	1440003f 	bnez	v0,4014 <squash_update+0x3e8>
    3f18:	00000000 	nop
    3f1c:	3c020000 	lui	v0,0x0
    3f20:	8c424b30 	lw	v0,19248(v0)
    3f24:	00000000 	nop
    3f28:	24430004 	addiu	v1,v0,4
    3f2c:	3c020000 	lui	v0,0x0
    3f30:	8c424b28 	lw	v0,19240(v0)
    3f34:	00000000 	nop
    3f38:	0062102a 	slt	v0,v1,v0
    3f3c:	14400035 	bnez	v0,4014 <squash_update+0x3e8>
    3f40:	00000000 	nop
    3f44:	3c020000 	lui	v0,0x0
    3f48:	8c424b34 	lw	v0,19252(v0)
    3f4c:	00000000 	nop
    3f50:	24430004 	addiu	v1,v0,4
    3f54:	3c020000 	lui	v0,0x0
    3f58:	8c424b2c 	lw	v0,19244(v0)
    3f5c:	00000000 	nop
    3f60:	0062102a 	slt	v0,v1,v0
    3f64:	1440002b 	bnez	v0,4014 <squash_update+0x3e8>
    3f68:	00000000 	nop
    3f6c:	3c020000 	lui	v0,0x0
    3f70:	8c424b2c 	lw	v0,19244(v0)
    3f74:	00000000 	nop
    3f78:	2443000c 	addiu	v1,v0,12
    3f7c:	3c020000 	lui	v0,0x0
    3f80:	8c424b34 	lw	v0,19252(v0)
    3f84:	00000000 	nop
    3f88:	0062102a 	slt	v0,v1,v0
    3f8c:	14400021 	bnez	v0,4014 <squash_update+0x3e8>
    3f90:	00000000 	nop
    3f94:	3c020000 	lui	v0,0x0
    3f98:	8c424b28 	lw	v0,19240(v0)
    3f9c:	00000000 	nop
    3fa0:	24430008 	addiu	v1,v0,8
    3fa4:	3c020000 	lui	v0,0x0
    3fa8:	ac434b30 	sw	v1,19248(v0)
    3fac:	3c020000 	lui	v0,0x0
    3fb0:	8c424b38 	lw	v0,19256(v0)
    3fb4:	00000000 	nop
    3fb8:	00021823 	negu	v1,v0
    3fbc:	3c020000 	lui	v0,0x0
    3fc0:	ac434b38 	sw	v1,19256(v0)
    3fc4:	3c020000 	lui	v0,0x0
    3fc8:	8c424b74 	lw	v0,19316(v0)
    3fcc:	00000000 	nop
    3fd0:	24430001 	addiu	v1,v0,1
    3fd4:	3c020000 	lui	v0,0x0
    3fd8:	ac434b74 	sw	v1,19316(v0)
    3fdc:	3c020000 	lui	v0,0x0
    3fe0:	8c424b7c 	lw	v0,19324(v0)
    3fe4:	00000000 	nop
    3fe8:	24430001 	addiu	v1,v0,1
    3fec:	3c020000 	lui	v0,0x0
    3ff0:	ac434b7c 	sw	v1,19324(v0)
    3ff4:	3c020000 	lui	v0,0x0
    3ff8:	ac404b78 	sw	zero,19320(v0)
    3ffc:	24040008 	li	a0,8
    4000:	0c000838 	jal	20e0 <buzzer_play>
    4004:	00000000 	nop
    4008:	3c020000 	lui	v0,0x0
    400c:	24030002 	li	v1,2
    4010:	ac434b70 	sw	v1,19312(v0)
    4014:	3c020000 	lui	v0,0x0
    4018:	8c424b30 	lw	v0,19248(v0)
    401c:	00000000 	nop
    4020:	04410027 	bgez	v0,40c0 <squash_update+0x494>
    4024:	00000000 	nop
    4028:	3c020000 	lui	v0,0x0
    402c:	8c424b40 	lw	v0,19264(v0)
    4030:	00000000 	nop
    4034:	2443ffff 	addiu	v1,v0,-1
    4038:	3c020000 	lui	v0,0x0
    403c:	ac434b40 	sw	v1,19264(v0)
    4040:	3c020000 	lui	v0,0x0
    4044:	8c424b40 	lw	v0,19264(v0)
    4048:	00000000 	nop
    404c:	1c400006 	bgtz	v0,4068 <squash_update+0x43c>
    4050:	00000000 	nop
    4054:	3c020000 	lui	v0,0x0
    4058:	24030004 	li	v1,4
    405c:	ac434b44 	sw	v1,19268(v0)
    4060:	10000011 	b	40a8 <squash_update+0x47c>
    4064:	00000000 	nop
    4068:	3c020000 	lui	v0,0x0
    406c:	24030014 	li	v1,20
    4070:	ac434b30 	sw	v1,19248(v0)
    4074:	3c020000 	lui	v0,0x0
    4078:	2403001a 	li	v1,26
    407c:	ac434b34 	sw	v1,19252(v0)
    4080:	3c020000 	lui	v0,0x0
    4084:	24030003 	li	v1,3
    4088:	ac434b38 	sw	v1,19256(v0)
    408c:	3c020000 	lui	v0,0x0
    4090:	24030002 	li	v1,2
    4094:	ac434b3c 	sw	v1,19260(v0)
    4098:	3c020000 	lui	v0,0x0
    409c:	ac404b7c 	sw	zero,19324(v0)
    40a0:	3c020000 	lui	v0,0x0
    40a4:	ac404b78 	sw	zero,19320(v0)
    40a8:	2404000d 	li	a0,13
    40ac:	0c000838 	jal	20e0 <buzzer_play>
    40b0:	00000000 	nop
    40b4:	3c020000 	lui	v0,0x0
    40b8:	24030005 	li	v1,5
    40bc:	ac434b70 	sw	v1,19312(v0)
    40c0:	0c000e9a 	jal	3a68 <draw_squash_game>
    40c4:	00000000 	nop
    40c8:	00000000 	nop
    40cc:	03c0e825 	move	sp,s8
    40d0:	8fbf0014 	lw	ra,20(sp)
    40d4:	8fbe0010 	lw	s8,16(sp)
    40d8:	27bd0018 	addiu	sp,sp,24
    40dc:	03e00008 	jr	ra
    40e0:	00000000 	nop

000040e4 <squash_move_players>:
    40e4:	27bdfff0 	addiu	sp,sp,-16
    40e8:	afbe000c 	sw	s8,12(sp)
    40ec:	03a0f025 	move	s8,sp
    40f0:	24020006 	li	v0,6
    40f4:	afc20000 	sw	v0,0(s8)
    40f8:	3c020000 	lui	v0,0x0
    40fc:	8c434b18 	lw	v1,19224(v0)
    4100:	24020001 	li	v0,1
    4104:	1462000e 	bne	v1,v0,4140 <squash_move_players+0x5c>
    4108:	00000000 	nop
    410c:	3c020000 	lui	v0,0x0
    4110:	8c424b24 	lw	v0,19236(v0)
    4114:	00000000 	nop
    4118:	28420005 	slti	v0,v0,5
    411c:	14400008 	bnez	v0,4140 <squash_move_players+0x5c>
    4120:	00000000 	nop
    4124:	3c020000 	lui	v0,0x0
    4128:	8c434b24 	lw	v1,19236(v0)
    412c:	8fc20000 	lw	v0,0(s8)
    4130:	00000000 	nop
    4134:	00621823 	subu	v1,v1,v0
    4138:	3c020000 	lui	v0,0x0
    413c:	ac434b24 	sw	v1,19236(v0)
    4140:	3c020000 	lui	v0,0x0
    4144:	8c434b18 	lw	v1,19224(v0)
    4148:	24020007 	li	v0,7
    414c:	1462000e 	bne	v1,v0,4188 <squash_move_players+0xa4>
    4150:	00000000 	nop
    4154:	3c020000 	lui	v0,0x0
    4158:	8c424b24 	lw	v0,19236(v0)
    415c:	00000000 	nop
    4160:	28420028 	slti	v0,v0,40
    4164:	10400008 	beqz	v0,4188 <squash_move_players+0xa4>
    4168:	00000000 	nop
    416c:	3c020000 	lui	v0,0x0
    4170:	8c434b24 	lw	v1,19236(v0)
    4174:	8fc20000 	lw	v0,0(s8)
    4178:	00000000 	nop
    417c:	00621821 	addu	v1,v1,v0
    4180:	3c020000 	lui	v0,0x0
    4184:	ac434b24 	sw	v1,19236(v0)
    4188:	3c020000 	lui	v0,0x0
    418c:	8c434b18 	lw	v1,19224(v0)
    4190:	24020004 	li	v0,4
    4194:	1462000d 	bne	v1,v0,41cc <squash_move_players+0xe8>
    4198:	00000000 	nop
    419c:	3c020000 	lui	v0,0x0
    41a0:	8c424b20 	lw	v0,19232(v0)
    41a4:	00000000 	nop
    41a8:	18400008 	blez	v0,41cc <squash_move_players+0xe8>
    41ac:	00000000 	nop
    41b0:	3c020000 	lui	v0,0x0
    41b4:	8c434b20 	lw	v1,19232(v0)
    41b8:	8fc20000 	lw	v0,0(s8)
    41bc:	00000000 	nop
    41c0:	00621823 	subu	v1,v1,v0
    41c4:	3c020000 	lui	v0,0x0
    41c8:	ac434b20 	sw	v1,19232(v0)
    41cc:	3c020000 	lui	v0,0x0
    41d0:	8c434b18 	lw	v1,19224(v0)
    41d4:	24020005 	li	v0,5
    41d8:	1462000e 	bne	v1,v0,4214 <squash_move_players+0x130>
    41dc:	00000000 	nop
    41e0:	3c020000 	lui	v0,0x0
    41e4:	8c424b20 	lw	v0,19232(v0)
    41e8:	00000000 	nop
    41ec:	28420050 	slti	v0,v0,80
    41f0:	10400008 	beqz	v0,4214 <squash_move_players+0x130>
    41f4:	00000000 	nop
    41f8:	3c020000 	lui	v0,0x0
    41fc:	8c434b20 	lw	v1,19232(v0)
    4200:	8fc20000 	lw	v0,0(s8)
    4204:	00000000 	nop
    4208:	00621821 	addu	v1,v1,v0
    420c:	3c020000 	lui	v0,0x0
    4210:	ac434b20 	sw	v1,19232(v0)
    4214:	3c020000 	lui	v0,0x0
    4218:	8c434b48 	lw	v1,19272(v0)
    421c:	24020002 	li	v0,2
    4220:	14620048 	bne	v1,v0,4344 <squash_move_players+0x260>
    4224:	00000000 	nop
    4228:	3c020000 	lui	v0,0x0
    422c:	8c434b1c 	lw	v1,19228(v0)
    4230:	2402000a 	li	v0,10
    4234:	1462000e 	bne	v1,v0,4270 <squash_move_players+0x18c>
    4238:	00000000 	nop
    423c:	3c020000 	lui	v0,0x0
    4240:	8c424b2c 	lw	v0,19244(v0)
    4244:	00000000 	nop
    4248:	28420005 	slti	v0,v0,5
    424c:	14400008 	bnez	v0,4270 <squash_move_players+0x18c>
    4250:	00000000 	nop
    4254:	3c020000 	lui	v0,0x0
    4258:	8c434b2c 	lw	v1,19244(v0)
    425c:	8fc20000 	lw	v0,0(s8)
    4260:	00000000 	nop
    4264:	00621823 	subu	v1,v1,v0
    4268:	3c020000 	lui	v0,0x0
    426c:	ac434b2c 	sw	v1,19244(v0)
    4270:	3c020000 	lui	v0,0x0
    4274:	8c434b1c 	lw	v1,19228(v0)
    4278:	2402000c 	li	v0,12
    427c:	1462000e 	bne	v1,v0,42b8 <squash_move_players+0x1d4>
    4280:	00000000 	nop
    4284:	3c020000 	lui	v0,0x0
    4288:	8c424b2c 	lw	v0,19244(v0)
    428c:	00000000 	nop
    4290:	28420028 	slti	v0,v0,40
    4294:	10400008 	beqz	v0,42b8 <squash_move_players+0x1d4>
    4298:	00000000 	nop
    429c:	3c020000 	lui	v0,0x0
    42a0:	8c434b2c 	lw	v1,19244(v0)
    42a4:	8fc20000 	lw	v0,0(s8)
    42a8:	00000000 	nop
    42ac:	00621821 	addu	v1,v1,v0
    42b0:	3c020000 	lui	v0,0x0
    42b4:	ac434b2c 	sw	v1,19244(v0)
    42b8:	3c020000 	lui	v0,0x0
    42bc:	8c434b1c 	lw	v1,19228(v0)
    42c0:	24020006 	li	v0,6
    42c4:	1462000d 	bne	v1,v0,42fc <squash_move_players+0x218>
    42c8:	00000000 	nop
    42cc:	3c020000 	lui	v0,0x0
    42d0:	8c424b28 	lw	v0,19240(v0)
    42d4:	00000000 	nop
    42d8:	18400008 	blez	v0,42fc <squash_move_players+0x218>
    42dc:	00000000 	nop
    42e0:	3c020000 	lui	v0,0x0
    42e4:	8c434b28 	lw	v1,19240(v0)
    42e8:	8fc20000 	lw	v0,0(s8)
    42ec:	00000000 	nop
    42f0:	00621823 	subu	v1,v1,v0
    42f4:	3c020000 	lui	v0,0x0
    42f8:	ac434b28 	sw	v1,19240(v0)
    42fc:	3c020000 	lui	v0,0x0
    4300:	8c434b1c 	lw	v1,19228(v0)
    4304:	2402000b 	li	v0,11
    4308:	1462000e 	bne	v1,v0,4344 <squash_move_players+0x260>
    430c:	00000000 	nop
    4310:	3c020000 	lui	v0,0x0
    4314:	8c424b28 	lw	v0,19240(v0)
    4318:	00000000 	nop
    431c:	28420050 	slti	v0,v0,80
    4320:	10400008 	beqz	v0,4344 <squash_move_players+0x260>
    4324:	00000000 	nop
    4328:	3c020000 	lui	v0,0x0
    432c:	8c434b28 	lw	v1,19240(v0)
    4330:	8fc20000 	lw	v0,0(s8)
    4334:	00000000 	nop
    4338:	00621821 	addu	v1,v1,v0
    433c:	3c020000 	lui	v0,0x0
    4340:	ac434b28 	sw	v1,19240(v0)
    4344:	00000000 	nop
    4348:	03c0e825 	move	sp,s8
    434c:	8fbe000c 	lw	s8,12(sp)
    4350:	27bd0010 	addiu	sp,sp,16
    4354:	03e00008 	jr	ra
    4358:	00000000 	nop

0000435c <draw_result_squash>:
    435c:	27bdffe0 	addiu	sp,sp,-32
    4360:	afbf001c 	sw	ra,28(sp)
    4364:	afbe0018 	sw	s8,24(sp)
    4368:	03a0f025 	move	s8,sp
    436c:	afc40020 	sw	a0,32(s8)
    4370:	0c000912 	jal	2448 <lcd_clear_vbuf>
    4374:	00000000 	nop
    4378:	240200ff 	li	v0,255
    437c:	afa20014 	sw	v0,20(sp)
    4380:	240200ff 	li	v0,255
    4384:	afa20010 	sw	v0,16(sp)
    4388:	240700ff 	li	a3,255
    438c:	3c020000 	lui	v0,0x0
    4390:	244649f8 	addiu	a2,v0,18936
    4394:	00002825 	move	a1,zero
    4398:	24040001 	li	a0,1
    439c:	0c000a49 	jal	2924 <lcd_puts_color>
    43a0:	00000000 	nop
    43a4:	afa00014 	sw	zero,20(sp)
    43a8:	afa00010 	sw	zero,16(sp)
    43ac:	240700ff 	li	a3,255
    43b0:	3c020000 	lui	v0,0x0
    43b4:	24464a08 	addiu	a2,v0,18952
    43b8:	00002825 	move	a1,zero
    43bc:	24040002 	li	a0,2
    43c0:	0c000a49 	jal	2924 <lcd_puts_color>
    43c4:	00000000 	nop
    43c8:	240200ff 	li	v0,255
    43cc:	afa20014 	sw	v0,20(sp)
    43d0:	240200ff 	li	v0,255
    43d4:	afa20010 	sw	v0,16(sp)
    43d8:	240700ff 	li	a3,255
    43dc:	3c020000 	lui	v0,0x0
    43e0:	244649f8 	addiu	a2,v0,18936
    43e4:	00002825 	move	a1,zero
    43e8:	24040003 	li	a0,3
    43ec:	0c000a49 	jal	2924 <lcd_puts_color>
    43f0:	00000000 	nop
    43f4:	afa00014 	sw	zero,20(sp)
    43f8:	240200ff 	li	v0,255
    43fc:	afa20010 	sw	v0,16(sp)
    4400:	00003825 	move	a3,zero
    4404:	24060053 	li	a2,83
    4408:	00002825 	move	a1,zero
    440c:	24040005 	li	a0,5
    4410:	0c0009fb 	jal	27ec <lcd_putc_color>
    4414:	00000000 	nop
    4418:	afa00014 	sw	zero,20(sp)
    441c:	240200ff 	li	v0,255
    4420:	afa20010 	sw	v0,16(sp)
    4424:	00003825 	move	a3,zero
    4428:	24060043 	li	a2,67
    442c:	24050001 	li	a1,1
    4430:	24040005 	li	a0,5
    4434:	0c0009fb 	jal	27ec <lcd_putc_color>
    4438:	00000000 	nop
    443c:	afa00014 	sw	zero,20(sp)
    4440:	240200ff 	li	v0,255
    4444:	afa20010 	sw	v0,16(sp)
    4448:	00003825 	move	a3,zero
    444c:	2406004f 	li	a2,79
    4450:	24050002 	li	a1,2
    4454:	24040005 	li	a0,5
    4458:	0c0009fb 	jal	27ec <lcd_putc_color>
    445c:	00000000 	nop
    4460:	afa00014 	sw	zero,20(sp)
    4464:	240200ff 	li	v0,255
    4468:	afa20010 	sw	v0,16(sp)
    446c:	00003825 	move	a3,zero
    4470:	24060052 	li	a2,82
    4474:	24050003 	li	a1,3
    4478:	24040005 	li	a0,5
    447c:	0c0009fb 	jal	27ec <lcd_putc_color>
    4480:	00000000 	nop
    4484:	afa00014 	sw	zero,20(sp)
    4488:	240200ff 	li	v0,255
    448c:	afa20010 	sw	v0,16(sp)
    4490:	00003825 	move	a3,zero
    4494:	24060045 	li	a2,69
    4498:	24050004 	li	a1,4
    449c:	24040005 	li	a0,5
    44a0:	0c0009fb 	jal	27ec <lcd_putc_color>
    44a4:	00000000 	nop
    44a8:	afa00014 	sw	zero,20(sp)
    44ac:	240200ff 	li	v0,255
    44b0:	afa20010 	sw	v0,16(sp)
    44b4:	00003825 	move	a3,zero
    44b8:	2406003a 	li	a2,58
    44bc:	24050005 	li	a1,5
    44c0:	24040005 	li	a0,5
    44c4:	0c0009fb 	jal	27ec <lcd_putc_color>
    44c8:	00000000 	nop
    44cc:	8fc30020 	lw	v1,32(s8)
    44d0:	24020064 	li	v0,100
    44d4:	0062001a 	div	zero,v1,v0
    44d8:	14400002 	bnez	v0,44e4 <draw_result_squash+0x188>
    44dc:	00000000 	nop
    44e0:	0007000d 	break	0x7
    44e4:	00001010 	mfhi	v0
    44e8:	00001812 	mflo	v1
    44ec:	2402000a 	li	v0,10
    44f0:	00000000 	nop
    44f4:	0062001a 	div	zero,v1,v0
    44f8:	14400002 	bnez	v0,4504 <draw_result_squash+0x1a8>
    44fc:	00000000 	nop
    4500:	0007000d 	break	0x7
    4504:	00001010 	mfhi	v0
    4508:	24430030 	addiu	v1,v0,48
    450c:	afa00014 	sw	zero,20(sp)
    4510:	240200ff 	li	v0,255
    4514:	afa20010 	sw	v0,16(sp)
    4518:	00003825 	move	a3,zero
    451c:	00603025 	move	a2,v1
    4520:	24050006 	li	a1,6
    4524:	24040005 	li	a0,5
    4528:	0c0009fb 	jal	27ec <lcd_putc_color>
    452c:	00000000 	nop
    4530:	8fc30020 	lw	v1,32(s8)
    4534:	2402000a 	li	v0,10
    4538:	0062001a 	div	zero,v1,v0
    453c:	14400002 	bnez	v0,4548 <draw_result_squash+0x1ec>
    4540:	00000000 	nop
    4544:	0007000d 	break	0x7
    4548:	00001010 	mfhi	v0
    454c:	00001812 	mflo	v1
    4550:	2402000a 	li	v0,10
    4554:	00000000 	nop
    4558:	0062001a 	div	zero,v1,v0
    455c:	14400002 	bnez	v0,4568 <draw_result_squash+0x20c>
    4560:	00000000 	nop
    4564:	0007000d 	break	0x7
    4568:	00001010 	mfhi	v0
    456c:	24430030 	addiu	v1,v0,48
    4570:	afa00014 	sw	zero,20(sp)
    4574:	240200ff 	li	v0,255
    4578:	afa20010 	sw	v0,16(sp)
    457c:	00003825 	move	a3,zero
    4580:	00603025 	move	a2,v1
    4584:	24050007 	li	a1,7
    4588:	24040005 	li	a0,5
    458c:	0c0009fb 	jal	27ec <lcd_putc_color>
    4590:	00000000 	nop
    4594:	8fc30020 	lw	v1,32(s8)
    4598:	2402000a 	li	v0,10
    459c:	0062001a 	div	zero,v1,v0
    45a0:	14400002 	bnez	v0,45ac <draw_result_squash+0x250>
    45a4:	00000000 	nop
    45a8:	0007000d 	break	0x7
    45ac:	00001010 	mfhi	v0
    45b0:	24430030 	addiu	v1,v0,48
    45b4:	afa00014 	sw	zero,20(sp)
    45b8:	240200ff 	li	v0,255
    45bc:	afa20010 	sw	v0,16(sp)
    45c0:	00003825 	move	a3,zero
    45c4:	00603025 	move	a2,v1
    45c8:	24050008 	li	a1,8
    45cc:	24040005 	li	a0,5
    45d0:	0c0009fb 	jal	27ec <lcd_putc_color>
    45d4:	00000000 	nop
    45d8:	240200ff 	li	v0,255
    45dc:	afa20014 	sw	v0,20(sp)
    45e0:	240200ff 	li	v0,255
    45e4:	afa20010 	sw	v0,16(sp)
    45e8:	00003825 	move	a3,zero
    45ec:	3c020000 	lui	v0,0x0
    45f0:	24464a38 	addiu	a2,v0,19000
    45f4:	00002825 	move	a1,zero
    45f8:	24040007 	li	a0,7
    45fc:	0c000a49 	jal	2924 <lcd_puts_color>
    4600:	00000000 	nop
    4604:	00000000 	nop
    4608:	03c0e825 	move	sp,s8
    460c:	8fbf001c 	lw	ra,28(sp)
    4610:	8fbe0018 	lw	s8,24(sp)
    4614:	27bd0020 	addiu	sp,sp,32
    4618:	03e00008 	jr	ra
    461c:	00000000 	nop

セクション .rodata の逆アセンブル:

00004620 <font8x8>:
    4620:	00000000 	nop
    4624:	00000000 	nop
    4628:	0000005f 	0x5f
    462c:	00000000 	nop
    4630:	00000300 	sll	zero,zero,0xc
    4634:	03000000 	0x3000000
    4638:	643c2664 	0x643c2664
    463c:	3c262400 	0x3c262400
    4640:	2649497f 	addiu	t1,s2,18815
    4644:	49493200 	0x49493200
    4648:	42251208 	c0	0x251208
    464c:	24522100 	addiu	s2,v0,8448
    4650:	20504e55 	addi	s0,v0,20053
    4654:	22582800 	addi	t8,s2,10240
    4658:	00000003 	sra	zero,zero,0x0
    465c:	00000000 	nop
    4660:	00001c22 	0x1c22
    4664:	41000000 	bc0f	4668 <font8x8+0x48>
    4668:	00000041 	0x41
    466c:	221c0000 	addi	gp,s0,0
    4670:	0015150e 	0x15150e
    4674:	0e151500 	jal	8545400 <__ebackup+0x853f02c>
    4678:	0008083e 	0x8083e
    467c:	08080000 	j	200000 <__ebackup+0x1f9c2c>
    4680:	00000050 	0x50
    4684:	30000000 	andi	zero,zero,0x0
    4688:	00080808 	0x80808
    468c:	08080000 	j	200000 <__ebackup+0x1f9c2c>
    4690:	00000040 	ssnop
    4694:	00000000 	nop
    4698:	40201008 	0x40201008
    469c:	04020100 	0x4020100
    46a0:	003e4141 	0x3e4141
    46a4:	413e0000 	0x413e0000
    46a8:	0000417f 	0x417f
    46ac:	40000000 	mfc0	zero,c0_index
    46b0:	00426151 	0x426151
    46b4:	496e0000 	0x496e0000
    46b8:	00224149 	0x224149
    46bc:	49360000 	0x49360000
    46c0:	00181412 	0x181412
    46c4:	7f100000 	0x7f100000
    46c8:	00274949 	0x274949
    46cc:	49710000 	0x49710000
    46d0:	003c4a49 	0x3c4a49
    46d4:	48700000 	0x48700000
    46d8:	00432111 	0x432111
    46dc:	0d030000 	jal	40c0000 <__ebackup+0x40b9c2c>
    46e0:	00364949 	0x364949
    46e4:	49360000 	0x49360000
    46e8:	00060949 	0x60949
    46ec:	291e0000 	slti	s8,t0,0
    46f0:	00000012 	mflo	zero
    46f4:	00000000 	nop
    46f8:	00000052 	0x52
    46fc:	30000000 	andi	zero,zero,0x0
    4700:	00000814 	0x814
    4704:	14220000 	bne	at,v0,4708 <font8x8+0xe8>
    4708:	00141414 	0x141414
    470c:	14141400 	bne	zero,s4,9710 <__ebackup+0x333c>
    4710:	00002214 	0x2214
    4714:	14080000 	bne	zero,t0,4718 <font8x8+0xf8>
    4718:	00020159 	0x20159
    471c:	05020000 	0x5020000
    4720:	3e415d55 	0x3e415d55
    4724:	4d512e00 	0x4d512e00
    4728:	407c4a09 	0x407c4a09
    472c:	4a7c4000 	c2	0x7c4000
    4730:	417f4949 	0x417f4949
    4734:	49493600 	0x49493600
    4738:	1c224141 	0x1c224141
    473c:	41412200 	0x41412200
    4740:	417f4141 	0x417f4141
    4744:	41221c00 	0x41221c00
    4748:	417f4949 	0x417f4949
    474c:	5d416300 	0x5d416300
    4750:	417f4909 	0x417f4909
    4754:	1d010300 	0x1d010300
    4758:	1c224149 	0x1c224149
    475c:	493a0800 	0x493a0800
    4760:	417f0808 	0x417f0808
    4764:	087f4100 	j	1fd0400 <__ebackup+0x1fca02c>
    4768:	0041417f 	0x41417f
    476c:	41410000 	0x41410000
    4770:	30404141 	andi	zero,v0,0x4141
    4774:	3f010100 	0x3f010100
    4778:	417f080c 	0x417f080c
    477c:	12614100 	beq	s3,at,14b80 <__ebackup+0xe7ac>
    4780:	417f4140 	0x417f4140
    4784:	40406000 	cfc0	zero,c0_sr
    4788:	417f420c 	0x417f420c
    478c:	427f4100 	c0	0x7f4100
    4790:	417f420c 	0x417f420c
    4794:	117f0100 	beq	t3,ra,4b98 <lcd_vbuf+0x18>
    4798:	1c224141 	0x1c224141
    479c:	41221c00 	0x41221c00
    47a0:	417f4909 	0x417f4909
    47a4:	09090600 	j	4241800 <__ebackup+0x423b42c>
    47a8:	0c122121 	jal	488484 <__ebackup+0x4820b0>
    47ac:	61524c00 	0x61524c00
    47b0:	417f0909 	0x417f0909
    47b4:	19694600 	0x19694600
    47b8:	66494949 	0x66494949
    47bc:	49493300 	0x49493300
    47c0:	0301417f 	0x301417f
    47c4:	41010300 	bc0t	53c8 <lcd_vbuf+0x848>
    47c8:	013f4140 	0x13f4140
    47cc:	413f0100 	0x413f0100
    47d0:	010f3140 	0x10f3140
    47d4:	310f0100 	andi	t7,t0,0x100
    47d8:	011f6114 	0x11f6114
    47dc:	611f0100 	0x611f0100
    47e0:	41413608 	0x41413608
    47e4:	36414100 	ori	at,s2,0x4100
    47e8:	01034478 	0x1034478
    47ec:	44030100 	0x44030100
    47f0:	43615149 	c0	0x1615149
    47f4:	45436100 	0x45436100
    47f8:	00007f41 	0x7f41
    47fc:	41000000 	bc0f	4800 <font8x8+0x1e0>
    4800:	01020408 	0x1020408
    4804:	10204000 	beqz	at,14808 <__ebackup+0xe434>
    4808:	00004141 	0x4141
    480c:	7f000000 	0x7f000000
    4810:	00040201 	0x40201
    4814:	01020400 	0x1020400
    4818:	00404040 	0x404040
    481c:	40404000 	cfc0	zero,c0_badvaddr
    4820:	00010200 	sll	zero,at,0x8
    4824:	00000000 	nop
    4828:	00344a4a 	0x344a4a
    482c:	4a3c4000 	c2	0x3c4000
    4830:	00413f48 	0x413f48
    4834:	48483000 	cfc2	t0,$6
    4838:	003c4242 	0x3c4242
    483c:	42240000 	c0	0x240000
    4840:	00304848 	0x304848
    4844:	493f4000 	0x493f4000
    4848:	003c4a4a 	0x3c4a4a
    484c:	4a2c0000 	c2	0x2c0000
    4850:	0000487e 	0x487e
    4854:	49090000 	0x49090000
    4858:	00264949 	0x264949
    485c:	493f0100 	0x493f0100
    4860:	417f4804 	0x417f4804
    4864:	44784000 	0x44784000
    4868:	0000447d 	0x447d
    486c:	40000000 	mfc0	zero,c0_index
    4870:	00004044 	0x4044
    4874:	3d000000 	0x3d000000
    4878:	417f1018 	0x417f1018
    487c:	24424200 	addiu	v0,v0,16896
    4880:	0040417f 	0x40417f
    4884:	40400000 	cfc0	zero,c0_index
    4888:	427e027c 	c0	0x7e027c
    488c:	027e4000 	0x27e4000
    4890:	427e4402 	c0	0x7e4402
    4894:	427c4000 	c0	0x7c4000
    4898:	003c4242 	0x3c4242
    489c:	423c0000 	c0	0x3c0000
    48a0:	00417f49 	0x417f49
    48a4:	09090600 	j	4241800 <__ebackup+0x423b42c>
    48a8:	00060909 	0x60909
    48ac:	497f4100 	0x497f4100
    48b0:	00427e44 	0x427e44
    48b4:	02020400 	0x2020400
    48b8:	00644a4a 	0x644a4a
    48bc:	4a360000 	c2	0x360000
    48c0:	00043f44 	0x43f44
    48c4:	44200000 	0x44200000
    48c8:	00023e40 	sll	a3,v0,0x19
    48cc:	40227e40 	0x40227e40
    48d0:	020e3240 	0x20e3240
    48d4:	320e0200 	andi	t6,s0,0x200
    48d8:	021e6218 	0x21e6218
    48dc:	621e0200 	0x621e0200
    48e0:	42621408 	c0	0x621408
    48e4:	14624200 	bne	v1,v0,150e8 <__ebackup+0xed14>
    48e8:	01434538 	0x1434538
    48ec:	05030100 	0x5030100
    48f0:	00466252 	0x466252
    48f4:	4a466200 	c2	0x466200
    48f8:	00000836 	0x836
    48fc:	41000000 	bc0f	4900 <font8x8+0x2e0>
    4900:	0000007f 	0x7f
    4904:	00000000 	nop
    4908:	00000041 	0x41
    490c:	36080000 	ori	t0,s0,0x0
    4910:	00180808 	0x180808
    4914:	10101800 	beq	zero,s0,a918 <__ebackup+0x4544>
    4918:	aa55aa55 	swl	s5,-21931(s2)
    491c:	aa55aa55 	swl	s5,-21931(s2)

00004920 <RACKET_PATTERN>:
    4920:	00000101 	0x101
    4924:	01010000 	0x1010000
    4928:	00010202 	srl	zero,at,0x8
    492c:	02020100 	0x2020100
    4930:	00010202 	srl	zero,at,0x8
    4934:	02020100 	0x2020100
    4938:	00010202 	srl	zero,at,0x8
    493c:	02020100 	0x2020100
    4940:	00010202 	srl	zero,at,0x8
    4944:	02020100 	0x2020100
    4948:	00000101 	0x101
    494c:	01010000 	0x1010000
    4950:	00000001 	0x1
    4954:	01000000 	0x1000000
    4958:	00000001 	0x1
    495c:	01000000 	0x1000000
    4960:	00000001 	0x1
    4964:	01000000 	0x1000000
    4968:	00000001 	0x1
    496c:	01000000 	0x1000000
    4970:	00000001 	0x1
    4974:	01000000 	0x1000000
    4978:	00000001 	0x1
    497c:	01000000 	0x1000000

00004980 <PLAYER_PATTERN>:
    4980:	00000101 	0x101
    4984:	01010000 	0x1010000
    4988:	00010100 	sll	zero,at,0x4
    498c:	00010100 	sll	zero,at,0x4
    4990:	00000101 	0x101
    4994:	01010000 	0x1010000
    4998:	00000001 	0x1
    499c:	01000000 	0x1000000
    49a0:	00000101 	0x101
    49a4:	01010000 	0x1010000
    49a8:	00010100 	sll	zero,at,0x4
    49ac:	00010100 	sll	zero,at,0x4
    49b0:	00010100 	sll	zero,at,0x4
    49b4:	00010100 	sll	zero,at,0x4
    49b8:	00010000 	sll	zero,at,0x0
    49bc:	00000100 	sll	zero,zero,0x4
    49c0:	54454e4e 	0x54454e4e
    49c4:	4953204d 	0x4953204d
    49c8:	4f444500 	c3	0x1444500
    49cc:	53515541 	0x53515541
    49d0:	53482031 	0x53482031
    49d4:	50000000 	0x50000000
    49d8:	53515541 	0x53515541
    49dc:	53482032 	0x53482032
    49e0:	50000000 	0x50000000
    49e4:	50524553 	0x50524553
    49e8:	53203000 	0x53203000
    49ec:	544f2053 	0x544f2053
    49f0:	54415254 	0x54415254
    49f4:	00000000 	nop
    49f8:	3d3d3d3d 	0x3d3d3d3d
    49fc:	3d3d3d3d 	0x3d3d3d3d
    4a00:	3d3d3d3d 	0x3d3d3d3d
    4a04:	00000000 	nop
    4a08:	2047414d 	addi	a3,v0,16717
    4a0c:	45204f56 	0x45204f56
    4a10:	45522120 	0x45522120
    4a14:	00000000 	nop
    4a18:	2057494e 	addi	s7,v0,18766
    4a1c:	4e45523a 	c3	0x45523a
    4a20:	20503120 	addi	s0,v0,12576
    4a24:	00000000 	nop
    4a28:	2057494e 	addi	s7,v0,18766
    4a2c:	4e45523a 	c3	0x45523a
    4a30:	20503220 	addi	s0,v0,12832
    4a34:	00000000 	nop
    4a38:	302b313a 	andi	t3,at,0x313a
    4a3c:	52455345 	0x52455345
    4a40:	54000000 	0x54000000
    4a44:	3d3d2053 	0x3d3d2053
    4a48:	454c4543 	0x454c4543
    4a4c:	54203d3d 	0x54203d3d
    4a50:	00000000 	nop
    4a54:	3e205445 	0x3e205445
    4a58:	4e4e4953 	c3	0x4e4953
    4a5c:	2020203c 	addi	zero,at,8252
    4a60:	00000000 	nop
    4a64:	20205445 	addi	zero,at,21573
    4a68:	4e4e4953 	c3	0x4e4953
    4a6c:	20202020 	addi	zero,at,8224
    4a70:	00000000 	nop
    4a74:	3e205351 	0x3e205351
    4a78:	55415348 	0x55415348
    4a7c:	2031503c 	addi	s1,at,20540
    4a80:	00000000 	nop
    4a84:	20205351 	addi	zero,at,21329
    4a88:	55415348 	0x55415348
    4a8c:	20315020 	addi	s1,at,20512
    4a90:	00000000 	nop
    4a94:	3e205351 	0x3e205351
    4a98:	55415348 	0x55415348
    4a9c:	2032503c 	addi	s2,at,20540
    4aa0:	00000000 	nop
    4aa4:	20205351 	addi	zero,at,21329
    4aa8:	55415348 	0x55415348
    4aac:	20325020 	addi	s2,at,20512
    4ab0:	00000000 	nop
    4ab4:	524f5441 	0x524f5441
    4ab8:	52592f33 	0x52592f33
    4abc:	2f320000 	sltiu	s2,t9,0
    4ac0:	303a4445 	andi	k0,at,0x4445
    4ac4:	43494445 	c0	0x1494445
    4ac8:	00000000 	nop
    4acc:	00001688 	0x1688
    4ad0:	000016a0 	0x16a0
    4ad4:	000016bc 	0x16bc
    4ad8:	000016d4 	0x16d4
    4adc:	000016f0 	0x16f0
    4ae0:	00001708 	0x1708
    4ae4:	50310000 	0x50310000
    4ae8:	203c0000 	addi	gp,at,0
    4aec:	50320000 	0x50320000

セクション .data の逆アセンブル:

00004af0 <rotary_prev>:
    4af0:	00000080 	sll	zero,zero,0x2

00004af4 <rotary_threshold>:
    4af4:	00000004 	sllv	zero,zero,zero

00004af8 <p1_x>:
    4af8:	00000002 	srl	zero,zero,0x0

00004afc <p1_y>:
    4afc:	00000018 	mult	zero,zero

00004b00 <p2_x>:
    4b00:	00000056 	0x56

00004b04 <p2_y>:
    4b04:	00000018 	mult	zero,zero

00004b08 <ball_x>:
    4b08:	0000002e 	0x2e

00004b0c <ball_y>:
    4b0c:	0000001e 	0x1e

00004b10 <ball_vx>:
    4b10:	00000003 	sra	zero,zero,0x0

00004b14 <ball_vy>:
    4b14:	00000002 	srl	zero,zero,0x0

00004b18 <input_p1_dir>:
    4b18:	ffffffff 	0xffffffff

00004b1c <input_p2_dir>:
    4b1c:	ffffffff 	0xffffffff

00004b20 <sq_p1_x>:
    4b20:	00000002 	srl	zero,zero,0x0

00004b24 <sq_p1_y>:
    4b24:	00000014 	0x14

00004b28 <sq_p2_x>:
    4b28:	00000002 	srl	zero,zero,0x0

00004b2c <sq_p2_y>:
    4b2c:	00000024 	and	zero,zero,zero

00004b30 <sq_ball_x>:
    4b30:	0000002e 	0x2e

00004b34 <sq_ball_y>:
    4b34:	0000001a 	div	zero,zero,zero

00004b38 <sq_ball_vx>:
    4b38:	00000003 	sra	zero,zero,0x0

00004b3c <sq_ball_vy>:
    4b3c:	00000002 	srl	zero,zero,0x0

00004b40 <sq_lives>:
    4b40:	00000003 	sra	zero,zero,0x0

セクション .bss の逆アセンブル:

00004b44 <game_state>:
    4b44:	00000000 	nop

00004b48 <game_mode>:
    4b48:	00000000 	nop

00004b4c <cursor>:
    4b4c:	00000000 	nop

00004b50 <frame_counter>:
    4b50:	00000000 	nop

00004b54 <btn0_prev>:
    4b54:	00000000 	nop

00004b58 <btn2_prev>:
    4b58:	00000000 	nop

00004b5c <btn3_prev>:
    4b5c:	00000000 	nop

00004b60 <score_p1>:
    4b60:	00000000 	nop

00004b64 <score_p2>:
    4b64:	00000000 	nop

00004b68 <input_btn0>:
    4b68:	00000000 	nop

00004b6c <input_btn1>:
    4b6c:	00000000 	nop

00004b70 <buzzer_timer>:
    4b70:	00000000 	nop

00004b74 <sq_score>:
    4b74:	00000000 	nop

00004b78 <sq_turn>:
    4b78:	00000000 	nop

00004b7c <sq_rally>:
    4b7c:	00000000 	nop

00004b80 <lcd_vbuf>:
    4b80:	00000000 	nop
    4b84:	00000000 	nop
    4b88:	00000000 	nop
    4b8c:	00000000 	nop
    4b90:	00000000 	nop
    4b94:	00000000 	nop
    4b98:	00000000 	nop
    4b9c:	00000000 	nop
    4ba0:	00000000 	nop
    4ba4:	00000000 	nop
    4ba8:	00000000 	nop
    4bac:	00000000 	nop
    4bb0:	00000000 	nop
    4bb4:	00000000 	nop
    4bb8:	00000000 	nop
    4bbc:	00000000 	nop
    4bc0:	00000000 	nop
    4bc4:	00000000 	nop
    4bc8:	00000000 	nop
    4bcc:	00000000 	nop
    4bd0:	00000000 	nop
    4bd4:	00000000 	nop
    4bd8:	00000000 	nop
    4bdc:	00000000 	nop
    4be0:	00000000 	nop
    4be4:	00000000 	nop
    4be8:	00000000 	nop
    4bec:	00000000 	nop
    4bf0:	00000000 	nop
    4bf4:	00000000 	nop
    4bf8:	00000000 	nop
    4bfc:	00000000 	nop
    4c00:	00000000 	nop
    4c04:	00000000 	nop
    4c08:	00000000 	nop
    4c0c:	00000000 	nop
    4c10:	00000000 	nop
    4c14:	00000000 	nop
    4c18:	00000000 	nop
    4c1c:	00000000 	nop
    4c20:	00000000 	nop
    4c24:	00000000 	nop
    4c28:	00000000 	nop
    4c2c:	00000000 	nop
    4c30:	00000000 	nop
    4c34:	00000000 	nop
    4c38:	00000000 	nop
    4c3c:	00000000 	nop
    4c40:	00000000 	nop
    4c44:	00000000 	nop
    4c48:	00000000 	nop
    4c4c:	00000000 	nop
    4c50:	00000000 	nop
    4c54:	00000000 	nop
    4c58:	00000000 	nop
    4c5c:	00000000 	nop
    4c60:	00000000 	nop
    4c64:	00000000 	nop
    4c68:	00000000 	nop
    4c6c:	00000000 	nop
    4c70:	00000000 	nop
    4c74:	00000000 	nop
    4c78:	00000000 	nop
    4c7c:	00000000 	nop
    4c80:	00000000 	nop
    4c84:	00000000 	nop
    4c88:	00000000 	nop
    4c8c:	00000000 	nop
    4c90:	00000000 	nop
    4c94:	00000000 	nop
    4c98:	00000000 	nop
    4c9c:	00000000 	nop
    4ca0:	00000000 	nop
    4ca4:	00000000 	nop
    4ca8:	00000000 	nop
    4cac:	00000000 	nop
    4cb0:	00000000 	nop
    4cb4:	00000000 	nop
    4cb8:	00000000 	nop
    4cbc:	00000000 	nop
    4cc0:	00000000 	nop
    4cc4:	00000000 	nop
    4cc8:	00000000 	nop
    4ccc:	00000000 	nop
    4cd0:	00000000 	nop
    4cd4:	00000000 	nop
    4cd8:	00000000 	nop
    4cdc:	00000000 	nop
    4ce0:	00000000 	nop
    4ce4:	00000000 	nop
    4ce8:	00000000 	nop
    4cec:	00000000 	nop
    4cf0:	00000000 	nop
    4cf4:	00000000 	nop
    4cf8:	00000000 	nop
    4cfc:	00000000 	nop
    4d00:	00000000 	nop
    4d04:	00000000 	nop
    4d08:	00000000 	nop
    4d0c:	00000000 	nop
    4d10:	00000000 	nop
    4d14:	00000000 	nop
    4d18:	00000000 	nop
    4d1c:	00000000 	nop
    4d20:	00000000 	nop
    4d24:	00000000 	nop
    4d28:	00000000 	nop
    4d2c:	00000000 	nop
    4d30:	00000000 	nop
    4d34:	00000000 	nop
    4d38:	00000000 	nop
    4d3c:	00000000 	nop
    4d40:	00000000 	nop
    4d44:	00000000 	nop
    4d48:	00000000 	nop
    4d4c:	00000000 	nop
    4d50:	00000000 	nop
    4d54:	00000000 	nop
    4d58:	00000000 	nop
    4d5c:	00000000 	nop
    4d60:	00000000 	nop
    4d64:	00000000 	nop
    4d68:	00000000 	nop
    4d6c:	00000000 	nop
    4d70:	00000000 	nop
    4d74:	00000000 	nop
    4d78:	00000000 	nop
    4d7c:	00000000 	nop
    4d80:	00000000 	nop
    4d84:	00000000 	nop
    4d88:	00000000 	nop
    4d8c:	00000000 	nop
    4d90:	00000000 	nop
    4d94:	00000000 	nop
    4d98:	00000000 	nop
    4d9c:	00000000 	nop
    4da0:	00000000 	nop
    4da4:	00000000 	nop
    4da8:	00000000 	nop
    4dac:	00000000 	nop
    4db0:	00000000 	nop
    4db4:	00000000 	nop
    4db8:	00000000 	nop
    4dbc:	00000000 	nop
    4dc0:	00000000 	nop
    4dc4:	00000000 	nop
    4dc8:	00000000 	nop
    4dcc:	00000000 	nop
    4dd0:	00000000 	nop
    4dd4:	00000000 	nop
    4dd8:	00000000 	nop
    4ddc:	00000000 	nop
    4de0:	00000000 	nop
    4de4:	00000000 	nop
    4de8:	00000000 	nop
    4dec:	00000000 	nop
    4df0:	00000000 	nop
    4df4:	00000000 	nop
    4df8:	00000000 	nop
    4dfc:	00000000 	nop
    4e00:	00000000 	nop
    4e04:	00000000 	nop
    4e08:	00000000 	nop
    4e0c:	00000000 	nop
    4e10:	00000000 	nop
    4e14:	00000000 	nop
    4e18:	00000000 	nop
    4e1c:	00000000 	nop
    4e20:	00000000 	nop
    4e24:	00000000 	nop
    4e28:	00000000 	nop
    4e2c:	00000000 	nop
    4e30:	00000000 	nop
    4e34:	00000000 	nop
    4e38:	00000000 	nop
    4e3c:	00000000 	nop
    4e40:	00000000 	nop
    4e44:	00000000 	nop
    4e48:	00000000 	nop
    4e4c:	00000000 	nop
    4e50:	00000000 	nop
    4e54:	00000000 	nop
    4e58:	00000000 	nop
    4e5c:	00000000 	nop
    4e60:	00000000 	nop
    4e64:	00000000 	nop
    4e68:	00000000 	nop
    4e6c:	00000000 	nop
    4e70:	00000000 	nop
    4e74:	00000000 	nop
    4e78:	00000000 	nop
    4e7c:	00000000 	nop
    4e80:	00000000 	nop
    4e84:	00000000 	nop
    4e88:	00000000 	nop
    4e8c:	00000000 	nop
    4e90:	00000000 	nop
    4e94:	00000000 	nop
    4e98:	00000000 	nop
    4e9c:	00000000 	nop
    4ea0:	00000000 	nop
    4ea4:	00000000 	nop
    4ea8:	00000000 	nop
    4eac:	00000000 	nop
    4eb0:	00000000 	nop
    4eb4:	00000000 	nop
    4eb8:	00000000 	nop
    4ebc:	00000000 	nop
    4ec0:	00000000 	nop
    4ec4:	00000000 	nop
    4ec8:	00000000 	nop
    4ecc:	00000000 	nop
    4ed0:	00000000 	nop
    4ed4:	00000000 	nop
    4ed8:	00000000 	nop
    4edc:	00000000 	nop
    4ee0:	00000000 	nop
    4ee4:	00000000 	nop
    4ee8:	00000000 	nop
    4eec:	00000000 	nop
    4ef0:	00000000 	nop
    4ef4:	00000000 	nop
    4ef8:	00000000 	nop
    4efc:	00000000 	nop
    4f00:	00000000 	nop
    4f04:	00000000 	nop
    4f08:	00000000 	nop
    4f0c:	00000000 	nop
    4f10:	00000000 	nop
    4f14:	00000000 	nop
    4f18:	00000000 	nop
    4f1c:	00000000 	nop
    4f20:	00000000 	nop
    4f24:	00000000 	nop
    4f28:	00000000 	nop
    4f2c:	00000000 	nop
    4f30:	00000000 	nop
    4f34:	00000000 	nop
    4f38:	00000000 	nop
    4f3c:	00000000 	nop
    4f40:	00000000 	nop
    4f44:	00000000 	nop
    4f48:	00000000 	nop
    4f4c:	00000000 	nop
    4f50:	00000000 	nop
    4f54:	00000000 	nop
    4f58:	00000000 	nop
    4f5c:	00000000 	nop
    4f60:	00000000 	nop
    4f64:	00000000 	nop
    4f68:	00000000 	nop
    4f6c:	00000000 	nop
    4f70:	00000000 	nop
    4f74:	00000000 	nop
    4f78:	00000000 	nop
    4f7c:	00000000 	nop
    4f80:	00000000 	nop
    4f84:	00000000 	nop
    4f88:	00000000 	nop
    4f8c:	00000000 	nop
    4f90:	00000000 	nop
    4f94:	00000000 	nop
    4f98:	00000000 	nop
    4f9c:	00000000 	nop
    4fa0:	00000000 	nop
    4fa4:	00000000 	nop
    4fa8:	00000000 	nop
    4fac:	00000000 	nop
    4fb0:	00000000 	nop
    4fb4:	00000000 	nop
    4fb8:	00000000 	nop
    4fbc:	00000000 	nop
    4fc0:	00000000 	nop
    4fc4:	00000000 	nop
    4fc8:	00000000 	nop
    4fcc:	00000000 	nop
    4fd0:	00000000 	nop
    4fd4:	00000000 	nop
    4fd8:	00000000 	nop
    4fdc:	00000000 	nop
    4fe0:	00000000 	nop
    4fe4:	00000000 	nop
    4fe8:	00000000 	nop
    4fec:	00000000 	nop
    4ff0:	00000000 	nop
    4ff4:	00000000 	nop
    4ff8:	00000000 	nop
    4ffc:	00000000 	nop
    5000:	00000000 	nop
    5004:	00000000 	nop
    5008:	00000000 	nop
    500c:	00000000 	nop
    5010:	00000000 	nop
    5014:	00000000 	nop
    5018:	00000000 	nop
    501c:	00000000 	nop
    5020:	00000000 	nop
    5024:	00000000 	nop
    5028:	00000000 	nop
    502c:	00000000 	nop
    5030:	00000000 	nop
    5034:	00000000 	nop
    5038:	00000000 	nop
    503c:	00000000 	nop
    5040:	00000000 	nop
    5044:	00000000 	nop
    5048:	00000000 	nop
    504c:	00000000 	nop
    5050:	00000000 	nop
    5054:	00000000 	nop
    5058:	00000000 	nop
    505c:	00000000 	nop
    5060:	00000000 	nop
    5064:	00000000 	nop
    5068:	00000000 	nop
    506c:	00000000 	nop
    5070:	00000000 	nop
    5074:	00000000 	nop
    5078:	00000000 	nop
    507c:	00000000 	nop
    5080:	00000000 	nop
    5084:	00000000 	nop
    5088:	00000000 	nop
    508c:	00000000 	nop
    5090:	00000000 	nop
    5094:	00000000 	nop
    5098:	00000000 	nop
    509c:	00000000 	nop
    50a0:	00000000 	nop
    50a4:	00000000 	nop
    50a8:	00000000 	nop
    50ac:	00000000 	nop
    50b0:	00000000 	nop
    50b4:	00000000 	nop
    50b8:	00000000 	nop
    50bc:	00000000 	nop
    50c0:	00000000 	nop
    50c4:	00000000 	nop
    50c8:	00000000 	nop
    50cc:	00000000 	nop
    50d0:	00000000 	nop
    50d4:	00000000 	nop
    50d8:	00000000 	nop
    50dc:	00000000 	nop
    50e0:	00000000 	nop
    50e4:	00000000 	nop
    50e8:	00000000 	nop
    50ec:	00000000 	nop
    50f0:	00000000 	nop
    50f4:	00000000 	nop
    50f8:	00000000 	nop
    50fc:	00000000 	nop
    5100:	00000000 	nop
    5104:	00000000 	nop
    5108:	00000000 	nop
    510c:	00000000 	nop
    5110:	00000000 	nop
    5114:	00000000 	nop
    5118:	00000000 	nop
    511c:	00000000 	nop
    5120:	00000000 	nop
    5124:	00000000 	nop
    5128:	00000000 	nop
    512c:	00000000 	nop
    5130:	00000000 	nop
    5134:	00000000 	nop
    5138:	00000000 	nop
    513c:	00000000 	nop
    5140:	00000000 	nop
    5144:	00000000 	nop
    5148:	00000000 	nop
    514c:	00000000 	nop
    5150:	00000000 	nop
    5154:	00000000 	nop
    5158:	00000000 	nop
    515c:	00000000 	nop
    5160:	00000000 	nop
    5164:	00000000 	nop
    5168:	00000000 	nop
    516c:	00000000 	nop
    5170:	00000000 	nop
    5174:	00000000 	nop
    5178:	00000000 	nop
    517c:	00000000 	nop
    5180:	00000000 	nop
    5184:	00000000 	nop
    5188:	00000000 	nop
    518c:	00000000 	nop
    5190:	00000000 	nop
    5194:	00000000 	nop
    5198:	00000000 	nop
    519c:	00000000 	nop
    51a0:	00000000 	nop
    51a4:	00000000 	nop
    51a8:	00000000 	nop
    51ac:	00000000 	nop
    51b0:	00000000 	nop
    51b4:	00000000 	nop
    51b8:	00000000 	nop
    51bc:	00000000 	nop
    51c0:	00000000 	nop
    51c4:	00000000 	nop
    51c8:	00000000 	nop
    51cc:	00000000 	nop
    51d0:	00000000 	nop
    51d4:	00000000 	nop
    51d8:	00000000 	nop
    51dc:	00000000 	nop
    51e0:	00000000 	nop
    51e4:	00000000 	nop
    51e8:	00000000 	nop
    51ec:	00000000 	nop
    51f0:	00000000 	nop
    51f4:	00000000 	nop
    51f8:	00000000 	nop
    51fc:	00000000 	nop
    5200:	00000000 	nop
    5204:	00000000 	nop
    5208:	00000000 	nop
    520c:	00000000 	nop
    5210:	00000000 	nop
    5214:	00000000 	nop
    5218:	00000000 	nop
    521c:	00000000 	nop
    5220:	00000000 	nop
    5224:	00000000 	nop
    5228:	00000000 	nop
    522c:	00000000 	nop
    5230:	00000000 	nop
    5234:	00000000 	nop
    5238:	00000000 	nop
    523c:	00000000 	nop
    5240:	00000000 	nop
    5244:	00000000 	nop
    5248:	00000000 	nop
    524c:	00000000 	nop
    5250:	00000000 	nop
    5254:	00000000 	nop
    5258:	00000000 	nop
    525c:	00000000 	nop
    5260:	00000000 	nop
    5264:	00000000 	nop
    5268:	00000000 	nop
    526c:	00000000 	nop
    5270:	00000000 	nop
    5274:	00000000 	nop
    5278:	00000000 	nop
    527c:	00000000 	nop
    5280:	00000000 	nop
    5284:	00000000 	nop
    5288:	00000000 	nop
    528c:	00000000 	nop
    5290:	00000000 	nop
    5294:	00000000 	nop
    5298:	00000000 	nop
    529c:	00000000 	nop
    52a0:	00000000 	nop
    52a4:	00000000 	nop
    52a8:	00000000 	nop
    52ac:	00000000 	nop
    52b0:	00000000 	nop
    52b4:	00000000 	nop
    52b8:	00000000 	nop
    52bc:	00000000 	nop
    52c0:	00000000 	nop
    52c4:	00000000 	nop
    52c8:	00000000 	nop
    52cc:	00000000 	nop
    52d0:	00000000 	nop
    52d4:	00000000 	nop
    52d8:	00000000 	nop
    52dc:	00000000 	nop
    52e0:	00000000 	nop
    52e4:	00000000 	nop
    52e8:	00000000 	nop
    52ec:	00000000 	nop
    52f0:	00000000 	nop
    52f4:	00000000 	nop
    52f8:	00000000 	nop
    52fc:	00000000 	nop
    5300:	00000000 	nop
    5304:	00000000 	nop
    5308:	00000000 	nop
    530c:	00000000 	nop
    5310:	00000000 	nop
    5314:	00000000 	nop
    5318:	00000000 	nop
    531c:	00000000 	nop
    5320:	00000000 	nop
    5324:	00000000 	nop
    5328:	00000000 	nop
    532c:	00000000 	nop
    5330:	00000000 	nop
    5334:	00000000 	nop
    5338:	00000000 	nop
    533c:	00000000 	nop
    5340:	00000000 	nop
    5344:	00000000 	nop
    5348:	00000000 	nop
    534c:	00000000 	nop
    5350:	00000000 	nop
    5354:	00000000 	nop
    5358:	00000000 	nop
    535c:	00000000 	nop
    5360:	00000000 	nop
    5364:	00000000 	nop
    5368:	00000000 	nop
    536c:	00000000 	nop
    5370:	00000000 	nop
    5374:	00000000 	nop
    5378:	00000000 	nop
    537c:	00000000 	nop
    5380:	00000000 	nop
    5384:	00000000 	nop
    5388:	00000000 	nop
    538c:	00000000 	nop
    5390:	00000000 	nop
    5394:	00000000 	nop
    5398:	00000000 	nop
    539c:	00000000 	nop
    53a0:	00000000 	nop
    53a4:	00000000 	nop
    53a8:	00000000 	nop
    53ac:	00000000 	nop
    53b0:	00000000 	nop
    53b4:	00000000 	nop
    53b8:	00000000 	nop
    53bc:	00000000 	nop
    53c0:	00000000 	nop
    53c4:	00000000 	nop
    53c8:	00000000 	nop
    53cc:	00000000 	nop
    53d0:	00000000 	nop
    53d4:	00000000 	nop
    53d8:	00000000 	nop
    53dc:	00000000 	nop
    53e0:	00000000 	nop
    53e4:	00000000 	nop
    53e8:	00000000 	nop
    53ec:	00000000 	nop
    53f0:	00000000 	nop
    53f4:	00000000 	nop
    53f8:	00000000 	nop
    53fc:	00000000 	nop
    5400:	00000000 	nop
    5404:	00000000 	nop
    5408:	00000000 	nop
    540c:	00000000 	nop
    5410:	00000000 	nop
    5414:	00000000 	nop
    5418:	00000000 	nop
    541c:	00000000 	nop
    5420:	00000000 	nop
    5424:	00000000 	nop
    5428:	00000000 	nop
    542c:	00000000 	nop
    5430:	00000000 	nop
    5434:	00000000 	nop
    5438:	00000000 	nop
    543c:	00000000 	nop
    5440:	00000000 	nop
    5444:	00000000 	nop
    5448:	00000000 	nop
    544c:	00000000 	nop
    5450:	00000000 	nop
    5454:	00000000 	nop
    5458:	00000000 	nop
    545c:	00000000 	nop
    5460:	00000000 	nop
    5464:	00000000 	nop
    5468:	00000000 	nop
    546c:	00000000 	nop
    5470:	00000000 	nop
    5474:	00000000 	nop
    5478:	00000000 	nop
    547c:	00000000 	nop
    5480:	00000000 	nop
    5484:	00000000 	nop
    5488:	00000000 	nop
    548c:	00000000 	nop
    5490:	00000000 	nop
    5494:	00000000 	nop
    5498:	00000000 	nop
    549c:	00000000 	nop
    54a0:	00000000 	nop
    54a4:	00000000 	nop
    54a8:	00000000 	nop
    54ac:	00000000 	nop
    54b0:	00000000 	nop
    54b4:	00000000 	nop
    54b8:	00000000 	nop
    54bc:	00000000 	nop
    54c0:	00000000 	nop
    54c4:	00000000 	nop
    54c8:	00000000 	nop
    54cc:	00000000 	nop
    54d0:	00000000 	nop
    54d4:	00000000 	nop
    54d8:	00000000 	nop
    54dc:	00000000 	nop
    54e0:	00000000 	nop
    54e4:	00000000 	nop
    54e8:	00000000 	nop
    54ec:	00000000 	nop
    54f0:	00000000 	nop
    54f4:	00000000 	nop
    54f8:	00000000 	nop
    54fc:	00000000 	nop
    5500:	00000000 	nop
    5504:	00000000 	nop
    5508:	00000000 	nop
    550c:	00000000 	nop
    5510:	00000000 	nop
    5514:	00000000 	nop
    5518:	00000000 	nop
    551c:	00000000 	nop
    5520:	00000000 	nop
    5524:	00000000 	nop
    5528:	00000000 	nop
    552c:	00000000 	nop
    5530:	00000000 	nop
    5534:	00000000 	nop
    5538:	00000000 	nop
    553c:	00000000 	nop
    5540:	00000000 	nop
    5544:	00000000 	nop
    5548:	00000000 	nop
    554c:	00000000 	nop
    5550:	00000000 	nop
    5554:	00000000 	nop
    5558:	00000000 	nop
    555c:	00000000 	nop
    5560:	00000000 	nop
    5564:	00000000 	nop
    5568:	00000000 	nop
    556c:	00000000 	nop
    5570:	00000000 	nop
    5574:	00000000 	nop
    5578:	00000000 	nop
    557c:	00000000 	nop
    5580:	00000000 	nop
    5584:	00000000 	nop
    5588:	00000000 	nop
    558c:	00000000 	nop
    5590:	00000000 	nop
    5594:	00000000 	nop
    5598:	00000000 	nop
    559c:	00000000 	nop
    55a0:	00000000 	nop
    55a4:	00000000 	nop
    55a8:	00000000 	nop
    55ac:	00000000 	nop
    55b0:	00000000 	nop
    55b4:	00000000 	nop
    55b8:	00000000 	nop
    55bc:	00000000 	nop
    55c0:	00000000 	nop
    55c4:	00000000 	nop
    55c8:	00000000 	nop
    55cc:	00000000 	nop
    55d0:	00000000 	nop
    55d4:	00000000 	nop
    55d8:	00000000 	nop
    55dc:	00000000 	nop
    55e0:	00000000 	nop
    55e4:	00000000 	nop
    55e8:	00000000 	nop
    55ec:	00000000 	nop
    55f0:	00000000 	nop
    55f4:	00000000 	nop
    55f8:	00000000 	nop
    55fc:	00000000 	nop
    5600:	00000000 	nop
    5604:	00000000 	nop
    5608:	00000000 	nop
    560c:	00000000 	nop
    5610:	00000000 	nop
    5614:	00000000 	nop
    5618:	00000000 	nop
    561c:	00000000 	nop
    5620:	00000000 	nop
    5624:	00000000 	nop
    5628:	00000000 	nop
    562c:	00000000 	nop
    5630:	00000000 	nop
    5634:	00000000 	nop
    5638:	00000000 	nop
    563c:	00000000 	nop
    5640:	00000000 	nop
    5644:	00000000 	nop
    5648:	00000000 	nop
    564c:	00000000 	nop
    5650:	00000000 	nop
    5654:	00000000 	nop
    5658:	00000000 	nop
    565c:	00000000 	nop
    5660:	00000000 	nop
    5664:	00000000 	nop
    5668:	00000000 	nop
    566c:	00000000 	nop
    5670:	00000000 	nop
    5674:	00000000 	nop
    5678:	00000000 	nop
    567c:	00000000 	nop
    5680:	00000000 	nop
    5684:	00000000 	nop
    5688:	00000000 	nop
    568c:	00000000 	nop
    5690:	00000000 	nop
    5694:	00000000 	nop
    5698:	00000000 	nop
    569c:	00000000 	nop
    56a0:	00000000 	nop
    56a4:	00000000 	nop
    56a8:	00000000 	nop
    56ac:	00000000 	nop
    56b0:	00000000 	nop
    56b4:	00000000 	nop
    56b8:	00000000 	nop
    56bc:	00000000 	nop
    56c0:	00000000 	nop
    56c4:	00000000 	nop
    56c8:	00000000 	nop
    56cc:	00000000 	nop
    56d0:	00000000 	nop
    56d4:	00000000 	nop
    56d8:	00000000 	nop
    56dc:	00000000 	nop
    56e0:	00000000 	nop
    56e4:	00000000 	nop
    56e8:	00000000 	nop
    56ec:	00000000 	nop
    56f0:	00000000 	nop
    56f4:	00000000 	nop
    56f8:	00000000 	nop
    56fc:	00000000 	nop
    5700:	00000000 	nop
    5704:	00000000 	nop
    5708:	00000000 	nop
    570c:	00000000 	nop
    5710:	00000000 	nop
    5714:	00000000 	nop
    5718:	00000000 	nop
    571c:	00000000 	nop
    5720:	00000000 	nop
    5724:	00000000 	nop
    5728:	00000000 	nop
    572c:	00000000 	nop
    5730:	00000000 	nop
    5734:	00000000 	nop
    5738:	00000000 	nop
    573c:	00000000 	nop
    5740:	00000000 	nop
    5744:	00000000 	nop
    5748:	00000000 	nop
    574c:	00000000 	nop
    5750:	00000000 	nop
    5754:	00000000 	nop
    5758:	00000000 	nop
    575c:	00000000 	nop
    5760:	00000000 	nop
    5764:	00000000 	nop
    5768:	00000000 	nop
    576c:	00000000 	nop
    5770:	00000000 	nop
    5774:	00000000 	nop
    5778:	00000000 	nop
    577c:	00000000 	nop
    5780:	00000000 	nop
    5784:	00000000 	nop
    5788:	00000000 	nop
    578c:	00000000 	nop
    5790:	00000000 	nop
    5794:	00000000 	nop
    5798:	00000000 	nop
    579c:	00000000 	nop
    57a0:	00000000 	nop
    57a4:	00000000 	nop
    57a8:	00000000 	nop
    57ac:	00000000 	nop
    57b0:	00000000 	nop
    57b4:	00000000 	nop
    57b8:	00000000 	nop
    57bc:	00000000 	nop
    57c0:	00000000 	nop
    57c4:	00000000 	nop
    57c8:	00000000 	nop
    57cc:	00000000 	nop
    57d0:	00000000 	nop
    57d4:	00000000 	nop
    57d8:	00000000 	nop
    57dc:	00000000 	nop
    57e0:	00000000 	nop
    57e4:	00000000 	nop
    57e8:	00000000 	nop
    57ec:	00000000 	nop
    57f0:	00000000 	nop
    57f4:	00000000 	nop
    57f8:	00000000 	nop
    57fc:	00000000 	nop
    5800:	00000000 	nop
    5804:	00000000 	nop
    5808:	00000000 	nop
    580c:	00000000 	nop
    5810:	00000000 	nop
    5814:	00000000 	nop
    5818:	00000000 	nop
    581c:	00000000 	nop
    5820:	00000000 	nop
    5824:	00000000 	nop
    5828:	00000000 	nop
    582c:	00000000 	nop
    5830:	00000000 	nop
    5834:	00000000 	nop
    5838:	00000000 	nop
    583c:	00000000 	nop
    5840:	00000000 	nop
    5844:	00000000 	nop
    5848:	00000000 	nop
    584c:	00000000 	nop
    5850:	00000000 	nop
    5854:	00000000 	nop
    5858:	00000000 	nop
    585c:	00000000 	nop
    5860:	00000000 	nop
    5864:	00000000 	nop
    5868:	00000000 	nop
    586c:	00000000 	nop
    5870:	00000000 	nop
    5874:	00000000 	nop
    5878:	00000000 	nop
    587c:	00000000 	nop
    5880:	00000000 	nop
    5884:	00000000 	nop
    5888:	00000000 	nop
    588c:	00000000 	nop
    5890:	00000000 	nop
    5894:	00000000 	nop
    5898:	00000000 	nop
    589c:	00000000 	nop
    58a0:	00000000 	nop
    58a4:	00000000 	nop
    58a8:	00000000 	nop
    58ac:	00000000 	nop
    58b0:	00000000 	nop
    58b4:	00000000 	nop
    58b8:	00000000 	nop
    58bc:	00000000 	nop
    58c0:	00000000 	nop
    58c4:	00000000 	nop
    58c8:	00000000 	nop
    58cc:	00000000 	nop
    58d0:	00000000 	nop
    58d4:	00000000 	nop
    58d8:	00000000 	nop
    58dc:	00000000 	nop
    58e0:	00000000 	nop
    58e4:	00000000 	nop
    58e8:	00000000 	nop
    58ec:	00000000 	nop
    58f0:	00000000 	nop
    58f4:	00000000 	nop
    58f8:	00000000 	nop
    58fc:	00000000 	nop
    5900:	00000000 	nop
    5904:	00000000 	nop
    5908:	00000000 	nop
    590c:	00000000 	nop
    5910:	00000000 	nop
    5914:	00000000 	nop
    5918:	00000000 	nop
    591c:	00000000 	nop
    5920:	00000000 	nop
    5924:	00000000 	nop
    5928:	00000000 	nop
    592c:	00000000 	nop
    5930:	00000000 	nop
    5934:	00000000 	nop
    5938:	00000000 	nop
    593c:	00000000 	nop
    5940:	00000000 	nop
    5944:	00000000 	nop
    5948:	00000000 	nop
    594c:	00000000 	nop
    5950:	00000000 	nop
    5954:	00000000 	nop
    5958:	00000000 	nop
    595c:	00000000 	nop
    5960:	00000000 	nop
    5964:	00000000 	nop
    5968:	00000000 	nop
    596c:	00000000 	nop
    5970:	00000000 	nop
    5974:	00000000 	nop
    5978:	00000000 	nop
    597c:	00000000 	nop
    5980:	00000000 	nop
    5984:	00000000 	nop
    5988:	00000000 	nop
    598c:	00000000 	nop
    5990:	00000000 	nop
    5994:	00000000 	nop
    5998:	00000000 	nop
    599c:	00000000 	nop
    59a0:	00000000 	nop
    59a4:	00000000 	nop
    59a8:	00000000 	nop
    59ac:	00000000 	nop
    59b0:	00000000 	nop
    59b4:	00000000 	nop
    59b8:	00000000 	nop
    59bc:	00000000 	nop
    59c0:	00000000 	nop
    59c4:	00000000 	nop
    59c8:	00000000 	nop
    59cc:	00000000 	nop
    59d0:	00000000 	nop
    59d4:	00000000 	nop
    59d8:	00000000 	nop
    59dc:	00000000 	nop
    59e0:	00000000 	nop
    59e4:	00000000 	nop
    59e8:	00000000 	nop
    59ec:	00000000 	nop
    59f0:	00000000 	nop
    59f4:	00000000 	nop
    59f8:	00000000 	nop
    59fc:	00000000 	nop
    5a00:	00000000 	nop
    5a04:	00000000 	nop
    5a08:	00000000 	nop
    5a0c:	00000000 	nop
    5a10:	00000000 	nop
    5a14:	00000000 	nop
    5a18:	00000000 	nop
    5a1c:	00000000 	nop
    5a20:	00000000 	nop
    5a24:	00000000 	nop
    5a28:	00000000 	nop
    5a2c:	00000000 	nop
    5a30:	00000000 	nop
    5a34:	00000000 	nop
    5a38:	00000000 	nop
    5a3c:	00000000 	nop
    5a40:	00000000 	nop
    5a44:	00000000 	nop
    5a48:	00000000 	nop
    5a4c:	00000000 	nop
    5a50:	00000000 	nop
    5a54:	00000000 	nop
    5a58:	00000000 	nop
    5a5c:	00000000 	nop
    5a60:	00000000 	nop
    5a64:	00000000 	nop
    5a68:	00000000 	nop
    5a6c:	00000000 	nop
    5a70:	00000000 	nop
    5a74:	00000000 	nop
    5a78:	00000000 	nop
    5a7c:	00000000 	nop
    5a80:	00000000 	nop
    5a84:	00000000 	nop
    5a88:	00000000 	nop
    5a8c:	00000000 	nop
    5a90:	00000000 	nop
    5a94:	00000000 	nop
    5a98:	00000000 	nop
    5a9c:	00000000 	nop
    5aa0:	00000000 	nop
    5aa4:	00000000 	nop
    5aa8:	00000000 	nop
    5aac:	00000000 	nop
    5ab0:	00000000 	nop
    5ab4:	00000000 	nop
    5ab8:	00000000 	nop
    5abc:	00000000 	nop
    5ac0:	00000000 	nop
    5ac4:	00000000 	nop
    5ac8:	00000000 	nop
    5acc:	00000000 	nop
    5ad0:	00000000 	nop
    5ad4:	00000000 	nop
    5ad8:	00000000 	nop
    5adc:	00000000 	nop
    5ae0:	00000000 	nop
    5ae4:	00000000 	nop
    5ae8:	00000000 	nop
    5aec:	00000000 	nop
    5af0:	00000000 	nop
    5af4:	00000000 	nop
    5af8:	00000000 	nop
    5afc:	00000000 	nop
    5b00:	00000000 	nop
    5b04:	00000000 	nop
    5b08:	00000000 	nop
    5b0c:	00000000 	nop
    5b10:	00000000 	nop
    5b14:	00000000 	nop
    5b18:	00000000 	nop
    5b1c:	00000000 	nop
    5b20:	00000000 	nop
    5b24:	00000000 	nop
    5b28:	00000000 	nop
    5b2c:	00000000 	nop
    5b30:	00000000 	nop
    5b34:	00000000 	nop
    5b38:	00000000 	nop
    5b3c:	00000000 	nop
    5b40:	00000000 	nop
    5b44:	00000000 	nop
    5b48:	00000000 	nop
    5b4c:	00000000 	nop
    5b50:	00000000 	nop
    5b54:	00000000 	nop
    5b58:	00000000 	nop
    5b5c:	00000000 	nop
    5b60:	00000000 	nop
    5b64:	00000000 	nop
    5b68:	00000000 	nop
    5b6c:	00000000 	nop
    5b70:	00000000 	nop
    5b74:	00000000 	nop
    5b78:	00000000 	nop
    5b7c:	00000000 	nop
    5b80:	00000000 	nop
    5b84:	00000000 	nop
    5b88:	00000000 	nop
    5b8c:	00000000 	nop
    5b90:	00000000 	nop
    5b94:	00000000 	nop
    5b98:	00000000 	nop
    5b9c:	00000000 	nop
    5ba0:	00000000 	nop
    5ba4:	00000000 	nop
    5ba8:	00000000 	nop
    5bac:	00000000 	nop
    5bb0:	00000000 	nop
    5bb4:	00000000 	nop
    5bb8:	00000000 	nop
    5bbc:	00000000 	nop
    5bc0:	00000000 	nop
    5bc4:	00000000 	nop
    5bc8:	00000000 	nop
    5bcc:	00000000 	nop
    5bd0:	00000000 	nop
    5bd4:	00000000 	nop
    5bd8:	00000000 	nop
    5bdc:	00000000 	nop
    5be0:	00000000 	nop
    5be4:	00000000 	nop
    5be8:	00000000 	nop
    5bec:	00000000 	nop
    5bf0:	00000000 	nop
    5bf4:	00000000 	nop
    5bf8:	00000000 	nop
    5bfc:	00000000 	nop
    5c00:	00000000 	nop
    5c04:	00000000 	nop
    5c08:	00000000 	nop
    5c0c:	00000000 	nop
    5c10:	00000000 	nop
    5c14:	00000000 	nop
    5c18:	00000000 	nop
    5c1c:	00000000 	nop
    5c20:	00000000 	nop
    5c24:	00000000 	nop
    5c28:	00000000 	nop
    5c2c:	00000000 	nop
    5c30:	00000000 	nop
    5c34:	00000000 	nop
    5c38:	00000000 	nop
    5c3c:	00000000 	nop
    5c40:	00000000 	nop
    5c44:	00000000 	nop
    5c48:	00000000 	nop
    5c4c:	00000000 	nop
    5c50:	00000000 	nop
    5c54:	00000000 	nop
    5c58:	00000000 	nop
    5c5c:	00000000 	nop
    5c60:	00000000 	nop
    5c64:	00000000 	nop
    5c68:	00000000 	nop
    5c6c:	00000000 	nop
    5c70:	00000000 	nop
    5c74:	00000000 	nop
    5c78:	00000000 	nop
    5c7c:	00000000 	nop
    5c80:	00000000 	nop
    5c84:	00000000 	nop
    5c88:	00000000 	nop
    5c8c:	00000000 	nop
    5c90:	00000000 	nop
    5c94:	00000000 	nop
    5c98:	00000000 	nop
    5c9c:	00000000 	nop
    5ca0:	00000000 	nop
    5ca4:	00000000 	nop
    5ca8:	00000000 	nop
    5cac:	00000000 	nop
    5cb0:	00000000 	nop
    5cb4:	00000000 	nop
    5cb8:	00000000 	nop
    5cbc:	00000000 	nop
    5cc0:	00000000 	nop
    5cc4:	00000000 	nop
    5cc8:	00000000 	nop
    5ccc:	00000000 	nop
    5cd0:	00000000 	nop
    5cd4:	00000000 	nop
    5cd8:	00000000 	nop
    5cdc:	00000000 	nop
    5ce0:	00000000 	nop
    5ce4:	00000000 	nop
    5ce8:	00000000 	nop
    5cec:	00000000 	nop
    5cf0:	00000000 	nop
    5cf4:	00000000 	nop
    5cf8:	00000000 	nop
    5cfc:	00000000 	nop
    5d00:	00000000 	nop
    5d04:	00000000 	nop
    5d08:	00000000 	nop
    5d0c:	00000000 	nop
    5d10:	00000000 	nop
    5d14:	00000000 	nop
    5d18:	00000000 	nop
    5d1c:	00000000 	nop
    5d20:	00000000 	nop
    5d24:	00000000 	nop
    5d28:	00000000 	nop
    5d2c:	00000000 	nop
    5d30:	00000000 	nop
    5d34:	00000000 	nop
    5d38:	00000000 	nop
    5d3c:	00000000 	nop
    5d40:	00000000 	nop
    5d44:	00000000 	nop
    5d48:	00000000 	nop
    5d4c:	00000000 	nop
    5d50:	00000000 	nop
    5d54:	00000000 	nop
    5d58:	00000000 	nop
    5d5c:	00000000 	nop
    5d60:	00000000 	nop
    5d64:	00000000 	nop
    5d68:	00000000 	nop
    5d6c:	00000000 	nop
    5d70:	00000000 	nop
    5d74:	00000000 	nop
    5d78:	00000000 	nop
    5d7c:	00000000 	nop
    5d80:	00000000 	nop
    5d84:	00000000 	nop
    5d88:	00000000 	nop
    5d8c:	00000000 	nop
    5d90:	00000000 	nop
    5d94:	00000000 	nop
    5d98:	00000000 	nop
    5d9c:	00000000 	nop
    5da0:	00000000 	nop
    5da4:	00000000 	nop
    5da8:	00000000 	nop
    5dac:	00000000 	nop
    5db0:	00000000 	nop
    5db4:	00000000 	nop
    5db8:	00000000 	nop
    5dbc:	00000000 	nop
    5dc0:	00000000 	nop
    5dc4:	00000000 	nop
    5dc8:	00000000 	nop
    5dcc:	00000000 	nop
    5dd0:	00000000 	nop
    5dd4:	00000000 	nop
    5dd8:	00000000 	nop
    5ddc:	00000000 	nop
    5de0:	00000000 	nop
    5de4:	00000000 	nop
    5de8:	00000000 	nop
    5dec:	00000000 	nop
    5df0:	00000000 	nop
    5df4:	00000000 	nop
    5df8:	00000000 	nop
    5dfc:	00000000 	nop
    5e00:	00000000 	nop
    5e04:	00000000 	nop
    5e08:	00000000 	nop
    5e0c:	00000000 	nop
    5e10:	00000000 	nop
    5e14:	00000000 	nop
    5e18:	00000000 	nop
    5e1c:	00000000 	nop
    5e20:	00000000 	nop
    5e24:	00000000 	nop
    5e28:	00000000 	nop
    5e2c:	00000000 	nop
    5e30:	00000000 	nop
    5e34:	00000000 	nop
    5e38:	00000000 	nop
    5e3c:	00000000 	nop
    5e40:	00000000 	nop
    5e44:	00000000 	nop
    5e48:	00000000 	nop
    5e4c:	00000000 	nop
    5e50:	00000000 	nop
    5e54:	00000000 	nop
    5e58:	00000000 	nop
    5e5c:	00000000 	nop
    5e60:	00000000 	nop
    5e64:	00000000 	nop
    5e68:	00000000 	nop
    5e6c:	00000000 	nop
    5e70:	00000000 	nop
    5e74:	00000000 	nop
    5e78:	00000000 	nop
    5e7c:	00000000 	nop
    5e80:	00000000 	nop
    5e84:	00000000 	nop
    5e88:	00000000 	nop
    5e8c:	00000000 	nop
    5e90:	00000000 	nop
    5e94:	00000000 	nop
    5e98:	00000000 	nop
    5e9c:	00000000 	nop
    5ea0:	00000000 	nop
    5ea4:	00000000 	nop
    5ea8:	00000000 	nop
    5eac:	00000000 	nop
    5eb0:	00000000 	nop
    5eb4:	00000000 	nop
    5eb8:	00000000 	nop
    5ebc:	00000000 	nop
    5ec0:	00000000 	nop
    5ec4:	00000000 	nop
    5ec8:	00000000 	nop
    5ecc:	00000000 	nop
    5ed0:	00000000 	nop
    5ed4:	00000000 	nop
    5ed8:	00000000 	nop
    5edc:	00000000 	nop
    5ee0:	00000000 	nop
    5ee4:	00000000 	nop
    5ee8:	00000000 	nop
    5eec:	00000000 	nop
    5ef0:	00000000 	nop
    5ef4:	00000000 	nop
    5ef8:	00000000 	nop
    5efc:	00000000 	nop
    5f00:	00000000 	nop
    5f04:	00000000 	nop
    5f08:	00000000 	nop
    5f0c:	00000000 	nop
    5f10:	00000000 	nop
    5f14:	00000000 	nop
    5f18:	00000000 	nop
    5f1c:	00000000 	nop
    5f20:	00000000 	nop
    5f24:	00000000 	nop
    5f28:	00000000 	nop
    5f2c:	00000000 	nop
    5f30:	00000000 	nop
    5f34:	00000000 	nop
    5f38:	00000000 	nop
    5f3c:	00000000 	nop
    5f40:	00000000 	nop
    5f44:	00000000 	nop
    5f48:	00000000 	nop
    5f4c:	00000000 	nop
    5f50:	00000000 	nop
    5f54:	00000000 	nop
    5f58:	00000000 	nop
    5f5c:	00000000 	nop
    5f60:	00000000 	nop
    5f64:	00000000 	nop
    5f68:	00000000 	nop
    5f6c:	00000000 	nop
    5f70:	00000000 	nop
    5f74:	00000000 	nop
    5f78:	00000000 	nop
    5f7c:	00000000 	nop
    5f80:	00000000 	nop
    5f84:	00000000 	nop
    5f88:	00000000 	nop
    5f8c:	00000000 	nop
    5f90:	00000000 	nop
    5f94:	00000000 	nop
    5f98:	00000000 	nop
    5f9c:	00000000 	nop
    5fa0:	00000000 	nop
    5fa4:	00000000 	nop
    5fa8:	00000000 	nop
    5fac:	00000000 	nop
    5fb0:	00000000 	nop
    5fb4:	00000000 	nop
    5fb8:	00000000 	nop
    5fbc:	00000000 	nop
    5fc0:	00000000 	nop
    5fc4:	00000000 	nop
    5fc8:	00000000 	nop
    5fcc:	00000000 	nop
    5fd0:	00000000 	nop
    5fd4:	00000000 	nop
    5fd8:	00000000 	nop
    5fdc:	00000000 	nop
    5fe0:	00000000 	nop
    5fe4:	00000000 	nop
    5fe8:	00000000 	nop
    5fec:	00000000 	nop
    5ff0:	00000000 	nop
    5ff4:	00000000 	nop
    5ff8:	00000000 	nop
    5ffc:	00000000 	nop
    6000:	00000000 	nop
    6004:	00000000 	nop
    6008:	00000000 	nop
    600c:	00000000 	nop
    6010:	00000000 	nop
    6014:	00000000 	nop
    6018:	00000000 	nop
    601c:	00000000 	nop
    6020:	00000000 	nop
    6024:	00000000 	nop
    6028:	00000000 	nop
    602c:	00000000 	nop
    6030:	00000000 	nop
    6034:	00000000 	nop
    6038:	00000000 	nop
    603c:	00000000 	nop
    6040:	00000000 	nop
    6044:	00000000 	nop
    6048:	00000000 	nop
    604c:	00000000 	nop
    6050:	00000000 	nop
    6054:	00000000 	nop
    6058:	00000000 	nop
    605c:	00000000 	nop
    6060:	00000000 	nop
    6064:	00000000 	nop
    6068:	00000000 	nop
    606c:	00000000 	nop
    6070:	00000000 	nop
    6074:	00000000 	nop
    6078:	00000000 	nop
    607c:	00000000 	nop
    6080:	00000000 	nop
    6084:	00000000 	nop
    6088:	00000000 	nop
    608c:	00000000 	nop
    6090:	00000000 	nop
    6094:	00000000 	nop
    6098:	00000000 	nop
    609c:	00000000 	nop
    60a0:	00000000 	nop
    60a4:	00000000 	nop
    60a8:	00000000 	nop
    60ac:	00000000 	nop
    60b0:	00000000 	nop
    60b4:	00000000 	nop
    60b8:	00000000 	nop
    60bc:	00000000 	nop
    60c0:	00000000 	nop
    60c4:	00000000 	nop
    60c8:	00000000 	nop
    60cc:	00000000 	nop
    60d0:	00000000 	nop
    60d4:	00000000 	nop
    60d8:	00000000 	nop
    60dc:	00000000 	nop
    60e0:	00000000 	nop
    60e4:	00000000 	nop
    60e8:	00000000 	nop
    60ec:	00000000 	nop
    60f0:	00000000 	nop
    60f4:	00000000 	nop
    60f8:	00000000 	nop
    60fc:	00000000 	nop
    6100:	00000000 	nop
    6104:	00000000 	nop
    6108:	00000000 	nop
    610c:	00000000 	nop
    6110:	00000000 	nop
    6114:	00000000 	nop
    6118:	00000000 	nop
    611c:	00000000 	nop
    6120:	00000000 	nop
    6124:	00000000 	nop
    6128:	00000000 	nop
    612c:	00000000 	nop
    6130:	00000000 	nop
    6134:	00000000 	nop
    6138:	00000000 	nop
    613c:	00000000 	nop
    6140:	00000000 	nop
    6144:	00000000 	nop
    6148:	00000000 	nop
    614c:	00000000 	nop
    6150:	00000000 	nop
    6154:	00000000 	nop
    6158:	00000000 	nop
    615c:	00000000 	nop
    6160:	00000000 	nop
    6164:	00000000 	nop
    6168:	00000000 	nop
    616c:	00000000 	nop
    6170:	00000000 	nop
    6174:	00000000 	nop
    6178:	00000000 	nop
    617c:	00000000 	nop
    6180:	00000000 	nop
    6184:	00000000 	nop
    6188:	00000000 	nop
    618c:	00000000 	nop
    6190:	00000000 	nop
    6194:	00000000 	nop
    6198:	00000000 	nop
    619c:	00000000 	nop
    61a0:	00000000 	nop
    61a4:	00000000 	nop
    61a8:	00000000 	nop
    61ac:	00000000 	nop
    61b0:	00000000 	nop
    61b4:	00000000 	nop
    61b8:	00000000 	nop
    61bc:	00000000 	nop
    61c0:	00000000 	nop
    61c4:	00000000 	nop
    61c8:	00000000 	nop
    61cc:	00000000 	nop
    61d0:	00000000 	nop
    61d4:	00000000 	nop
    61d8:	00000000 	nop
    61dc:	00000000 	nop
    61e0:	00000000 	nop
    61e4:	00000000 	nop
    61e8:	00000000 	nop
    61ec:	00000000 	nop
    61f0:	00000000 	nop
    61f4:	00000000 	nop
    61f8:	00000000 	nop
    61fc:	00000000 	nop
    6200:	00000000 	nop
    6204:	00000000 	nop
    6208:	00000000 	nop
    620c:	00000000 	nop
    6210:	00000000 	nop
    6214:	00000000 	nop
    6218:	00000000 	nop
    621c:	00000000 	nop
    6220:	00000000 	nop
    6224:	00000000 	nop
    6228:	00000000 	nop
    622c:	00000000 	nop
    6230:	00000000 	nop
    6234:	00000000 	nop
    6238:	00000000 	nop
    623c:	00000000 	nop
    6240:	00000000 	nop
    6244:	00000000 	nop
    6248:	00000000 	nop
    624c:	00000000 	nop
    6250:	00000000 	nop
    6254:	00000000 	nop
    6258:	00000000 	nop
    625c:	00000000 	nop
    6260:	00000000 	nop
    6264:	00000000 	nop
    6268:	00000000 	nop
    626c:	00000000 	nop
    6270:	00000000 	nop
    6274:	00000000 	nop
    6278:	00000000 	nop
    627c:	00000000 	nop
    6280:	00000000 	nop
    6284:	00000000 	nop
    6288:	00000000 	nop
    628c:	00000000 	nop
    6290:	00000000 	nop
    6294:	00000000 	nop
    6298:	00000000 	nop
    629c:	00000000 	nop
    62a0:	00000000 	nop
    62a4:	00000000 	nop
    62a8:	00000000 	nop
    62ac:	00000000 	nop
    62b0:	00000000 	nop
    62b4:	00000000 	nop
    62b8:	00000000 	nop
    62bc:	00000000 	nop
    62c0:	00000000 	nop
    62c4:	00000000 	nop
    62c8:	00000000 	nop
    62cc:	00000000 	nop
    62d0:	00000000 	nop
    62d4:	00000000 	nop
    62d8:	00000000 	nop
    62dc:	00000000 	nop
    62e0:	00000000 	nop
    62e4:	00000000 	nop
    62e8:	00000000 	nop
    62ec:	00000000 	nop
    62f0:	00000000 	nop
    62f4:	00000000 	nop
    62f8:	00000000 	nop
    62fc:	00000000 	nop
    6300:	00000000 	nop
    6304:	00000000 	nop
    6308:	00000000 	nop
    630c:	00000000 	nop
    6310:	00000000 	nop
    6314:	00000000 	nop
    6318:	00000000 	nop
    631c:	00000000 	nop
    6320:	00000000 	nop
    6324:	00000000 	nop
    6328:	00000000 	nop
    632c:	00000000 	nop
    6330:	00000000 	nop
    6334:	00000000 	nop
    6338:	00000000 	nop
    633c:	00000000 	nop
    6340:	00000000 	nop
    6344:	00000000 	nop
    6348:	00000000 	nop
    634c:	00000000 	nop
    6350:	00000000 	nop
    6354:	00000000 	nop
    6358:	00000000 	nop
    635c:	00000000 	nop
    6360:	00000000 	nop
    6364:	00000000 	nop
    6368:	00000000 	nop
    636c:	00000000 	nop
    6370:	00000000 	nop
    6374:	00000000 	nop
    6378:	00000000 	nop
    637c:	00000000 	nop

セクション .backup の逆アセンブル:

00006380 <__sbackup>:
    6380:	00000080 	sll	zero,zero,0x2
    6384:	00000004 	sllv	zero,zero,zero
    6388:	00000002 	srl	zero,zero,0x0
    638c:	00000018 	mult	zero,zero
    6390:	00000056 	0x56
    6394:	00000018 	mult	zero,zero
    6398:	0000002e 	0x2e
    639c:	0000001e 	0x1e
    63a0:	00000003 	sra	zero,zero,0x0
    63a4:	00000002 	srl	zero,zero,0x0
    63a8:	ffffffff 	0xffffffff
    63ac:	ffffffff 	0xffffffff
    63b0:	00000002 	srl	zero,zero,0x0
    63b4:	00000014 	0x14
    63b8:	00000002 	srl	zero,zero,0x0
    63bc:	00000024 	and	zero,zero,zero
    63c0:	0000002e 	0x2e
    63c4:	0000001a 	div	zero,zero,zero
    63c8:	00000003 	sra	zero,zero,0x0
    63cc:	00000002 	srl	zero,zero,0x0
    63d0:	00000003 	sra	zero,zero,0x0
