
program.bin:     ファイル形式 elf32-bigmips


セクション .text の逆アセンブル:

00000000 <__start__>:
       0:	3c1d0000 	lui	sp,0x0
       4:	37bdff00 	ori	sp,sp,0xff00
       8:	241c0000 	li	gp,0
       c:	3c1a0200 	lui	k0,0x200
      10:	375a0101 	ori	k0,k0,0x101
      14:	409a6000 	mtc0	k0,c0_sr
      18:	00000000 	nop
      1c:	00000000 	nop

00000020 <__reset__>:
      20:	27bdfff0 	addiu	sp,sp,-16
      24:	afbe000c 	sw	s8,12(sp)
      28:	03a0f025 	move	s8,sp
      2c:	3c020001 	lui	v0,0x1
      30:	244283a4 	addiu	v0,v0,-31836
      34:	afc20000 	sw	v0,0(s8)
      38:	3c020000 	lui	v0,0x0
      3c:	24426ad8 	addiu	v0,v0,27352
      40:	1000000c 	b	74 <__reset__+0x54>
      44:	afc20004 	sw	v0,4(s8)
      48:	8fc30000 	lw	v1,0(s8)
      4c:	00000000 	nop
      50:	24620004 	addiu	v0,v1,4
      54:	afc20000 	sw	v0,0(s8)
      58:	8fc20004 	lw	v0,4(s8)
      5c:	00000000 	nop
      60:	24440004 	addiu	a0,v0,4
      64:	afc40004 	sw	a0,4(s8)
      68:	8c630000 	lw	v1,0(v1)
      6c:	00000000 	nop
      70:	ac430000 	sw	v1,0(v0)
      74:	8fc30004 	lw	v1,4(s8)
      78:	3c020000 	lui	v0,0x0
      7c:	24426b44 	addiu	v0,v0,27460
      80:	0062102b 	sltu	v0,v1,v0
      84:	1440fff0 	bnez	v0,48 <__reset__+0x28>
      88:	00000000 	nop
      8c:	3c020000 	lui	v0,0x0
      90:	24426b44 	addiu	v0,v0,27460
      94:	10000008 	b	b8 <__reset__+0x98>
      98:	afc20004 	sw	v0,4(s8)
      9c:	8fc20004 	lw	v0,4(s8)
      a0:	00000000 	nop
      a4:	ac400000 	sw	zero,0(v0)
      a8:	8fc20004 	lw	v0,4(s8)
      ac:	00000000 	nop
      b0:	24420004 	addiu	v0,v0,4
      b4:	afc20004 	sw	v0,4(s8)
      b8:	8fc30004 	lw	v1,4(s8)
      bc:	3c020000 	lui	v0,0x0
      c0:	24426ba4 	addiu	v0,v0,27556
      c4:	0062102b 	sltu	v0,v1,v0
      c8:	1440fff4 	bnez	v0,9c <__reset__+0x7c>
      cc:	00000000 	nop
      d0:	080003ec 	j	fb0 <main>
      d4:	00000000 	nop
      d8:	00000000 	nop
      dc:	03c0e825 	move	sp,s8
      e0:	8fbe000c 	lw	s8,12(sp)
      e4:	03e00008 	jr	ra
      e8:	27bd0010 	addiu	sp,sp,16
      ec:	00000000 	nop
      f0:	00000000 	nop
      f4:	00000000 	nop
      f8:	00000000 	nop
      fc:	00000000 	nop

00000100 <__vector__>:
     100:	03a0d025 	move	k0,sp
     104:	3c1d0000 	lui	sp,0x0
     108:	37bdc000 	ori	sp,sp,0xc000
     10c:	27bdff80 	addiu	sp,sp,-128
     110:	afba007c 	sw	k0,124(sp)
     114:	afa10078 	sw	at,120(sp)
     118:	afa20074 	sw	v0,116(sp)
     11c:	afa30070 	sw	v1,112(sp)
     120:	afa4006c 	sw	a0,108(sp)
     124:	afa50068 	sw	a1,104(sp)
     128:	afa60064 	sw	a2,100(sp)
     12c:	afa70060 	sw	a3,96(sp)
     130:	afa8005c 	sw	t0,92(sp)
     134:	afa90058 	sw	t1,88(sp)
     138:	afaa0054 	sw	t2,84(sp)
     13c:	afab0050 	sw	t3,80(sp)
     140:	afac004c 	sw	t4,76(sp)
     144:	afad0048 	sw	t5,72(sp)
     148:	afae0044 	sw	t6,68(sp)
     14c:	afaf0040 	sw	t7,64(sp)
     150:	afb0003c 	sw	s0,60(sp)
     154:	afb10038 	sw	s1,56(sp)
     158:	afb20034 	sw	s2,52(sp)
     15c:	afb30030 	sw	s3,48(sp)
     160:	afb4002c 	sw	s4,44(sp)
     164:	afb50028 	sw	s5,40(sp)
     168:	afb60024 	sw	s6,36(sp)
     16c:	afb70020 	sw	s7,32(sp)
     170:	afb8001c 	sw	t8,28(sp)
     174:	afb90018 	sw	t9,24(sp)
     178:	afbc0014 	sw	gp,20(sp)
     17c:	afbe0010 	sw	s8,16(sp)
     180:	afbf000c 	sw	ra,12(sp)
     184:	0c0000cd 	jal	334 <interrupt_handler>
     188:	00000000 	nop
     18c:	8fbf000c 	lw	ra,12(sp)
     190:	8fbe0010 	lw	s8,16(sp)
     194:	8fbc0014 	lw	gp,20(sp)
     198:	8fb90018 	lw	t9,24(sp)
     19c:	8fb8001c 	lw	t8,28(sp)
     1a0:	8fb70020 	lw	s7,32(sp)
     1a4:	8fb60024 	lw	s6,36(sp)
     1a8:	8fb50028 	lw	s5,40(sp)
     1ac:	8fb4002c 	lw	s4,44(sp)
     1b0:	8fb30030 	lw	s3,48(sp)
     1b4:	8fb20034 	lw	s2,52(sp)
     1b8:	8fb10038 	lw	s1,56(sp)
     1bc:	8fb0003c 	lw	s0,60(sp)
     1c0:	8faf0040 	lw	t7,64(sp)
     1c4:	8fae0044 	lw	t6,68(sp)
     1c8:	8fad0048 	lw	t5,72(sp)
     1cc:	8fac004c 	lw	t4,76(sp)
     1d0:	8fab0050 	lw	t3,80(sp)
     1d4:	8faa0054 	lw	t2,84(sp)
     1d8:	8fa90058 	lw	t1,88(sp)
     1dc:	8fa8005c 	lw	t0,92(sp)
     1e0:	8fa70060 	lw	a3,96(sp)
     1e4:	8fa60064 	lw	a2,100(sp)
     1e8:	8fa50068 	lw	a1,104(sp)
     1ec:	8fa4006c 	lw	a0,108(sp)
     1f0:	8fa30070 	lw	v1,112(sp)
     1f4:	8fa20074 	lw	v0,116(sp)
     1f8:	8fa10078 	lw	at,120(sp)
     1fc:	8fba007c 	lw	k0,124(sp)
     200:	00000000 	nop
     204:	0340e825 	move	sp,k0
     208:	401b7000 	mfc0	k1,c0_epc
     20c:	00000000 	nop
     210:	42000010 	c0	0x10
     214:	03600008 	jr	k1
     218:	00000000 	nop
     21c:	00000000 	nop

00000220 <memcpy>:
     220:	27bdfff0 	addiu	sp,sp,-16
     224:	afbe000c 	sw	s8,12(sp)
     228:	03a0f025 	move	s8,sp
     22c:	afc40010 	sw	a0,16(s8)
     230:	afc50014 	sw	a1,20(s8)
     234:	afc60018 	sw	a2,24(s8)
     238:	8fc20010 	lw	v0,16(s8)
     23c:	00000000 	nop
     240:	afc20000 	sw	v0,0(s8)
     244:	8fc20014 	lw	v0,20(s8)
     248:	00000000 	nop
     24c:	afc20004 	sw	v0,4(s8)
     250:	1000000c 	b	284 <memcpy+0x64>
     254:	00000000 	nop
     258:	8fc30004 	lw	v1,4(s8)
     25c:	00000000 	nop
     260:	24620001 	addiu	v0,v1,1
     264:	afc20004 	sw	v0,4(s8)
     268:	8fc20000 	lw	v0,0(s8)
     26c:	00000000 	nop
     270:	24440001 	addiu	a0,v0,1
     274:	afc40000 	sw	a0,0(s8)
     278:	80630000 	lb	v1,0(v1)
     27c:	00000000 	nop
     280:	a0430000 	sb	v1,0(v0)
     284:	8fc20018 	lw	v0,24(s8)
     288:	00000000 	nop
     28c:	2443ffff 	addiu	v1,v0,-1
     290:	afc30018 	sw	v1,24(s8)
     294:	1440fff0 	bnez	v0,258 <memcpy+0x38>
     298:	00000000 	nop
     29c:	8fc20010 	lw	v0,16(s8)
     2a0:	03c0e825 	move	sp,s8
     2a4:	8fbe000c 	lw	s8,12(sp)
     2a8:	27bd0010 	addiu	sp,sp,16
     2ac:	03e00008 	jr	ra
     2b0:	00000000 	nop

000002b4 <memset>:
     2b4:	27bdfff0 	addiu	sp,sp,-16
     2b8:	afbe000c 	sw	s8,12(sp)
     2bc:	03a0f025 	move	s8,sp
     2c0:	afc40010 	sw	a0,16(s8)
     2c4:	afc50014 	sw	a1,20(s8)
     2c8:	afc60018 	sw	a2,24(s8)
     2cc:	8fc20010 	lw	v0,16(s8)
     2d0:	00000000 	nop
     2d4:	afc20000 	sw	v0,0(s8)
     2d8:	1000000a 	b	304 <memset+0x50>
     2dc:	00000000 	nop
     2e0:	8fc20000 	lw	v0,0(s8)
     2e4:	00000000 	nop
     2e8:	24430001 	addiu	v1,v0,1
     2ec:	afc30000 	sw	v1,0(s8)
     2f0:	8fc30014 	lw	v1,20(s8)
     2f4:	00000000 	nop
     2f8:	00031e00 	sll	v1,v1,0x18
     2fc:	00031e03 	sra	v1,v1,0x18
     300:	a0430000 	sb	v1,0(v0)
     304:	8fc20018 	lw	v0,24(s8)
     308:	00000000 	nop
     30c:	2443ffff 	addiu	v1,v0,-1
     310:	afc30018 	sw	v1,24(s8)
     314:	1440fff2 	bnez	v0,2e0 <memset+0x2c>
     318:	00000000 	nop
     31c:	8fc20010 	lw	v0,16(s8)
     320:	03c0e825 	move	sp,s8
     324:	8fbe000c 	lw	s8,12(sp)
     328:	27bd0010 	addiu	sp,sp,16
     32c:	03e00008 	jr	ra
     330:	00000000 	nop

00000334 <interrupt_handler>:
     334:	27bdffc0 	addiu	sp,sp,-64
     338:	afbf003c 	sw	ra,60(sp)
     33c:	afbe0038 	sw	s8,56(sp)
     340:	03a0f025 	move	s8,sp
     344:	3c020000 	lui	v0,0x0
     348:	8c426b50 	lw	v0,27472(v0)
     34c:	00000000 	nop
     350:	24430001 	addiu	v1,v0,1
     354:	3c020000 	lui	v0,0x0
     358:	ac436b50 	sw	v1,27472(v0)
     35c:	3c020000 	lui	v0,0x0
     360:	8c426b70 	lw	v0,27504(v0)
     364:	00000000 	nop
     368:	1840000e 	blez	v0,3a4 <interrupt_handler+0x70>
     36c:	00000000 	nop
     370:	3c020000 	lui	v0,0x0
     374:	8c426b70 	lw	v0,27504(v0)
     378:	00000000 	nop
     37c:	2443ffff 	addiu	v1,v0,-1
     380:	3c020000 	lui	v0,0x0
     384:	ac436b70 	sw	v1,27504(v0)
     388:	3c020000 	lui	v0,0x0
     38c:	8c426b70 	lw	v0,27504(v0)
     390:	00000000 	nop
     394:	14400003 	bnez	v0,3a4 <interrupt_handler+0x70>
     398:	00000000 	nop
     39c:	0c000889 	jal	2224 <buzzer_stop>
     3a0:	00000000 	nop
     3a4:	3c020000 	lui	v0,0x0
     3a8:	8c436b44 	lw	v1,27460(v0)
     3ac:	24020001 	li	v0,1
     3b0:	14620009 	bne	v1,v0,3d8 <interrupt_handler+0xa4>
     3b4:	00000000 	nop
     3b8:	3c020000 	lui	v0,0x0
     3bc:	8c426b4c 	lw	v0,27468(v0)
     3c0:	00000000 	nop
     3c4:	00402025 	move	a0,v0
     3c8:	0c0005c0 	jal	1700 <draw_mode_select>
     3cc:	00000000 	nop
     3d0:	100002ee 	b	f8c <interrupt_handler+0xc58>
     3d4:	00000000 	nop
     3d8:	3c020000 	lui	v0,0x0
     3dc:	8c436b44 	lw	v1,27460(v0)
     3e0:	24020002 	li	v0,2
     3e4:	1462009f 	bne	v1,v0,664 <interrupt_handler+0x330>
     3e8:	00000000 	nop
     3ec:	0c000953 	jal	254c <lcd_clear_vbuf>
     3f0:	00000000 	nop
     3f4:	afc00018 	sw	zero,24(s8)
     3f8:	afc0001c 	sw	zero,28(s8)
     3fc:	afc00020 	sw	zero,32(s8)
     400:	3c020000 	lui	v0,0x0
     404:	8c436b50 	lw	v1,27472(v0)
     408:	24020003 	li	v0,3
     40c:	0062001b 	divu	zero,v1,v0
     410:	14400002 	bnez	v0,41c <interrupt_handler+0xe8>
     414:	00000000 	nop
     418:	0007000d 	break	0x7
     41c:	00001010 	mfhi	v0
     420:	00001812 	mflo	v1
     424:	24020003 	li	v0,3
     428:	00000000 	nop
     42c:	0062001b 	divu	zero,v1,v0
     430:	14400002 	bnez	v0,43c <interrupt_handler+0x108>
     434:	00000000 	nop
     438:	0007000d 	break	0x7
     43c:	00001010 	mfhi	v0
     440:	afc20028 	sw	v0,40(s8)
     444:	8fc20028 	lw	v0,40(s8)
     448:	00000000 	nop
     44c:	14400007 	bnez	v0,46c <interrupt_handler+0x138>
     450:	00000000 	nop
     454:	240200ff 	li	v0,255
     458:	afc20018 	sw	v0,24(s8)
     45c:	afc0001c 	sw	zero,28(s8)
     460:	afc00020 	sw	zero,32(s8)
     464:	1000000f 	b	4a4 <interrupt_handler+0x170>
     468:	00000000 	nop
     46c:	8fc30028 	lw	v1,40(s8)
     470:	24020001 	li	v0,1
     474:	14620007 	bne	v1,v0,494 <interrupt_handler+0x160>
     478:	00000000 	nop
     47c:	afc00018 	sw	zero,24(s8)
     480:	240200ff 	li	v0,255
     484:	afc2001c 	sw	v0,28(s8)
     488:	afc00020 	sw	zero,32(s8)
     48c:	10000005 	b	4a4 <interrupt_handler+0x170>
     490:	00000000 	nop
     494:	afc00018 	sw	zero,24(s8)
     498:	afc0001c 	sw	zero,28(s8)
     49c:	240200ff 	li	v0,255
     4a0:	afc20020 	sw	v0,32(s8)
     4a4:	3c020000 	lui	v0,0x0
     4a8:	8c426b48 	lw	v0,27464(v0)
     4ac:	00000000 	nop
     4b0:	14400010 	bnez	v0,4f4 <interrupt_handler+0x1c0>
     4b4:	00000000 	nop
     4b8:	8fc20020 	lw	v0,32(s8)
     4bc:	00000000 	nop
     4c0:	afa20014 	sw	v0,20(sp)
     4c4:	8fc2001c 	lw	v0,28(s8)
     4c8:	00000000 	nop
     4cc:	afa20010 	sw	v0,16(sp)
     4d0:	8fc70018 	lw	a3,24(s8)
     4d4:	3c020000 	lui	v0,0x0
     4d8:	24466994 	addiu	a2,v0,27028
     4dc:	24050001 	li	a1,1
     4e0:	24040002 	li	a0,2
     4e4:	0c000a8a 	jal	2a28 <lcd_puts_color>
     4e8:	00000000 	nop
     4ec:	10000027 	b	58c <interrupt_handler+0x258>
     4f0:	00000000 	nop
     4f4:	3c020000 	lui	v0,0x0
     4f8:	8c436b48 	lw	v1,27464(v0)
     4fc:	24020001 	li	v0,1
     500:	14620010 	bne	v1,v0,544 <interrupt_handler+0x210>
     504:	00000000 	nop
     508:	8fc20020 	lw	v0,32(s8)
     50c:	00000000 	nop
     510:	afa20014 	sw	v0,20(sp)
     514:	8fc2001c 	lw	v0,28(s8)
     518:	00000000 	nop
     51c:	afa20010 	sw	v0,16(sp)
     520:	8fc70018 	lw	a3,24(s8)
     524:	3c020000 	lui	v0,0x0
     528:	244669a0 	addiu	a2,v0,27040
     52c:	00002825 	move	a1,zero
     530:	24040002 	li	a0,2
     534:	0c000a8a 	jal	2a28 <lcd_puts_color>
     538:	00000000 	nop
     53c:	10000013 	b	58c <interrupt_handler+0x258>
     540:	00000000 	nop
     544:	3c020000 	lui	v0,0x0
     548:	8c436b48 	lw	v1,27464(v0)
     54c:	24020002 	li	v0,2
     550:	1462000e 	bne	v1,v0,58c <interrupt_handler+0x258>
     554:	00000000 	nop
     558:	8fc20020 	lw	v0,32(s8)
     55c:	00000000 	nop
     560:	afa20014 	sw	v0,20(sp)
     564:	8fc2001c 	lw	v0,28(s8)
     568:	00000000 	nop
     56c:	afa20010 	sw	v0,16(sp)
     570:	8fc70018 	lw	a3,24(s8)
     574:	3c020000 	lui	v0,0x0
     578:	244669ac 	addiu	a2,v0,27052
     57c:	00002825 	move	a1,zero
     580:	24040002 	li	a0,2
     584:	0c000a8a 	jal	2a28 <lcd_puts_color>
     588:	00000000 	nop
     58c:	3c020000 	lui	v0,0x0
     590:	8c436b50 	lw	v1,27472(v0)
     594:	24020005 	li	v0,5
     598:	0062001b 	divu	zero,v1,v0
     59c:	14400002 	bnez	v0,5a8 <interrupt_handler+0x274>
     5a0:	00000000 	nop
     5a4:	0007000d 	break	0x7
     5a8:	00001010 	mfhi	v0
     5ac:	00001012 	mflo	v0
     5b0:	30420001 	andi	v0,v0,0x1
     5b4:	10400017 	beqz	v0,614 <interrupt_handler+0x2e0>
     5b8:	00000000 	nop
     5bc:	afa00014 	sw	zero,20(sp)
     5c0:	240200ff 	li	v0,255
     5c4:	afa20010 	sw	v0,16(sp)
     5c8:	240700ff 	li	a3,255
     5cc:	3c020000 	lui	v0,0x0
     5d0:	244669b8 	addiu	a2,v0,27064
     5d4:	00002825 	move	a1,zero
     5d8:	24040004 	li	a0,4
     5dc:	0c000a8a 	jal	2a28 <lcd_puts_color>
     5e0:	00000000 	nop
     5e4:	afa00014 	sw	zero,20(sp)
     5e8:	240200ff 	li	v0,255
     5ec:	afa20010 	sw	v0,16(sp)
     5f0:	240700ff 	li	a3,255
     5f4:	3c020000 	lui	v0,0x0
     5f8:	244669c0 	addiu	a2,v0,27072
     5fc:	00002825 	move	a1,zero
     600:	24040005 	li	a0,5
     604:	0c000a8a 	jal	2a28 <lcd_puts_color>
     608:	00000000 	nop
     60c:	1000025f 	b	f8c <interrupt_handler+0xc58>
     610:	00000000 	nop
     614:	afa00014 	sw	zero,20(sp)
     618:	afa00010 	sw	zero,16(sp)
     61c:	240700ff 	li	a3,255
     620:	3c020000 	lui	v0,0x0
     624:	244669b8 	addiu	a2,v0,27064
     628:	00002825 	move	a1,zero
     62c:	24040004 	li	a0,4
     630:	0c000a8a 	jal	2a28 <lcd_puts_color>
     634:	00000000 	nop
     638:	afa00014 	sw	zero,20(sp)
     63c:	afa00010 	sw	zero,16(sp)
     640:	240700ff 	li	a3,255
     644:	3c020000 	lui	v0,0x0
     648:	244669c0 	addiu	a2,v0,27072
     64c:	00002825 	move	a1,zero
     650:	24040005 	li	a0,5
     654:	0c000a8a 	jal	2a28 <lcd_puts_color>
     658:	00000000 	nop
     65c:	1000024b 	b	f8c <interrupt_handler+0xc58>
     660:	00000000 	nop
     664:	3c020000 	lui	v0,0x0
     668:	8c436b44 	lw	v1,27460(v0)
     66c:	24020003 	li	v0,3
     670:	14620190 	bne	v1,v0,cb4 <interrupt_handler+0x980>
     674:	00000000 	nop
     678:	3c020000 	lui	v0,0x0
     67c:	8c426b48 	lw	v0,27464(v0)
     680:	00000000 	nop
     684:	14400179 	bnez	v0,c6c <interrupt_handler+0x938>
     688:	00000000 	nop
     68c:	3c020000 	lui	v0,0x0
     690:	8c436b00 	lw	v1,27392(v0)
     694:	24020001 	li	v0,1
     698:	1462000d 	bne	v1,v0,6d0 <interrupt_handler+0x39c>
     69c:	00000000 	nop
     6a0:	3c020000 	lui	v0,0x0
     6a4:	8c426ae4 	lw	v0,27364(v0)
     6a8:	00000000 	nop
     6ac:	28420006 	slti	v0,v0,6
     6b0:	14400007 	bnez	v0,6d0 <interrupt_handler+0x39c>
     6b4:	00000000 	nop
     6b8:	3c020000 	lui	v0,0x0
     6bc:	8c426ae4 	lw	v0,27364(v0)
     6c0:	00000000 	nop
     6c4:	2443fffa 	addiu	v1,v0,-6
     6c8:	3c020000 	lui	v0,0x0
     6cc:	ac436ae4 	sw	v1,27364(v0)
     6d0:	3c020000 	lui	v0,0x0
     6d4:	8c436b00 	lw	v1,27392(v0)
     6d8:	24020007 	li	v0,7
     6dc:	1462000d 	bne	v1,v0,714 <interrupt_handler+0x3e0>
     6e0:	00000000 	nop
     6e4:	3c020000 	lui	v0,0x0
     6e8:	8c426ae4 	lw	v0,27364(v0)
     6ec:	00000000 	nop
     6f0:	2842002f 	slti	v0,v0,47
     6f4:	10400007 	beqz	v0,714 <interrupt_handler+0x3e0>
     6f8:	00000000 	nop
     6fc:	3c020000 	lui	v0,0x0
     700:	8c426ae4 	lw	v0,27364(v0)
     704:	00000000 	nop
     708:	24430006 	addiu	v1,v0,6
     70c:	3c020000 	lui	v0,0x0
     710:	ac436ae4 	sw	v1,27364(v0)
     714:	3c020000 	lui	v0,0x0
     718:	8c436b00 	lw	v1,27392(v0)
     71c:	24020004 	li	v0,4
     720:	1462000d 	bne	v1,v0,758 <interrupt_handler+0x424>
     724:	00000000 	nop
     728:	3c020000 	lui	v0,0x0
     72c:	8c426ae0 	lw	v0,27360(v0)
     730:	00000000 	nop
     734:	28420006 	slti	v0,v0,6
     738:	14400007 	bnez	v0,758 <interrupt_handler+0x424>
     73c:	00000000 	nop
     740:	3c020000 	lui	v0,0x0
     744:	8c426ae0 	lw	v0,27360(v0)
     748:	00000000 	nop
     74c:	2443fffa 	addiu	v1,v0,-6
     750:	3c020000 	lui	v0,0x0
     754:	ac436ae0 	sw	v1,27360(v0)
     758:	3c020000 	lui	v0,0x0
     75c:	8c436b00 	lw	v1,27392(v0)
     760:	24020005 	li	v0,5
     764:	1462000d 	bne	v1,v0,79c <interrupt_handler+0x468>
     768:	00000000 	nop
     76c:	3c020000 	lui	v0,0x0
     770:	8c426ae0 	lw	v0,27360(v0)
     774:	00000000 	nop
     778:	28420028 	slti	v0,v0,40
     77c:	10400007 	beqz	v0,79c <interrupt_handler+0x468>
     780:	00000000 	nop
     784:	3c020000 	lui	v0,0x0
     788:	8c426ae0 	lw	v0,27360(v0)
     78c:	00000000 	nop
     790:	24430006 	addiu	v1,v0,6
     794:	3c020000 	lui	v0,0x0
     798:	ac436ae0 	sw	v1,27360(v0)
     79c:	3c020000 	lui	v0,0x0
     7a0:	8c436b04 	lw	v1,27396(v0)
     7a4:	2402000a 	li	v0,10
     7a8:	1462000d 	bne	v1,v0,7e0 <interrupt_handler+0x4ac>
     7ac:	00000000 	nop
     7b0:	3c020000 	lui	v0,0x0
     7b4:	8c426aec 	lw	v0,27372(v0)
     7b8:	00000000 	nop
     7bc:	28420006 	slti	v0,v0,6
     7c0:	14400007 	bnez	v0,7e0 <interrupt_handler+0x4ac>
     7c4:	00000000 	nop
     7c8:	3c020000 	lui	v0,0x0
     7cc:	8c426aec 	lw	v0,27372(v0)
     7d0:	00000000 	nop
     7d4:	2443fffa 	addiu	v1,v0,-6
     7d8:	3c020000 	lui	v0,0x0
     7dc:	ac436aec 	sw	v1,27372(v0)
     7e0:	3c020000 	lui	v0,0x0
     7e4:	8c436b04 	lw	v1,27396(v0)
     7e8:	2402000c 	li	v0,12
     7ec:	1462000d 	bne	v1,v0,824 <interrupt_handler+0x4f0>
     7f0:	00000000 	nop
     7f4:	3c020000 	lui	v0,0x0
     7f8:	8c426aec 	lw	v0,27372(v0)
     7fc:	00000000 	nop
     800:	2842002f 	slti	v0,v0,47
     804:	10400007 	beqz	v0,824 <interrupt_handler+0x4f0>
     808:	00000000 	nop
     80c:	3c020000 	lui	v0,0x0
     810:	8c426aec 	lw	v0,27372(v0)
     814:	00000000 	nop
     818:	24430006 	addiu	v1,v0,6
     81c:	3c020000 	lui	v0,0x0
     820:	ac436aec 	sw	v1,27372(v0)
     824:	3c020000 	lui	v0,0x0
     828:	8c436b04 	lw	v1,27396(v0)
     82c:	24020006 	li	v0,6
     830:	1462000d 	bne	v1,v0,868 <interrupt_handler+0x534>
     834:	00000000 	nop
     838:	3c020000 	lui	v0,0x0
     83c:	8c426ae8 	lw	v0,27368(v0)
     840:	00000000 	nop
     844:	28420033 	slti	v0,v0,51
     848:	14400007 	bnez	v0,868 <interrupt_handler+0x534>
     84c:	00000000 	nop
     850:	3c020000 	lui	v0,0x0
     854:	8c426ae8 	lw	v0,27368(v0)
     858:	00000000 	nop
     85c:	2443fffa 	addiu	v1,v0,-6
     860:	3c020000 	lui	v0,0x0
     864:	ac436ae8 	sw	v1,27368(v0)
     868:	3c020000 	lui	v0,0x0
     86c:	8c436b04 	lw	v1,27396(v0)
     870:	2402000b 	li	v0,11
     874:	1462000d 	bne	v1,v0,8ac <interrupt_handler+0x578>
     878:	00000000 	nop
     87c:	3c020000 	lui	v0,0x0
     880:	8c426ae8 	lw	v0,27368(v0)
     884:	00000000 	nop
     888:	28420056 	slti	v0,v0,86
     88c:	10400007 	beqz	v0,8ac <interrupt_handler+0x578>
     890:	00000000 	nop
     894:	3c020000 	lui	v0,0x0
     898:	8c426ae8 	lw	v0,27368(v0)
     89c:	00000000 	nop
     8a0:	24430006 	addiu	v1,v0,6
     8a4:	3c020000 	lui	v0,0x0
     8a8:	ac436ae8 	sw	v1,27368(v0)
     8ac:	3c020000 	lui	v0,0x0
     8b0:	8c436af0 	lw	v1,27376(v0)
     8b4:	3c020000 	lui	v0,0x0
     8b8:	8c426af8 	lw	v0,27384(v0)
     8bc:	00000000 	nop
     8c0:	00621821 	addu	v1,v1,v0
     8c4:	3c020000 	lui	v0,0x0
     8c8:	ac436af0 	sw	v1,27376(v0)
     8cc:	3c020000 	lui	v0,0x0
     8d0:	8c436af4 	lw	v1,27380(v0)
     8d4:	3c020000 	lui	v0,0x0
     8d8:	8c426afc 	lw	v0,27388(v0)
     8dc:	00000000 	nop
     8e0:	00621821 	addu	v1,v1,v0
     8e4:	3c020000 	lui	v0,0x0
     8e8:	ac436af4 	sw	v1,27380(v0)
     8ec:	3c020000 	lui	v0,0x0
     8f0:	8c426af4 	lw	v0,27380(v0)
     8f4:	00000000 	nop
     8f8:	28420006 	slti	v0,v0,6
     8fc:	1040000a 	beqz	v0,928 <interrupt_handler+0x5f4>
     900:	00000000 	nop
     904:	3c020000 	lui	v0,0x0
     908:	24030005 	li	v1,5
     90c:	ac436af4 	sw	v1,27380(v0)
     910:	3c020000 	lui	v0,0x0
     914:	8c426afc 	lw	v0,27388(v0)
     918:	00000000 	nop
     91c:	00021823 	negu	v1,v0
     920:	3c020000 	lui	v0,0x0
     924:	ac436afc 	sw	v1,27388(v0)
     928:	3c020000 	lui	v0,0x0
     92c:	8c426af4 	lw	v0,27380(v0)
     930:	00000000 	nop
     934:	28420037 	slti	v0,v0,55
     938:	1440000a 	bnez	v0,964 <interrupt_handler+0x630>
     93c:	00000000 	nop
     940:	3c020000 	lui	v0,0x0
     944:	24030037 	li	v1,55
     948:	ac436af4 	sw	v1,27380(v0)
     94c:	3c020000 	lui	v0,0x0
     950:	8c426afc 	lw	v0,27388(v0)
     954:	00000000 	nop
     958:	00021823 	negu	v1,v0
     95c:	3c020000 	lui	v0,0x0
     960:	ac436afc 	sw	v1,27388(v0)
     964:	3c020000 	lui	v0,0x0
     968:	8c426ae0 	lw	v0,27360(v0)
     96c:	00000000 	nop
     970:	24430008 	addiu	v1,v0,8
     974:	3c020000 	lui	v0,0x0
     978:	8c426af0 	lw	v0,27376(v0)
     97c:	00000000 	nop
     980:	0062102a 	slt	v0,v1,v0
     984:	14400031 	bnez	v0,a4c <interrupt_handler+0x718>
     988:	00000000 	nop
     98c:	3c020000 	lui	v0,0x0
     990:	8c426af0 	lw	v0,27376(v0)
     994:	00000000 	nop
     998:	24430004 	addiu	v1,v0,4
     99c:	3c020000 	lui	v0,0x0
     9a0:	8c426ae0 	lw	v0,27360(v0)
     9a4:	00000000 	nop
     9a8:	0062102a 	slt	v0,v1,v0
     9ac:	14400027 	bnez	v0,a4c <interrupt_handler+0x718>
     9b0:	00000000 	nop
     9b4:	3c020000 	lui	v0,0x0
     9b8:	8c426af4 	lw	v0,27380(v0)
     9bc:	00000000 	nop
     9c0:	24430004 	addiu	v1,v0,4
     9c4:	3c020000 	lui	v0,0x0
     9c8:	8c426ae4 	lw	v0,27364(v0)
     9cc:	00000000 	nop
     9d0:	0062102a 	slt	v0,v1,v0
     9d4:	1440001d 	bnez	v0,a4c <interrupt_handler+0x718>
     9d8:	00000000 	nop
     9dc:	3c020000 	lui	v0,0x0
     9e0:	8c426ae4 	lw	v0,27364(v0)
     9e4:	00000000 	nop
     9e8:	2443000c 	addiu	v1,v0,12
     9ec:	3c020000 	lui	v0,0x0
     9f0:	8c426af4 	lw	v0,27380(v0)
     9f4:	00000000 	nop
     9f8:	0062102a 	slt	v0,v1,v0
     9fc:	14400013 	bnez	v0,a4c <interrupt_handler+0x718>
     a00:	00000000 	nop
     a04:	3c020000 	lui	v0,0x0
     a08:	8c426ae0 	lw	v0,27360(v0)
     a0c:	00000000 	nop
     a10:	24430008 	addiu	v1,v0,8
     a14:	3c020000 	lui	v0,0x0
     a18:	ac436af0 	sw	v1,27376(v0)
     a1c:	3c020000 	lui	v0,0x0
     a20:	8c426af8 	lw	v0,27384(v0)
     a24:	00000000 	nop
     a28:	00021823 	negu	v1,v0
     a2c:	3c020000 	lui	v0,0x0
     a30:	ac436af8 	sw	v1,27384(v0)
     a34:	24040008 	li	a0,8
     a38:	0c000879 	jal	21e4 <buzzer_play>
     a3c:	00000000 	nop
     a40:	3c020000 	lui	v0,0x0
     a44:	24030002 	li	v1,2
     a48:	ac436b70 	sw	v1,27504(v0)
     a4c:	3c020000 	lui	v0,0x0
     a50:	8c426af0 	lw	v0,27376(v0)
     a54:	00000000 	nop
     a58:	24430004 	addiu	v1,v0,4
     a5c:	3c020000 	lui	v0,0x0
     a60:	8c426ae8 	lw	v0,27368(v0)
     a64:	00000000 	nop
     a68:	0062102a 	slt	v0,v1,v0
     a6c:	14400031 	bnez	v0,b34 <interrupt_handler+0x800>
     a70:	00000000 	nop
     a74:	3c020000 	lui	v0,0x0
     a78:	8c426ae8 	lw	v0,27368(v0)
     a7c:	00000000 	nop
     a80:	24430008 	addiu	v1,v0,8
     a84:	3c020000 	lui	v0,0x0
     a88:	8c426af0 	lw	v0,27376(v0)
     a8c:	00000000 	nop
     a90:	0062102a 	slt	v0,v1,v0
     a94:	14400027 	bnez	v0,b34 <interrupt_handler+0x800>
     a98:	00000000 	nop
     a9c:	3c020000 	lui	v0,0x0
     aa0:	8c426af4 	lw	v0,27380(v0)
     aa4:	00000000 	nop
     aa8:	24430004 	addiu	v1,v0,4
     aac:	3c020000 	lui	v0,0x0
     ab0:	8c426aec 	lw	v0,27372(v0)
     ab4:	00000000 	nop
     ab8:	0062102a 	slt	v0,v1,v0
     abc:	1440001d 	bnez	v0,b34 <interrupt_handler+0x800>
     ac0:	00000000 	nop
     ac4:	3c020000 	lui	v0,0x0
     ac8:	8c426aec 	lw	v0,27372(v0)
     acc:	00000000 	nop
     ad0:	2443000c 	addiu	v1,v0,12
     ad4:	3c020000 	lui	v0,0x0
     ad8:	8c426af4 	lw	v0,27380(v0)
     adc:	00000000 	nop
     ae0:	0062102a 	slt	v0,v1,v0
     ae4:	14400013 	bnez	v0,b34 <interrupt_handler+0x800>
     ae8:	00000000 	nop
     aec:	3c020000 	lui	v0,0x0
     af0:	8c426ae8 	lw	v0,27368(v0)
     af4:	00000000 	nop
     af8:	2443fffc 	addiu	v1,v0,-4
     afc:	3c020000 	lui	v0,0x0
     b00:	ac436af0 	sw	v1,27376(v0)
     b04:	3c020000 	lui	v0,0x0
     b08:	8c426af8 	lw	v0,27384(v0)
     b0c:	00000000 	nop
     b10:	00021823 	negu	v1,v0
     b14:	3c020000 	lui	v0,0x0
     b18:	ac436af8 	sw	v1,27384(v0)
     b1c:	24040008 	li	a0,8
     b20:	0c000879 	jal	21e4 <buzzer_play>
     b24:	00000000 	nop
     b28:	3c020000 	lui	v0,0x0
     b2c:	24030002 	li	v1,2
     b30:	ac436b70 	sw	v1,27504(v0)
     b34:	3c020000 	lui	v0,0x0
     b38:	8c426af0 	lw	v0,27376(v0)
     b3c:	00000000 	nop
     b40:	04410019 	bgez	v0,ba8 <interrupt_handler+0x874>
     b44:	00000000 	nop
     b48:	3c020000 	lui	v0,0x0
     b4c:	8c426b64 	lw	v0,27492(v0)
     b50:	00000000 	nop
     b54:	24430001 	addiu	v1,v0,1
     b58:	3c020000 	lui	v0,0x0
     b5c:	ac436b64 	sw	v1,27492(v0)
     b60:	3c020000 	lui	v0,0x0
     b64:	2403002e 	li	v1,46
     b68:	ac436af0 	sw	v1,27376(v0)
     b6c:	3c020000 	lui	v0,0x0
     b70:	2403001a 	li	v1,26
     b74:	ac436af4 	sw	v1,27380(v0)
     b78:	3c020000 	lui	v0,0x0
     b7c:	24030005 	li	v1,5
     b80:	ac436af8 	sw	v1,27384(v0)
     b84:	3c020000 	lui	v0,0x0
     b88:	24030003 	li	v1,3
     b8c:	ac436afc 	sw	v1,27388(v0)
     b90:	2404000d 	li	a0,13
     b94:	0c000879 	jal	21e4 <buzzer_play>
     b98:	00000000 	nop
     b9c:	3c020000 	lui	v0,0x0
     ba0:	24030005 	li	v1,5
     ba4:	ac436b70 	sw	v1,27504(v0)
     ba8:	3c020000 	lui	v0,0x0
     bac:	8c426af0 	lw	v0,27376(v0)
     bb0:	00000000 	nop
     bb4:	2842005d 	slti	v0,v0,93
     bb8:	14400019 	bnez	v0,c20 <interrupt_handler+0x8ec>
     bbc:	00000000 	nop
     bc0:	3c020000 	lui	v0,0x0
     bc4:	8c426b60 	lw	v0,27488(v0)
     bc8:	00000000 	nop
     bcc:	24430001 	addiu	v1,v0,1
     bd0:	3c020000 	lui	v0,0x0
     bd4:	ac436b60 	sw	v1,27488(v0)
     bd8:	3c020000 	lui	v0,0x0
     bdc:	2403002e 	li	v1,46
     be0:	ac436af0 	sw	v1,27376(v0)
     be4:	3c020000 	lui	v0,0x0
     be8:	2403001a 	li	v1,26
     bec:	ac436af4 	sw	v1,27380(v0)
     bf0:	3c020000 	lui	v0,0x0
     bf4:	2403fffb 	li	v1,-5
     bf8:	ac436af8 	sw	v1,27384(v0)
     bfc:	3c020000 	lui	v0,0x0
     c00:	24030003 	li	v1,3
     c04:	ac436afc 	sw	v1,27388(v0)
     c08:	2404000d 	li	a0,13
     c0c:	0c000879 	jal	21e4 <buzzer_play>
     c10:	00000000 	nop
     c14:	3c020000 	lui	v0,0x0
     c18:	24030005 	li	v1,5
     c1c:	ac436b70 	sw	v1,27504(v0)
     c20:	3c020000 	lui	v0,0x0
     c24:	8c426b60 	lw	v0,27488(v0)
     c28:	00000000 	nop
     c2c:	28420005 	slti	v0,v0,5
     c30:	10400007 	beqz	v0,c50 <interrupt_handler+0x91c>
     c34:	00000000 	nop
     c38:	3c020000 	lui	v0,0x0
     c3c:	8c426b64 	lw	v0,27492(v0)
     c40:	00000000 	nop
     c44:	28420005 	slti	v0,v0,5
     c48:	14400004 	bnez	v0,c5c <interrupt_handler+0x928>
     c4c:	00000000 	nop
     c50:	3c020000 	lui	v0,0x0
     c54:	24030004 	li	v1,4
     c58:	ac436b44 	sw	v1,27460(v0)
     c5c:	0c000c0d 	jal	3034 <draw_tennis_game>
     c60:	00000000 	nop
     c64:	100000c9 	b	f8c <interrupt_handler+0xc58>
     c68:	00000000 	nop
     c6c:	3c020000 	lui	v0,0x0
     c70:	8c436b48 	lw	v1,27464(v0)
     c74:	24020001 	li	v0,1
     c78:	14620005 	bne	v1,v0,c90 <interrupt_handler+0x95c>
     c7c:	00000000 	nop
     c80:	0c000f9d 	jal	3e74 <squash_update>
     c84:	00000000 	nop
     c88:	100000c0 	b	f8c <interrupt_handler+0xc58>
     c8c:	00000000 	nop
     c90:	3c020000 	lui	v0,0x0
     c94:	8c436b48 	lw	v1,27464(v0)
     c98:	24020002 	li	v0,2
     c9c:	146200bb 	bne	v1,v0,f8c <interrupt_handler+0xc58>
     ca0:	00000000 	nop
     ca4:	0c0014fd 	jal	53f4 <soccer_update>
     ca8:	00000000 	nop
     cac:	100000b7 	b	f8c <interrupt_handler+0xc58>
     cb0:	00000000 	nop
     cb4:	3c020000 	lui	v0,0x0
     cb8:	8c436b44 	lw	v1,27460(v0)
     cbc:	24020004 	li	v0,4
     cc0:	146200b2 	bne	v1,v0,f8c <interrupt_handler+0xc58>
     cc4:	00000000 	nop
     cc8:	3c020000 	lui	v0,0x0
     ccc:	8c426b48 	lw	v0,27464(v0)
     cd0:	00000000 	nop
     cd4:	1440008f 	bnez	v0,f14 <interrupt_handler+0xbe0>
     cd8:	00000000 	nop
     cdc:	0c000953 	jal	254c <lcd_clear_vbuf>
     ce0:	00000000 	nop
     ce4:	3c020000 	lui	v0,0x0
     ce8:	8c426b50 	lw	v0,27472(v0)
     cec:	00000000 	nop
     cf0:	00021042 	srl	v0,v0,0x1
     cf4:	30420001 	andi	v0,v0,0x1
     cf8:	afc20024 	sw	v0,36(s8)
     cfc:	240200ff 	li	v0,255
     d00:	afa20014 	sw	v0,20(sp)
     d04:	240200ff 	li	v0,255
     d08:	afa20010 	sw	v0,16(sp)
     d0c:	240700ff 	li	a3,255
     d10:	3c020000 	lui	v0,0x0
     d14:	244669cc 	addiu	a2,v0,27084
     d18:	00002825 	move	a1,zero
     d1c:	24040001 	li	a0,1
     d20:	0c000a8a 	jal	2a28 <lcd_puts_color>
     d24:	00000000 	nop
     d28:	8fc20024 	lw	v0,36(s8)
     d2c:	00000000 	nop
     d30:	1040000c 	beqz	v0,d64 <interrupt_handler+0xa30>
     d34:	00000000 	nop
     d38:	afa00014 	sw	zero,20(sp)
     d3c:	afa00010 	sw	zero,16(sp)
     d40:	240700ff 	li	a3,255
     d44:	3c020000 	lui	v0,0x0
     d48:	244669dc 	addiu	a2,v0,27100
     d4c:	00002825 	move	a1,zero
     d50:	24040002 	li	a0,2
     d54:	0c000a8a 	jal	2a28 <lcd_puts_color>
     d58:	00000000 	nop
     d5c:	1000000c 	b	d90 <interrupt_handler+0xa5c>
     d60:	00000000 	nop
     d64:	240200ff 	li	v0,255
     d68:	afa20014 	sw	v0,20(sp)
     d6c:	240200ff 	li	v0,255
     d70:	afa20010 	sw	v0,16(sp)
     d74:	240700ff 	li	a3,255
     d78:	3c020000 	lui	v0,0x0
     d7c:	244669dc 	addiu	a2,v0,27100
     d80:	00002825 	move	a1,zero
     d84:	24040002 	li	a0,2
     d88:	0c000a8a 	jal	2a28 <lcd_puts_color>
     d8c:	00000000 	nop
     d90:	240200ff 	li	v0,255
     d94:	afa20014 	sw	v0,20(sp)
     d98:	240200ff 	li	v0,255
     d9c:	afa20010 	sw	v0,16(sp)
     da0:	240700ff 	li	a3,255
     da4:	3c020000 	lui	v0,0x0
     da8:	244669cc 	addiu	a2,v0,27084
     dac:	00002825 	move	a1,zero
     db0:	24040003 	li	a0,3
     db4:	0c000a8a 	jal	2a28 <lcd_puts_color>
     db8:	00000000 	nop
     dbc:	3c020000 	lui	v0,0x0
     dc0:	8c436b60 	lw	v1,27488(v0)
     dc4:	3c020000 	lui	v0,0x0
     dc8:	8c426b64 	lw	v0,27492(v0)
     dcc:	00000000 	nop
     dd0:	0043102a 	slt	v0,v0,v1
     dd4:	1040000d 	beqz	v0,e0c <interrupt_handler+0xad8>
     dd8:	00000000 	nop
     ddc:	afa00014 	sw	zero,20(sp)
     de0:	240200ff 	li	v0,255
     de4:	afa20010 	sw	v0,16(sp)
     de8:	00003825 	move	a3,zero
     dec:	3c020000 	lui	v0,0x0
     df0:	244669ec 	addiu	a2,v0,27116
     df4:	00002825 	move	a1,zero
     df8:	24040004 	li	a0,4
     dfc:	0c000a8a 	jal	2a28 <lcd_puts_color>
     e00:	00000000 	nop
     e04:	1000000b 	b	e34 <interrupt_handler+0xb00>
     e08:	00000000 	nop
     e0c:	afa00014 	sw	zero,20(sp)
     e10:	24020080 	li	v0,128
     e14:	afa20010 	sw	v0,16(sp)
     e18:	240700ff 	li	a3,255
     e1c:	3c020000 	lui	v0,0x0
     e20:	244669fc 	addiu	a2,v0,27132
     e24:	00002825 	move	a1,zero
     e28:	24040004 	li	a0,4
     e2c:	0c000a8a 	jal	2a28 <lcd_puts_color>
     e30:	00000000 	nop
     e34:	24020053 	li	v0,83
     e38:	a3c2002c 	sb	v0,44(s8)
     e3c:	24020043 	li	v0,67
     e40:	a3c2002d 	sb	v0,45(s8)
     e44:	2402004f 	li	v0,79
     e48:	a3c2002e 	sb	v0,46(s8)
     e4c:	24020052 	li	v0,82
     e50:	a3c2002f 	sb	v0,47(s8)
     e54:	24020045 	li	v0,69
     e58:	a3c20030 	sb	v0,48(s8)
     e5c:	2402003a 	li	v0,58
     e60:	a3c20031 	sb	v0,49(s8)
     e64:	3c020000 	lui	v0,0x0
     e68:	8c426b60 	lw	v0,27488(v0)
     e6c:	00000000 	nop
     e70:	304200ff 	andi	v0,v0,0xff
     e74:	24420030 	addiu	v0,v0,48
     e78:	304200ff 	andi	v0,v0,0xff
     e7c:	00021600 	sll	v0,v0,0x18
     e80:	00021603 	sra	v0,v0,0x18
     e84:	a3c20032 	sb	v0,50(s8)
     e88:	2402002d 	li	v0,45
     e8c:	a3c20033 	sb	v0,51(s8)
     e90:	3c020000 	lui	v0,0x0
     e94:	8c426b64 	lw	v0,27492(v0)
     e98:	00000000 	nop
     e9c:	304200ff 	andi	v0,v0,0xff
     ea0:	24420030 	addiu	v0,v0,48
     ea4:	304200ff 	andi	v0,v0,0xff
     ea8:	00021600 	sll	v0,v0,0x18
     eac:	00021603 	sra	v0,v0,0x18
     eb0:	a3c20034 	sb	v0,52(s8)
     eb4:	a3c00035 	sb	zero,53(s8)
     eb8:	27c3002c 	addiu	v1,s8,44
     ebc:	afa00014 	sw	zero,20(sp)
     ec0:	240200ff 	li	v0,255
     ec4:	afa20010 	sw	v0,16(sp)
     ec8:	240700ff 	li	a3,255
     ecc:	00603025 	move	a2,v1
     ed0:	24050001 	li	a1,1
     ed4:	24040006 	li	a0,6
     ed8:	0c000a8a 	jal	2a28 <lcd_puts_color>
     edc:	00000000 	nop
     ee0:	240200ff 	li	v0,255
     ee4:	afa20014 	sw	v0,20(sp)
     ee8:	240200ff 	li	v0,255
     eec:	afa20010 	sw	v0,16(sp)
     ef0:	00003825 	move	a3,zero
     ef4:	3c020000 	lui	v0,0x0
     ef8:	24466a0c 	addiu	a2,v0,27148
     efc:	00002825 	move	a1,zero
     f00:	24040007 	li	a0,7
     f04:	0c000a8a 	jal	2a28 <lcd_puts_color>
     f08:	00000000 	nop
     f0c:	1000001f 	b	f8c <interrupt_handler+0xc58>
     f10:	00000000 	nop
     f14:	3c020000 	lui	v0,0x0
     f18:	8c436b48 	lw	v1,27464(v0)
     f1c:	24020001 	li	v0,1
     f20:	1462000c 	bne	v1,v0,f54 <interrupt_handler+0xc20>
     f24:	00000000 	nop
     f28:	3c020000 	lui	v0,0x0
     f2c:	8c436b80 	lw	v1,27520(v0)
     f30:	3c020000 	lui	v0,0x0
     f34:	8c426b84 	lw	v0,27524(v0)
     f38:	00000000 	nop
     f3c:	00402825 	move	a1,v0
     f40:	00602025 	move	a0,v1
     f44:	0c001217 	jal	485c <draw_result_squash_2p>
     f48:	00000000 	nop
     f4c:	1000000f 	b	f8c <interrupt_handler+0xc58>
     f50:	00000000 	nop
     f54:	3c020000 	lui	v0,0x0
     f58:	8c436b48 	lw	v1,27464(v0)
     f5c:	24020002 	li	v0,2
     f60:	1462000a 	bne	v1,v0,f8c <interrupt_handler+0xc58>
     f64:	00000000 	nop
     f68:	3c020000 	lui	v0,0x0
     f6c:	8c436b98 	lw	v1,27544(v0)
     f70:	3c020000 	lui	v0,0x0
     f74:	8c426b9c 	lw	v0,27548(v0)
     f78:	00000000 	nop
     f7c:	00402825 	move	a1,v0
     f80:	00602025 	move	a0,v1
     f84:	0c0018fc 	jal	63f0 <draw_result_soccer>
     f88:	00000000 	nop
     f8c:	0c000981 	jal	2604 <lcd_sync_vbuf>
     f90:	00000000 	nop
     f94:	00000000 	nop
     f98:	03c0e825 	move	sp,s8
     f9c:	8fbf003c 	lw	ra,60(sp)
     fa0:	8fbe0038 	lw	s8,56(sp)
     fa4:	27bd0040 	addiu	sp,sp,64
     fa8:	03e00008 	jr	ra
     fac:	00000000 	nop

00000fb0 <main>:
     fb0:	27bdffc0 	addiu	sp,sp,-64
     fb4:	afbf003c 	sw	ra,60(sp)
     fb8:	afbe0038 	sw	s8,56(sp)
     fbc:	03a0f025 	move	s8,sp
     fc0:	3402ff14 	li	v0,0xff14
     fc4:	afc20014 	sw	v0,20(s8)
     fc8:	8fc20014 	lw	v0,20(s8)
     fcc:	24030001 	li	v1,1
     fd0:	ac430000 	sw	v1,0(v0)
     fd4:	3c020007 	lui	v0,0x7
     fd8:	3444a120 	ori	a0,v0,0xa120
     fdc:	0c000897 	jal	225c <lcd_wait>
     fe0:	00000000 	nop
     fe4:	8fc20014 	lw	v0,20(s8)
     fe8:	24030002 	li	v1,2
     fec:	ac430000 	sw	v1,0(v0)
     ff0:	3c020007 	lui	v0,0x7
     ff4:	3444a120 	ori	a0,v0,0xa120
     ff8:	0c000897 	jal	225c <lcd_wait>
     ffc:	00000000 	nop
    1000:	8fc20014 	lw	v0,20(s8)
    1004:	24030003 	li	v1,3
    1008:	ac430000 	sw	v1,0(v0)
    100c:	3c020007 	lui	v0,0x7
    1010:	3444a120 	ori	a0,v0,0xa120
    1014:	0c000897 	jal	225c <lcd_wait>
    1018:	00000000 	nop
    101c:	8fc20014 	lw	v0,20(s8)
    1020:	24030004 	li	v1,4
    1024:	ac430000 	sw	v1,0(v0)
    1028:	3c020007 	lui	v0,0x7
    102c:	3444a120 	ori	a0,v0,0xa120
    1030:	0c000897 	jal	225c <lcd_wait>
    1034:	00000000 	nop
    1038:	8fc20014 	lw	v0,20(s8)
    103c:	24030005 	li	v1,5
    1040:	ac430000 	sw	v1,0(v0)
    1044:	3c020007 	lui	v0,0x7
    1048:	3444a120 	ori	a0,v0,0xa120
    104c:	0c000897 	jal	225c <lcd_wait>
    1050:	00000000 	nop
    1054:	8fc20014 	lw	v0,20(s8)
    1058:	24030006 	li	v1,6
    105c:	ac430000 	sw	v1,0(v0)
    1060:	3c020007 	lui	v0,0x7
    1064:	3444a120 	ori	a0,v0,0xa120
    1068:	0c000897 	jal	225c <lcd_wait>
    106c:	00000000 	nop
    1070:	8fc20014 	lw	v0,20(s8)
    1074:	00000000 	nop
    1078:	ac400000 	sw	zero,0(v0)
    107c:	3c020007 	lui	v0,0x7
    1080:	3444a120 	ori	a0,v0,0xa120
    1084:	0c000897 	jal	225c <lcd_wait>
    1088:	00000000 	nop
    108c:	3c020000 	lui	v0,0x0
    1090:	8c426b44 	lw	v0,27460(v0)
    1094:	00000000 	nop
    1098:	1440000f 	bnez	v0,10d8 <main+0x128>
    109c:	00000000 	nop
    10a0:	0c0008f0 	jal	23c0 <lcd_init>
    10a4:	00000000 	nop
    10a8:	3c020000 	lui	v0,0x0
    10ac:	24030001 	li	v1,1
    10b0:	ac436b44 	sw	v1,27460(v0)
    10b4:	3c020000 	lui	v0,0x0
    10b8:	ac406b4c 	sw	zero,27468(v0)
    10bc:	0c0006df 	jal	1b7c <rotary_read>
    10c0:	00000000 	nop
    10c4:	00401825 	move	v1,v0
    10c8:	3c020000 	lui	v0,0x0
    10cc:	ac436ad8 	sw	v1,27352(v0)
    10d0:	1000ffee 	b	108c <main+0xdc>
    10d4:	00000000 	nop
    10d8:	3c020000 	lui	v0,0x0
    10dc:	8c436b44 	lw	v1,27460(v0)
    10e0:	24020001 	li	v0,1
    10e4:	146200a9 	bne	v1,v0,138c <main+0x3dc>
    10e8:	00000000 	nop
    10ec:	0c0006ce 	jal	1b38 <btn_check_3>
    10f0:	00000000 	nop
    10f4:	afc20028 	sw	v0,40(s8)
    10f8:	0c0006bd 	jal	1af4 <btn_check_2>
    10fc:	00000000 	nop
    1100:	afc2002c 	sw	v0,44(s8)
    1104:	0c00069b 	jal	1a6c <btn_check_0>
    1108:	00000000 	nop
    110c:	afc20030 	sw	v0,48(s8)
    1110:	8fc20028 	lw	v0,40(s8)
    1114:	00000000 	nop
    1118:	10400013 	beqz	v0,1168 <main+0x1b8>
    111c:	00000000 	nop
    1120:	3c020000 	lui	v0,0x0
    1124:	8c426b5c 	lw	v0,27484(v0)
    1128:	00000000 	nop
    112c:	1440000e 	bnez	v0,1168 <main+0x1b8>
    1130:	00000000 	nop
    1134:	3c020000 	lui	v0,0x0
    1138:	8c426b4c 	lw	v0,27468(v0)
    113c:	00000000 	nop
    1140:	18400009 	blez	v0,1168 <main+0x1b8>
    1144:	00000000 	nop
    1148:	3c020000 	lui	v0,0x0
    114c:	8c426b4c 	lw	v0,27468(v0)
    1150:	00000000 	nop
    1154:	2443ffff 	addiu	v1,v0,-1
    1158:	3c020000 	lui	v0,0x0
    115c:	ac436b4c 	sw	v1,27468(v0)
    1160:	0c00085b 	jal	216c <led_blink>
    1164:	00000000 	nop
    1168:	8fc2002c 	lw	v0,44(s8)
    116c:	00000000 	nop
    1170:	10400014 	beqz	v0,11c4 <main+0x214>
    1174:	00000000 	nop
    1178:	3c020000 	lui	v0,0x0
    117c:	8c426b58 	lw	v0,27480(v0)
    1180:	00000000 	nop
    1184:	1440000f 	bnez	v0,11c4 <main+0x214>
    1188:	00000000 	nop
    118c:	3c020000 	lui	v0,0x0
    1190:	8c426b4c 	lw	v0,27468(v0)
    1194:	00000000 	nop
    1198:	28420002 	slti	v0,v0,2
    119c:	10400009 	beqz	v0,11c4 <main+0x214>
    11a0:	00000000 	nop
    11a4:	3c020000 	lui	v0,0x0
    11a8:	8c426b4c 	lw	v0,27468(v0)
    11ac:	00000000 	nop
    11b0:	24430001 	addiu	v1,v0,1
    11b4:	3c020000 	lui	v0,0x0
    11b8:	ac436b4c 	sw	v1,27468(v0)
    11bc:	0c00085b 	jal	216c <led_blink>
    11c0:	00000000 	nop
    11c4:	0c0006df 	jal	1b7c <rotary_read>
    11c8:	00000000 	nop
    11cc:	afc20034 	sw	v0,52(s8)
    11d0:	3c020000 	lui	v0,0x0
    11d4:	8c426ad8 	lw	v0,27352(v0)
    11d8:	8fc30034 	lw	v1,52(s8)
    11dc:	00000000 	nop
    11e0:	00621023 	subu	v0,v1,v0
    11e4:	afc20010 	sw	v0,16(s8)
    11e8:	8fc20010 	lw	v0,16(s8)
    11ec:	00000000 	nop
    11f0:	28420081 	slti	v0,v0,129
    11f4:	14400007 	bnez	v0,1214 <main+0x264>
    11f8:	00000000 	nop
    11fc:	8fc20010 	lw	v0,16(s8)
    1200:	00000000 	nop
    1204:	2442ff00 	addiu	v0,v0,-256
    1208:	afc20010 	sw	v0,16(s8)
    120c:	1000000a 	b	1238 <main+0x288>
    1210:	00000000 	nop
    1214:	8fc20010 	lw	v0,16(s8)
    1218:	00000000 	nop
    121c:	2842ff80 	slti	v0,v0,-128
    1220:	10400005 	beqz	v0,1238 <main+0x288>
    1224:	00000000 	nop
    1228:	8fc20010 	lw	v0,16(s8)
    122c:	00000000 	nop
    1230:	24420100 	addiu	v0,v0,256
    1234:	afc20010 	sw	v0,16(s8)
    1238:	3c020000 	lui	v0,0x0
    123c:	8c426adc 	lw	v0,27356(v0)
    1240:	8fc30010 	lw	v1,16(s8)
    1244:	00000000 	nop
    1248:	0062102a 	slt	v0,v1,v0
    124c:	14400015 	bnez	v0,12a4 <main+0x2f4>
    1250:	00000000 	nop
    1254:	3c020000 	lui	v0,0x0
    1258:	8c426b4c 	lw	v0,27468(v0)
    125c:	00000000 	nop
    1260:	28420002 	slti	v0,v0,2
    1264:	10400009 	beqz	v0,128c <main+0x2dc>
    1268:	00000000 	nop
    126c:	3c020000 	lui	v0,0x0
    1270:	8c426b4c 	lw	v0,27468(v0)
    1274:	00000000 	nop
    1278:	24430001 	addiu	v1,v0,1
    127c:	3c020000 	lui	v0,0x0
    1280:	ac436b4c 	sw	v1,27468(v0)
    1284:	0c00085b 	jal	216c <led_blink>
    1288:	00000000 	nop
    128c:	3c020000 	lui	v0,0x0
    1290:	8fc30034 	lw	v1,52(s8)
    1294:	00000000 	nop
    1298:	ac436ad8 	sw	v1,27352(v0)
    129c:	1000001b 	b	130c <main+0x35c>
    12a0:	00000000 	nop
    12a4:	3c020000 	lui	v0,0x0
    12a8:	8c426adc 	lw	v0,27356(v0)
    12ac:	00000000 	nop
    12b0:	00021023 	negu	v0,v0
    12b4:	8fc30010 	lw	v1,16(s8)
    12b8:	00000000 	nop
    12bc:	0043102a 	slt	v0,v0,v1
    12c0:	14400012 	bnez	v0,130c <main+0x35c>
    12c4:	00000000 	nop
    12c8:	3c020000 	lui	v0,0x0
    12cc:	8c426b4c 	lw	v0,27468(v0)
    12d0:	00000000 	nop
    12d4:	18400009 	blez	v0,12fc <main+0x34c>
    12d8:	00000000 	nop
    12dc:	3c020000 	lui	v0,0x0
    12e0:	8c426b4c 	lw	v0,27468(v0)
    12e4:	00000000 	nop
    12e8:	2443ffff 	addiu	v1,v0,-1
    12ec:	3c020000 	lui	v0,0x0
    12f0:	ac436b4c 	sw	v1,27468(v0)
    12f4:	0c00085b 	jal	216c <led_blink>
    12f8:	00000000 	nop
    12fc:	3c020000 	lui	v0,0x0
    1300:	8fc30034 	lw	v1,52(s8)
    1304:	00000000 	nop
    1308:	ac436ad8 	sw	v1,27352(v0)
    130c:	8fc20030 	lw	v0,48(s8)
    1310:	00000000 	nop
    1314:	1040000f 	beqz	v0,1354 <main+0x3a4>
    1318:	00000000 	nop
    131c:	3c020000 	lui	v0,0x0
    1320:	8c426b54 	lw	v0,27476(v0)
    1324:	00000000 	nop
    1328:	1440000a 	bnez	v0,1354 <main+0x3a4>
    132c:	00000000 	nop
    1330:	3c020000 	lui	v0,0x0
    1334:	8c436b4c 	lw	v1,27468(v0)
    1338:	3c020000 	lui	v0,0x0
    133c:	ac436b48 	sw	v1,27464(v0)
    1340:	3c020000 	lui	v0,0x0
    1344:	24030002 	li	v1,2
    1348:	ac436b44 	sw	v1,27460(v0)
    134c:	0c00085b 	jal	216c <led_blink>
    1350:	00000000 	nop
    1354:	3c020000 	lui	v0,0x0
    1358:	8fc30030 	lw	v1,48(s8)
    135c:	00000000 	nop
    1360:	ac436b54 	sw	v1,27476(v0)
    1364:	3c020000 	lui	v0,0x0
    1368:	8fc3002c 	lw	v1,44(s8)
    136c:	00000000 	nop
    1370:	ac436b58 	sw	v1,27480(v0)
    1374:	3c020000 	lui	v0,0x0
    1378:	8fc30028 	lw	v1,40(s8)
    137c:	00000000 	nop
    1380:	ac436b5c 	sw	v1,27484(v0)
    1384:	1000ff41 	b	108c <main+0xdc>
    1388:	00000000 	nop
    138c:	3c020000 	lui	v0,0x0
    1390:	8c436b44 	lw	v1,27460(v0)
    1394:	24020002 	li	v0,2
    1398:	146200a3 	bne	v1,v0,1628 <main+0x678>
    139c:	00000000 	nop
    13a0:	0c00069b 	jal	1a6c <btn_check_0>
    13a4:	00000000 	nop
    13a8:	afc20020 	sw	v0,32(s8)
    13ac:	0c0006ac 	jal	1ab0 <btn_check_1>
    13b0:	00000000 	nop
    13b4:	afc20024 	sw	v0,36(s8)
    13b8:	8fc20020 	lw	v0,32(s8)
    13bc:	00000000 	nop
    13c0:	10400011 	beqz	v0,1408 <main+0x458>
    13c4:	00000000 	nop
    13c8:	8fc20024 	lw	v0,36(s8)
    13cc:	00000000 	nop
    13d0:	1040000d 	beqz	v0,1408 <main+0x458>
    13d4:	00000000 	nop
    13d8:	3c020000 	lui	v0,0x0
    13dc:	24030001 	li	v1,1
    13e0:	ac436b44 	sw	v1,27460(v0)
    13e4:	3c020000 	lui	v0,0x0
    13e8:	ac406b4c 	sw	zero,27468(v0)
    13ec:	0c0006df 	jal	1b7c <rotary_read>
    13f0:	00000000 	nop
    13f4:	00401825 	move	v1,v0
    13f8:	3c020000 	lui	v0,0x0
    13fc:	ac436ad8 	sw	v1,27352(v0)
    1400:	10000083 	b	1610 <main+0x660>
    1404:	00000000 	nop
    1408:	8fc20020 	lw	v0,32(s8)
    140c:	00000000 	nop
    1410:	1040007f 	beqz	v0,1610 <main+0x660>
    1414:	00000000 	nop
    1418:	3c020000 	lui	v0,0x0
    141c:	8c426b54 	lw	v0,27476(v0)
    1420:	00000000 	nop
    1424:	1440007a 	bnez	v0,1610 <main+0x660>
    1428:	00000000 	nop
    142c:	3c020000 	lui	v0,0x0
    1430:	8c426b48 	lw	v0,27464(v0)
    1434:	00000000 	nop
    1438:	1440001f 	bnez	v0,14b8 <main+0x508>
    143c:	00000000 	nop
    1440:	3c020000 	lui	v0,0x0
    1444:	24030002 	li	v1,2
    1448:	ac436ae0 	sw	v1,27360(v0)
    144c:	3c020000 	lui	v0,0x0
    1450:	24030018 	li	v1,24
    1454:	ac436ae4 	sw	v1,27364(v0)
    1458:	3c020000 	lui	v0,0x0
    145c:	24030056 	li	v1,86
    1460:	ac436ae8 	sw	v1,27368(v0)
    1464:	3c020000 	lui	v0,0x0
    1468:	24030018 	li	v1,24
    146c:	ac436aec 	sw	v1,27372(v0)
    1470:	3c020000 	lui	v0,0x0
    1474:	2403002e 	li	v1,46
    1478:	ac436af0 	sw	v1,27376(v0)
    147c:	3c020000 	lui	v0,0x0
    1480:	2403001e 	li	v1,30
    1484:	ac436af4 	sw	v1,27380(v0)
    1488:	3c020000 	lui	v0,0x0
    148c:	24030005 	li	v1,5
    1490:	ac436af8 	sw	v1,27384(v0)
    1494:	3c020000 	lui	v0,0x0
    1498:	24030003 	li	v1,3
    149c:	ac436afc 	sw	v1,27388(v0)
    14a0:	3c020000 	lui	v0,0x0
    14a4:	ac406b60 	sw	zero,27488(v0)
    14a8:	3c020000 	lui	v0,0x0
    14ac:	ac406b64 	sw	zero,27492(v0)
    14b0:	10000052 	b	15fc <main+0x64c>
    14b4:	00000000 	nop
    14b8:	3c020000 	lui	v0,0x0
    14bc:	8c436b48 	lw	v1,27464(v0)
    14c0:	24020001 	li	v0,1
    14c4:	14620028 	bne	v1,v0,1568 <main+0x5b8>
    14c8:	00000000 	nop
    14cc:	3c020000 	lui	v0,0x0
    14d0:	24030002 	li	v1,2
    14d4:	ac436b08 	sw	v1,27400(v0)
    14d8:	3c020000 	lui	v0,0x0
    14dc:	24030010 	li	v1,16
    14e0:	ac436b0c 	sw	v1,27404(v0)
    14e4:	3c020000 	lui	v0,0x0
    14e8:	24030002 	li	v1,2
    14ec:	ac436b10 	sw	v1,27408(v0)
    14f0:	3c020000 	lui	v0,0x0
    14f4:	24030024 	li	v1,36
    14f8:	ac436b14 	sw	v1,27412(v0)
    14fc:	3c020000 	lui	v0,0x0
    1500:	24030014 	li	v1,20
    1504:	ac436b18 	sw	v1,27416(v0)
    1508:	3c020000 	lui	v0,0x0
    150c:	2403001a 	li	v1,26
    1510:	ac436b1c 	sw	v1,27420(v0)
    1514:	3c020000 	lui	v0,0x0
    1518:	24030005 	li	v1,5
    151c:	ac436b20 	sw	v1,27424(v0)
    1520:	3c020000 	lui	v0,0x0
    1524:	24030003 	li	v1,3
    1528:	ac436b24 	sw	v1,27428(v0)
    152c:	3c020000 	lui	v0,0x0
    1530:	ac406b74 	sw	zero,27508(v0)
    1534:	3c020000 	lui	v0,0x0
    1538:	24030003 	li	v1,3
    153c:	ac436b28 	sw	v1,27432(v0)
    1540:	3c020000 	lui	v0,0x0
    1544:	ac406b78 	sw	zero,27512(v0)
    1548:	3c020000 	lui	v0,0x0
    154c:	ac406b7c 	sw	zero,27516(v0)
    1550:	3c020000 	lui	v0,0x0
    1554:	ac406b80 	sw	zero,27520(v0)
    1558:	3c020000 	lui	v0,0x0
    155c:	ac406b84 	sw	zero,27524(v0)
    1560:	10000026 	b	15fc <main+0x64c>
    1564:	00000000 	nop
    1568:	3c020000 	lui	v0,0x0
    156c:	8c436b48 	lw	v1,27464(v0)
    1570:	24020002 	li	v0,2
    1574:	14620021 	bne	v1,v0,15fc <main+0x64c>
    1578:	00000000 	nop
    157c:	3c020000 	lui	v0,0x0
    1580:	2403000a 	li	v1,10
    1584:	ac436b2c 	sw	v1,27436(v0)
    1588:	3c020000 	lui	v0,0x0
    158c:	24030018 	li	v1,24
    1590:	ac436b30 	sw	v1,27440(v0)
    1594:	3c020000 	lui	v0,0x0
    1598:	2403004e 	li	v1,78
    159c:	ac436b34 	sw	v1,27444(v0)
    15a0:	3c020000 	lui	v0,0x0
    15a4:	24030018 	li	v1,24
    15a8:	ac436b38 	sw	v1,27448(v0)
    15ac:	3c020000 	lui	v0,0x0
    15b0:	2403002c 	li	v1,44
    15b4:	ac436b3c 	sw	v1,27452(v0)
    15b8:	3c020000 	lui	v0,0x0
    15bc:	24030018 	li	v1,24
    15c0:	ac436b40 	sw	v1,27456(v0)
    15c4:	3c020000 	lui	v0,0x0
    15c8:	ac406b88 	sw	zero,27528(v0)
    15cc:	3c020000 	lui	v0,0x0
    15d0:	ac406b8c 	sw	zero,27532(v0)
    15d4:	3c020000 	lui	v0,0x0
    15d8:	ac406b90 	sw	zero,27536(v0)
    15dc:	3c020000 	lui	v0,0x0
    15e0:	ac406b94 	sw	zero,27540(v0)
    15e4:	3c020000 	lui	v0,0x0
    15e8:	ac406b98 	sw	zero,27544(v0)
    15ec:	3c020000 	lui	v0,0x0
    15f0:	ac406b9c 	sw	zero,27548(v0)
    15f4:	3c020000 	lui	v0,0x0
    15f8:	ac406ba0 	sw	zero,27552(v0)
    15fc:	3c020000 	lui	v0,0x0
    1600:	24030003 	li	v1,3
    1604:	ac436b44 	sw	v1,27460(v0)
    1608:	0c00085b 	jal	216c <led_blink>
    160c:	00000000 	nop
    1610:	3c020000 	lui	v0,0x0
    1614:	8fc30020 	lw	v1,32(s8)
    1618:	00000000 	nop
    161c:	ac436b54 	sw	v1,27476(v0)
    1620:	1000fe9a 	b	108c <main+0xdc>
    1624:	00000000 	nop
    1628:	3c020000 	lui	v0,0x0
    162c:	8c436b44 	lw	v1,27460(v0)
    1630:	24020003 	li	v0,3
    1634:	14620013 	bne	v1,v0,1684 <main+0x6d4>
    1638:	00000000 	nop
    163c:	3c020000 	lui	v0,0x0
    1640:	24456b04 	addiu	a1,v0,27396
    1644:	3c020000 	lui	v0,0x0
    1648:	24446b00 	addiu	a0,v0,27392
    164c:	0c0007be 	jal	1ef8 <kypd_scan_both>
    1650:	00000000 	nop
    1654:	0c00069b 	jal	1a6c <btn_check_0>
    1658:	00000000 	nop
    165c:	00401825 	move	v1,v0
    1660:	3c020000 	lui	v0,0x0
    1664:	ac436b68 	sw	v1,27496(v0)
    1668:	0c0006ac 	jal	1ab0 <btn_check_1>
    166c:	00000000 	nop
    1670:	00401825 	move	v1,v0
    1674:	3c020000 	lui	v0,0x0
    1678:	ac436b6c 	sw	v1,27500(v0)
    167c:	1000fe83 	b	108c <main+0xdc>
    1680:	00000000 	nop
    1684:	3c020000 	lui	v0,0x0
    1688:	8c436b44 	lw	v1,27460(v0)
    168c:	24020004 	li	v0,4
    1690:	1462fe7e 	bne	v1,v0,108c <main+0xdc>
    1694:	00000000 	nop
    1698:	0c00069b 	jal	1a6c <btn_check_0>
    169c:	00000000 	nop
    16a0:	afc20018 	sw	v0,24(s8)
    16a4:	0c0006ac 	jal	1ab0 <btn_check_1>
    16a8:	00000000 	nop
    16ac:	afc2001c 	sw	v0,28(s8)
    16b0:	8fc20018 	lw	v0,24(s8)
    16b4:	00000000 	nop
    16b8:	1040fe74 	beqz	v0,108c <main+0xdc>
    16bc:	00000000 	nop
    16c0:	8fc2001c 	lw	v0,28(s8)
    16c4:	00000000 	nop
    16c8:	1040fe70 	beqz	v0,108c <main+0xdc>
    16cc:	00000000 	nop
    16d0:	3c020000 	lui	v0,0x0
    16d4:	24030001 	li	v1,1
    16d8:	ac436b44 	sw	v1,27460(v0)
    16dc:	3c020000 	lui	v0,0x0
    16e0:	ac406b4c 	sw	zero,27468(v0)
    16e4:	0c0006df 	jal	1b7c <rotary_read>
    16e8:	00000000 	nop
    16ec:	00401825 	move	v1,v0
    16f0:	3c020000 	lui	v0,0x0
    16f4:	ac436ad8 	sw	v1,27352(v0)
    16f8:	1000fe64 	b	108c <main+0xdc>
    16fc:	00000000 	nop

00001700 <draw_mode_select>:
    1700:	27bdffc0 	addiu	sp,sp,-64
    1704:	afbf003c 	sw	ra,60(sp)
    1708:	afbe0038 	sw	s8,56(sp)
    170c:	03a0f025 	move	s8,sp
    1710:	afc40040 	sw	a0,64(s8)
    1714:	0c000953 	jal	254c <lcd_clear_vbuf>
    1718:	00000000 	nop
    171c:	3c020000 	lui	v0,0x0
    1720:	8c426b50 	lw	v0,27472(v0)
    1724:	00000000 	nop
    1728:	00021842 	srl	v1,v0,0x1
    172c:	24020006 	li	v0,6
    1730:	0062001b 	divu	zero,v1,v0
    1734:	14400002 	bnez	v0,1740 <draw_mode_select+0x40>
    1738:	00000000 	nop
    173c:	0007000d 	break	0x7
    1740:	00001010 	mfhi	v0
    1744:	afc20024 	sw	v0,36(s8)
    1748:	8fc20024 	lw	v0,36(s8)
    174c:	00000000 	nop
    1750:	2c420006 	sltiu	v0,v0,6
    1754:	10400032 	beqz	v0,1820 <draw_mode_select+0x120>
    1758:	00000000 	nop
    175c:	8fc20024 	lw	v0,36(s8)
    1760:	00000000 	nop
    1764:	00021880 	sll	v1,v0,0x2
    1768:	3c020000 	lui	v0,0x0
    176c:	24426a94 	addiu	v0,v0,27284
    1770:	00621021 	addu	v0,v1,v0
    1774:	8c420000 	lw	v0,0(v0)
    1778:	00000000 	nop
    177c:	00400008 	jr	v0
    1780:	00000000 	nop
    1784:	240200ff 	li	v0,255
    1788:	afc20018 	sw	v0,24(s8)
    178c:	afc0001c 	sw	zero,28(s8)
    1790:	afc00020 	sw	zero,32(s8)
    1794:	10000029 	b	183c <draw_mode_select+0x13c>
    1798:	00000000 	nop
    179c:	240200ff 	li	v0,255
    17a0:	afc20018 	sw	v0,24(s8)
    17a4:	240200ff 	li	v0,255
    17a8:	afc2001c 	sw	v0,28(s8)
    17ac:	afc00020 	sw	zero,32(s8)
    17b0:	10000022 	b	183c <draw_mode_select+0x13c>
    17b4:	00000000 	nop
    17b8:	afc00018 	sw	zero,24(s8)
    17bc:	240200ff 	li	v0,255
    17c0:	afc2001c 	sw	v0,28(s8)
    17c4:	afc00020 	sw	zero,32(s8)
    17c8:	1000001c 	b	183c <draw_mode_select+0x13c>
    17cc:	00000000 	nop
    17d0:	afc00018 	sw	zero,24(s8)
    17d4:	240200ff 	li	v0,255
    17d8:	afc2001c 	sw	v0,28(s8)
    17dc:	240200ff 	li	v0,255
    17e0:	afc20020 	sw	v0,32(s8)
    17e4:	10000015 	b	183c <draw_mode_select+0x13c>
    17e8:	00000000 	nop
    17ec:	afc00018 	sw	zero,24(s8)
    17f0:	afc0001c 	sw	zero,28(s8)
    17f4:	240200ff 	li	v0,255
    17f8:	afc20020 	sw	v0,32(s8)
    17fc:	1000000f 	b	183c <draw_mode_select+0x13c>
    1800:	00000000 	nop
    1804:	240200ff 	li	v0,255
    1808:	afc20018 	sw	v0,24(s8)
    180c:	afc0001c 	sw	zero,28(s8)
    1810:	240200ff 	li	v0,255
    1814:	afc20020 	sw	v0,32(s8)
    1818:	10000008 	b	183c <draw_mode_select+0x13c>
    181c:	00000000 	nop
    1820:	240200ff 	li	v0,255
    1824:	afc20018 	sw	v0,24(s8)
    1828:	240200ff 	li	v0,255
    182c:	afc2001c 	sw	v0,28(s8)
    1830:	240200ff 	li	v0,255
    1834:	afc20020 	sw	v0,32(s8)
    1838:	00000000 	nop
    183c:	8fc20020 	lw	v0,32(s8)
    1840:	00000000 	nop
    1844:	afa20014 	sw	v0,20(sp)
    1848:	8fc2001c 	lw	v0,28(s8)
    184c:	00000000 	nop
    1850:	afa20010 	sw	v0,16(sp)
    1854:	8fc70018 	lw	a3,24(s8)
    1858:	3c020000 	lui	v0,0x0
    185c:	24466a18 	addiu	a2,v0,27160
    1860:	00002825 	move	a1,zero
    1864:	00002025 	move	a0,zero
    1868:	0c000a8a 	jal	2a28 <lcd_puts_color>
    186c:	00000000 	nop
    1870:	3c020000 	lui	v0,0x0
    1874:	8c436b50 	lw	v1,27472(v0)
    1878:	24020003 	li	v0,3
    187c:	0062001b 	divu	zero,v1,v0
    1880:	14400002 	bnez	v0,188c <draw_mode_select+0x18c>
    1884:	00000000 	nop
    1888:	0007000d 	break	0x7
    188c:	00001010 	mfhi	v0
    1890:	00001012 	mflo	v0
    1894:	30420001 	andi	v0,v0,0x1
    1898:	afc20028 	sw	v0,40(s8)
    189c:	240200ff 	li	v0,255
    18a0:	afc2002c 	sw	v0,44(s8)
    18a4:	8fc20028 	lw	v0,40(s8)
    18a8:	00000000 	nop
    18ac:	10400004 	beqz	v0,18c0 <draw_mode_select+0x1c0>
    18b0:	00000000 	nop
    18b4:	240200ff 	li	v0,255
    18b8:	10000002 	b	18c4 <draw_mode_select+0x1c4>
    18bc:	00000000 	nop
    18c0:	00001025 	move	v0,zero
    18c4:	afc20030 	sw	v0,48(s8)
    18c8:	afc00034 	sw	zero,52(s8)
    18cc:	8fc20040 	lw	v0,64(s8)
    18d0:	00000000 	nop
    18d4:	14400010 	bnez	v0,1918 <draw_mode_select+0x218>
    18d8:	00000000 	nop
    18dc:	8fc20034 	lw	v0,52(s8)
    18e0:	00000000 	nop
    18e4:	afa20014 	sw	v0,20(sp)
    18e8:	8fc20030 	lw	v0,48(s8)
    18ec:	00000000 	nop
    18f0:	afa20010 	sw	v0,16(sp)
    18f4:	8fc7002c 	lw	a3,44(s8)
    18f8:	3c020000 	lui	v0,0x0
    18fc:	24466a28 	addiu	a2,v0,27176
    1900:	00002825 	move	a1,zero
    1904:	24040002 	li	a0,2
    1908:	0c000a8a 	jal	2a28 <lcd_puts_color>
    190c:	00000000 	nop
    1910:	1000000b 	b	1940 <draw_mode_select+0x240>
    1914:	00000000 	nop
    1918:	240200ff 	li	v0,255
    191c:	afa20014 	sw	v0,20(sp)
    1920:	afa00010 	sw	zero,16(sp)
    1924:	00003825 	move	a3,zero
    1928:	3c020000 	lui	v0,0x0
    192c:	24466a38 	addiu	a2,v0,27192
    1930:	00002825 	move	a1,zero
    1934:	24040002 	li	a0,2
    1938:	0c000a8a 	jal	2a28 <lcd_puts_color>
    193c:	00000000 	nop
    1940:	8fc30040 	lw	v1,64(s8)
    1944:	24020001 	li	v0,1
    1948:	14620010 	bne	v1,v0,198c <draw_mode_select+0x28c>
    194c:	00000000 	nop
    1950:	8fc20034 	lw	v0,52(s8)
    1954:	00000000 	nop
    1958:	afa20014 	sw	v0,20(sp)
    195c:	8fc20030 	lw	v0,48(s8)
    1960:	00000000 	nop
    1964:	afa20010 	sw	v0,16(sp)
    1968:	8fc7002c 	lw	a3,44(s8)
    196c:	3c020000 	lui	v0,0x0
    1970:	24466a48 	addiu	a2,v0,27208
    1974:	00002825 	move	a1,zero
    1978:	24040003 	li	a0,3
    197c:	0c000a8a 	jal	2a28 <lcd_puts_color>
    1980:	00000000 	nop
    1984:	1000000b 	b	19b4 <draw_mode_select+0x2b4>
    1988:	00000000 	nop
    198c:	240200ff 	li	v0,255
    1990:	afa20014 	sw	v0,20(sp)
    1994:	afa00010 	sw	zero,16(sp)
    1998:	00003825 	move	a3,zero
    199c:	3c020000 	lui	v0,0x0
    19a0:	24466a58 	addiu	a2,v0,27224
    19a4:	00002825 	move	a1,zero
    19a8:	24040003 	li	a0,3
    19ac:	0c000a8a 	jal	2a28 <lcd_puts_color>
    19b0:	00000000 	nop
    19b4:	8fc30040 	lw	v1,64(s8)
    19b8:	24020002 	li	v0,2
    19bc:	14620010 	bne	v1,v0,1a00 <draw_mode_select+0x300>
    19c0:	00000000 	nop
    19c4:	8fc20034 	lw	v0,52(s8)
    19c8:	00000000 	nop
    19cc:	afa20014 	sw	v0,20(sp)
    19d0:	8fc20030 	lw	v0,48(s8)
    19d4:	00000000 	nop
    19d8:	afa20010 	sw	v0,16(sp)
    19dc:	8fc7002c 	lw	a3,44(s8)
    19e0:	3c020000 	lui	v0,0x0
    19e4:	24466a68 	addiu	a2,v0,27240
    19e8:	00002825 	move	a1,zero
    19ec:	24040004 	li	a0,4
    19f0:	0c000a8a 	jal	2a28 <lcd_puts_color>
    19f4:	00000000 	nop
    19f8:	1000000b 	b	1a28 <draw_mode_select+0x328>
    19fc:	00000000 	nop
    1a00:	240200ff 	li	v0,255
    1a04:	afa20014 	sw	v0,20(sp)
    1a08:	afa00010 	sw	zero,16(sp)
    1a0c:	00003825 	move	a3,zero
    1a10:	3c020000 	lui	v0,0x0
    1a14:	24466a78 	addiu	a2,v0,27256
    1a18:	00002825 	move	a1,zero
    1a1c:	24040004 	li	a0,4
    1a20:	0c000a8a 	jal	2a28 <lcd_puts_color>
    1a24:	00000000 	nop
    1a28:	240200ff 	li	v0,255
    1a2c:	afa20014 	sw	v0,20(sp)
    1a30:	afa00010 	sw	zero,16(sp)
    1a34:	240700ff 	li	a3,255
    1a38:	3c020000 	lui	v0,0x0
    1a3c:	24466a88 	addiu	a2,v0,27272
    1a40:	00002825 	move	a1,zero
    1a44:	24040007 	li	a0,7
    1a48:	0c000a8a 	jal	2a28 <lcd_puts_color>
    1a4c:	00000000 	nop
    1a50:	00000000 	nop
    1a54:	03c0e825 	move	sp,s8
    1a58:	8fbf003c 	lw	ra,60(sp)
    1a5c:	8fbe0038 	lw	s8,56(sp)
    1a60:	27bd0040 	addiu	sp,sp,64
    1a64:	03e00008 	jr	ra
    1a68:	00000000 	nop

00001a6c <btn_check_0>:
    1a6c:	27bdfff0 	addiu	sp,sp,-16
    1a70:	afbe000c 	sw	s8,12(sp)
    1a74:	03a0f025 	move	s8,sp
    1a78:	3402ff04 	li	v0,0xff04
    1a7c:	afc20000 	sw	v0,0(s8)
    1a80:	8fc20000 	lw	v0,0(s8)
    1a84:	00000000 	nop
    1a88:	8c420000 	lw	v0,0(v0)
    1a8c:	00000000 	nop
    1a90:	30420010 	andi	v0,v0,0x10
    1a94:	0002102b 	sltu	v0,zero,v0
    1a98:	304200ff 	andi	v0,v0,0xff
    1a9c:	03c0e825 	move	sp,s8
    1aa0:	8fbe000c 	lw	s8,12(sp)
    1aa4:	27bd0010 	addiu	sp,sp,16
    1aa8:	03e00008 	jr	ra
    1aac:	00000000 	nop

00001ab0 <btn_check_1>:
    1ab0:	27bdfff0 	addiu	sp,sp,-16
    1ab4:	afbe000c 	sw	s8,12(sp)
    1ab8:	03a0f025 	move	s8,sp
    1abc:	3402ff04 	li	v0,0xff04
    1ac0:	afc20000 	sw	v0,0(s8)
    1ac4:	8fc20000 	lw	v0,0(s8)
    1ac8:	00000000 	nop
    1acc:	8c420000 	lw	v0,0(v0)
    1ad0:	00000000 	nop
    1ad4:	30420020 	andi	v0,v0,0x20
    1ad8:	0002102b 	sltu	v0,zero,v0
    1adc:	304200ff 	andi	v0,v0,0xff
    1ae0:	03c0e825 	move	sp,s8
    1ae4:	8fbe000c 	lw	s8,12(sp)
    1ae8:	27bd0010 	addiu	sp,sp,16
    1aec:	03e00008 	jr	ra
    1af0:	00000000 	nop

00001af4 <btn_check_2>:
    1af4:	27bdfff0 	addiu	sp,sp,-16
    1af8:	afbe000c 	sw	s8,12(sp)
    1afc:	03a0f025 	move	s8,sp
    1b00:	3402ff04 	li	v0,0xff04
    1b04:	afc20000 	sw	v0,0(s8)
    1b08:	8fc20000 	lw	v0,0(s8)
    1b0c:	00000000 	nop
    1b10:	8c420000 	lw	v0,0(v0)
    1b14:	00000000 	nop
    1b18:	30420040 	andi	v0,v0,0x40
    1b1c:	0002102b 	sltu	v0,zero,v0
    1b20:	304200ff 	andi	v0,v0,0xff
    1b24:	03c0e825 	move	sp,s8
    1b28:	8fbe000c 	lw	s8,12(sp)
    1b2c:	27bd0010 	addiu	sp,sp,16
    1b30:	03e00008 	jr	ra
    1b34:	00000000 	nop

00001b38 <btn_check_3>:
    1b38:	27bdfff0 	addiu	sp,sp,-16
    1b3c:	afbe000c 	sw	s8,12(sp)
    1b40:	03a0f025 	move	s8,sp
    1b44:	3402ff04 	li	v0,0xff04
    1b48:	afc20000 	sw	v0,0(s8)
    1b4c:	8fc20000 	lw	v0,0(s8)
    1b50:	00000000 	nop
    1b54:	8c420000 	lw	v0,0(v0)
    1b58:	00000000 	nop
    1b5c:	30420080 	andi	v0,v0,0x80
    1b60:	0002102b 	sltu	v0,zero,v0
    1b64:	304200ff 	andi	v0,v0,0xff
    1b68:	03c0e825 	move	sp,s8
    1b6c:	8fbe000c 	lw	s8,12(sp)
    1b70:	27bd0010 	addiu	sp,sp,16
    1b74:	03e00008 	jr	ra
    1b78:	00000000 	nop

00001b7c <rotary_read>:
    1b7c:	27bdfff0 	addiu	sp,sp,-16
    1b80:	afbe000c 	sw	s8,12(sp)
    1b84:	03a0f025 	move	s8,sp
    1b88:	3402ff10 	li	v0,0xff10
    1b8c:	afc20000 	sw	v0,0(s8)
    1b90:	8fc20000 	lw	v0,0(s8)
    1b94:	00000000 	nop
    1b98:	8c420000 	lw	v0,0(v0)
    1b9c:	00000000 	nop
    1ba0:	afc20004 	sw	v0,4(s8)
    1ba4:	8fc20004 	lw	v0,4(s8)
    1ba8:	00000000 	nop
    1bac:	00021083 	sra	v0,v0,0x2
    1bb0:	304200ff 	andi	v0,v0,0xff
    1bb4:	03c0e825 	move	sp,s8
    1bb8:	8fbe000c 	lw	s8,12(sp)
    1bbc:	27bd0010 	addiu	sp,sp,16
    1bc0:	03e00008 	jr	ra
    1bc4:	00000000 	nop

00001bc8 <tiny_wait>:
    1bc8:	27bdfff0 	addiu	sp,sp,-16
    1bcc:	afbe000c 	sw	s8,12(sp)
    1bd0:	03a0f025 	move	s8,sp
    1bd4:	afc40010 	sw	a0,16(s8)
    1bd8:	afc00000 	sw	zero,0(s8)
    1bdc:	10000005 	b	1bf4 <tiny_wait+0x2c>
    1be0:	00000000 	nop
    1be4:	8fc20000 	lw	v0,0(s8)
    1be8:	00000000 	nop
    1bec:	24420001 	addiu	v0,v0,1
    1bf0:	afc20000 	sw	v0,0(s8)
    1bf4:	8fc20000 	lw	v0,0(s8)
    1bf8:	8fc30010 	lw	v1,16(s8)
    1bfc:	00000000 	nop
    1c00:	0043102a 	slt	v0,v0,v1
    1c04:	1440fff7 	bnez	v0,1be4 <tiny_wait+0x1c>
    1c08:	00000000 	nop
    1c0c:	00000000 	nop
    1c10:	03c0e825 	move	sp,s8
    1c14:	8fbe000c 	lw	s8,12(sp)
    1c18:	27bd0010 	addiu	sp,sp,16
    1c1c:	03e00008 	jr	ra
    1c20:	00000000 	nop

00001c24 <kypd_scan>:
    1c24:	27bdffe0 	addiu	sp,sp,-32
    1c28:	afbf001c 	sw	ra,28(sp)
    1c2c:	afbe0018 	sw	s8,24(sp)
    1c30:	03a0f025 	move	s8,sp
    1c34:	3402ff18 	li	v0,0xff18
    1c38:	afc20010 	sw	v0,16(s8)
    1c3c:	8fc20010 	lw	v0,16(s8)
    1c40:	24030007 	li	v1,7
    1c44:	ac430000 	sw	v1,0(v0)
    1c48:	2404012c 	li	a0,300
    1c4c:	0c0006f2 	jal	1bc8 <tiny_wait>
    1c50:	00000000 	nop
    1c54:	8fc20010 	lw	v0,16(s8)
    1c58:	00000000 	nop
    1c5c:	8c420000 	lw	v0,0(v0)
    1c60:	00000000 	nop
    1c64:	a3c20014 	sb	v0,20(s8)
    1c68:	83c20014 	lb	v0,20(s8)
    1c6c:	00000000 	nop
    1c70:	04400004 	bltz	v0,1c84 <kypd_scan+0x60>
    1c74:	00000000 	nop
    1c78:	24020001 	li	v0,1
    1c7c:	10000098 	b	1ee0 <kypd_scan+0x2bc>
    1c80:	00000000 	nop
    1c84:	93c20014 	lbu	v0,20(s8)
    1c88:	00000000 	nop
    1c8c:	30420040 	andi	v0,v0,0x40
    1c90:	14400004 	bnez	v0,1ca4 <kypd_scan+0x80>
    1c94:	00000000 	nop
    1c98:	24020004 	li	v0,4
    1c9c:	10000090 	b	1ee0 <kypd_scan+0x2bc>
    1ca0:	00000000 	nop
    1ca4:	93c20014 	lbu	v0,20(s8)
    1ca8:	00000000 	nop
    1cac:	30420020 	andi	v0,v0,0x20
    1cb0:	14400004 	bnez	v0,1cc4 <kypd_scan+0xa0>
    1cb4:	00000000 	nop
    1cb8:	24020007 	li	v0,7
    1cbc:	10000088 	b	1ee0 <kypd_scan+0x2bc>
    1cc0:	00000000 	nop
    1cc4:	93c20014 	lbu	v0,20(s8)
    1cc8:	00000000 	nop
    1ccc:	30420010 	andi	v0,v0,0x10
    1cd0:	14400004 	bnez	v0,1ce4 <kypd_scan+0xc0>
    1cd4:	00000000 	nop
    1cd8:	00001025 	move	v0,zero
    1cdc:	10000080 	b	1ee0 <kypd_scan+0x2bc>
    1ce0:	00000000 	nop
    1ce4:	8fc20010 	lw	v0,16(s8)
    1ce8:	2403000b 	li	v1,11
    1cec:	ac430000 	sw	v1,0(v0)
    1cf0:	2404012c 	li	a0,300
    1cf4:	0c0006f2 	jal	1bc8 <tiny_wait>
    1cf8:	00000000 	nop
    1cfc:	8fc20010 	lw	v0,16(s8)
    1d00:	00000000 	nop
    1d04:	8c420000 	lw	v0,0(v0)
    1d08:	00000000 	nop
    1d0c:	a3c20014 	sb	v0,20(s8)
    1d10:	83c20014 	lb	v0,20(s8)
    1d14:	00000000 	nop
    1d18:	04400004 	bltz	v0,1d2c <kypd_scan+0x108>
    1d1c:	00000000 	nop
    1d20:	24020002 	li	v0,2
    1d24:	1000006e 	b	1ee0 <kypd_scan+0x2bc>
    1d28:	00000000 	nop
    1d2c:	93c20014 	lbu	v0,20(s8)
    1d30:	00000000 	nop
    1d34:	30420040 	andi	v0,v0,0x40
    1d38:	14400004 	bnez	v0,1d4c <kypd_scan+0x128>
    1d3c:	00000000 	nop
    1d40:	24020005 	li	v0,5
    1d44:	10000066 	b	1ee0 <kypd_scan+0x2bc>
    1d48:	00000000 	nop
    1d4c:	93c20014 	lbu	v0,20(s8)
    1d50:	00000000 	nop
    1d54:	30420020 	andi	v0,v0,0x20
    1d58:	14400004 	bnez	v0,1d6c <kypd_scan+0x148>
    1d5c:	00000000 	nop
    1d60:	24020008 	li	v0,8
    1d64:	1000005e 	b	1ee0 <kypd_scan+0x2bc>
    1d68:	00000000 	nop
    1d6c:	93c20014 	lbu	v0,20(s8)
    1d70:	00000000 	nop
    1d74:	30420010 	andi	v0,v0,0x10
    1d78:	14400004 	bnez	v0,1d8c <kypd_scan+0x168>
    1d7c:	00000000 	nop
    1d80:	2402000f 	li	v0,15
    1d84:	10000056 	b	1ee0 <kypd_scan+0x2bc>
    1d88:	00000000 	nop
    1d8c:	8fc20010 	lw	v0,16(s8)
    1d90:	2403000d 	li	v1,13
    1d94:	ac430000 	sw	v1,0(v0)
    1d98:	2404012c 	li	a0,300
    1d9c:	0c0006f2 	jal	1bc8 <tiny_wait>
    1da0:	00000000 	nop
    1da4:	8fc20010 	lw	v0,16(s8)
    1da8:	00000000 	nop
    1dac:	8c420000 	lw	v0,0(v0)
    1db0:	00000000 	nop
    1db4:	a3c20014 	sb	v0,20(s8)
    1db8:	83c20014 	lb	v0,20(s8)
    1dbc:	00000000 	nop
    1dc0:	04400004 	bltz	v0,1dd4 <kypd_scan+0x1b0>
    1dc4:	00000000 	nop
    1dc8:	24020003 	li	v0,3
    1dcc:	10000044 	b	1ee0 <kypd_scan+0x2bc>
    1dd0:	00000000 	nop
    1dd4:	93c20014 	lbu	v0,20(s8)
    1dd8:	00000000 	nop
    1ddc:	30420040 	andi	v0,v0,0x40
    1de0:	14400004 	bnez	v0,1df4 <kypd_scan+0x1d0>
    1de4:	00000000 	nop
    1de8:	24020006 	li	v0,6
    1dec:	1000003c 	b	1ee0 <kypd_scan+0x2bc>
    1df0:	00000000 	nop
    1df4:	93c20014 	lbu	v0,20(s8)
    1df8:	00000000 	nop
    1dfc:	30420020 	andi	v0,v0,0x20
    1e00:	14400004 	bnez	v0,1e14 <kypd_scan+0x1f0>
    1e04:	00000000 	nop
    1e08:	24020009 	li	v0,9
    1e0c:	10000034 	b	1ee0 <kypd_scan+0x2bc>
    1e10:	00000000 	nop
    1e14:	93c20014 	lbu	v0,20(s8)
    1e18:	00000000 	nop
    1e1c:	30420010 	andi	v0,v0,0x10
    1e20:	14400004 	bnez	v0,1e34 <kypd_scan+0x210>
    1e24:	00000000 	nop
    1e28:	2402000e 	li	v0,14
    1e2c:	1000002c 	b	1ee0 <kypd_scan+0x2bc>
    1e30:	00000000 	nop
    1e34:	8fc20010 	lw	v0,16(s8)
    1e38:	2403000e 	li	v1,14
    1e3c:	ac430000 	sw	v1,0(v0)
    1e40:	2404012c 	li	a0,300
    1e44:	0c0006f2 	jal	1bc8 <tiny_wait>
    1e48:	00000000 	nop
    1e4c:	8fc20010 	lw	v0,16(s8)
    1e50:	00000000 	nop
    1e54:	8c420000 	lw	v0,0(v0)
    1e58:	00000000 	nop
    1e5c:	a3c20014 	sb	v0,20(s8)
    1e60:	83c20014 	lb	v0,20(s8)
    1e64:	00000000 	nop
    1e68:	04400004 	bltz	v0,1e7c <kypd_scan+0x258>
    1e6c:	00000000 	nop
    1e70:	2402000a 	li	v0,10
    1e74:	1000001a 	b	1ee0 <kypd_scan+0x2bc>
    1e78:	00000000 	nop
    1e7c:	93c20014 	lbu	v0,20(s8)
    1e80:	00000000 	nop
    1e84:	30420040 	andi	v0,v0,0x40
    1e88:	14400004 	bnez	v0,1e9c <kypd_scan+0x278>
    1e8c:	00000000 	nop
    1e90:	2402000b 	li	v0,11
    1e94:	10000012 	b	1ee0 <kypd_scan+0x2bc>
    1e98:	00000000 	nop
    1e9c:	93c20014 	lbu	v0,20(s8)
    1ea0:	00000000 	nop
    1ea4:	30420020 	andi	v0,v0,0x20
    1ea8:	14400004 	bnez	v0,1ebc <kypd_scan+0x298>
    1eac:	00000000 	nop
    1eb0:	2402000c 	li	v0,12
    1eb4:	1000000a 	b	1ee0 <kypd_scan+0x2bc>
    1eb8:	00000000 	nop
    1ebc:	93c20014 	lbu	v0,20(s8)
    1ec0:	00000000 	nop
    1ec4:	30420010 	andi	v0,v0,0x10
    1ec8:	14400004 	bnez	v0,1edc <kypd_scan+0x2b8>
    1ecc:	00000000 	nop
    1ed0:	2402000d 	li	v0,13
    1ed4:	10000002 	b	1ee0 <kypd_scan+0x2bc>
    1ed8:	00000000 	nop
    1edc:	2402ffff 	li	v0,-1
    1ee0:	03c0e825 	move	sp,s8
    1ee4:	8fbf001c 	lw	ra,28(sp)
    1ee8:	8fbe0018 	lw	s8,24(sp)
    1eec:	27bd0020 	addiu	sp,sp,32
    1ef0:	03e00008 	jr	ra
    1ef4:	00000000 	nop

00001ef8 <kypd_scan_both>:
    1ef8:	27bdffd8 	addiu	sp,sp,-40
    1efc:	afbf0024 	sw	ra,36(sp)
    1f00:	afbe0020 	sw	s8,32(sp)
    1f04:	03a0f025 	move	s8,sp
    1f08:	afc40028 	sw	a0,40(s8)
    1f0c:	afc5002c 	sw	a1,44(s8)
    1f10:	3402ff18 	li	v0,0xff18
    1f14:	afc20018 	sw	v0,24(s8)
    1f18:	2402ffff 	li	v0,-1
    1f1c:	afc20010 	sw	v0,16(s8)
    1f20:	2402ffff 	li	v0,-1
    1f24:	afc20014 	sw	v0,20(s8)
    1f28:	8fc20018 	lw	v0,24(s8)
    1f2c:	24030007 	li	v1,7
    1f30:	ac430000 	sw	v1,0(v0)
    1f34:	2404012c 	li	a0,300
    1f38:	0c0006f2 	jal	1bc8 <tiny_wait>
    1f3c:	00000000 	nop
    1f40:	8fc20018 	lw	v0,24(s8)
    1f44:	00000000 	nop
    1f48:	8c420000 	lw	v0,0(v0)
    1f4c:	00000000 	nop
    1f50:	a3c2001c 	sb	v0,28(s8)
    1f54:	83c2001c 	lb	v0,28(s8)
    1f58:	00000000 	nop
    1f5c:	04400003 	bltz	v0,1f6c <kypd_scan_both+0x74>
    1f60:	00000000 	nop
    1f64:	24020001 	li	v0,1
    1f68:	afc20010 	sw	v0,16(s8)
    1f6c:	93c2001c 	lbu	v0,28(s8)
    1f70:	00000000 	nop
    1f74:	30420040 	andi	v0,v0,0x40
    1f78:	14400003 	bnez	v0,1f88 <kypd_scan_both+0x90>
    1f7c:	00000000 	nop
    1f80:	24020004 	li	v0,4
    1f84:	afc20010 	sw	v0,16(s8)
    1f88:	93c2001c 	lbu	v0,28(s8)
    1f8c:	00000000 	nop
    1f90:	30420020 	andi	v0,v0,0x20
    1f94:	14400003 	bnez	v0,1fa4 <kypd_scan_both+0xac>
    1f98:	00000000 	nop
    1f9c:	24020007 	li	v0,7
    1fa0:	afc20010 	sw	v0,16(s8)
    1fa4:	8fc20018 	lw	v0,24(s8)
    1fa8:	2403000b 	li	v1,11
    1fac:	ac430000 	sw	v1,0(v0)
    1fb0:	2404012c 	li	a0,300
    1fb4:	0c0006f2 	jal	1bc8 <tiny_wait>
    1fb8:	00000000 	nop
    1fbc:	8fc20018 	lw	v0,24(s8)
    1fc0:	00000000 	nop
    1fc4:	8c420000 	lw	v0,0(v0)
    1fc8:	00000000 	nop
    1fcc:	a3c2001c 	sb	v0,28(s8)
    1fd0:	93c2001c 	lbu	v0,28(s8)
    1fd4:	00000000 	nop
    1fd8:	30420040 	andi	v0,v0,0x40
    1fdc:	14400003 	bnez	v0,1fec <kypd_scan_both+0xf4>
    1fe0:	00000000 	nop
    1fe4:	24020005 	li	v0,5
    1fe8:	afc20010 	sw	v0,16(s8)
    1fec:	93c2001c 	lbu	v0,28(s8)
    1ff0:	00000000 	nop
    1ff4:	30420020 	andi	v0,v0,0x20
    1ff8:	14400003 	bnez	v0,2008 <kypd_scan_both+0x110>
    1ffc:	00000000 	nop
    2000:	24020008 	li	v0,8
    2004:	afc20010 	sw	v0,16(s8)
    2008:	8fc20018 	lw	v0,24(s8)
    200c:	2403000d 	li	v1,13
    2010:	ac430000 	sw	v1,0(v0)
    2014:	2404012c 	li	a0,300
    2018:	0c0006f2 	jal	1bc8 <tiny_wait>
    201c:	00000000 	nop
    2020:	8fc20018 	lw	v0,24(s8)
    2024:	00000000 	nop
    2028:	8c420000 	lw	v0,0(v0)
    202c:	00000000 	nop
    2030:	a3c2001c 	sb	v0,28(s8)
    2034:	83c2001c 	lb	v0,28(s8)
    2038:	00000000 	nop
    203c:	04400003 	bltz	v0,204c <kypd_scan_both+0x154>
    2040:	00000000 	nop
    2044:	24020003 	li	v0,3
    2048:	afc20014 	sw	v0,20(s8)
    204c:	93c2001c 	lbu	v0,28(s8)
    2050:	00000000 	nop
    2054:	30420040 	andi	v0,v0,0x40
    2058:	14400003 	bnez	v0,2068 <kypd_scan_both+0x170>
    205c:	00000000 	nop
    2060:	24020006 	li	v0,6
    2064:	afc20014 	sw	v0,20(s8)
    2068:	8fc20018 	lw	v0,24(s8)
    206c:	2403000e 	li	v1,14
    2070:	ac430000 	sw	v1,0(v0)
    2074:	2404012c 	li	a0,300
    2078:	0c0006f2 	jal	1bc8 <tiny_wait>
    207c:	00000000 	nop
    2080:	8fc20018 	lw	v0,24(s8)
    2084:	00000000 	nop
    2088:	8c420000 	lw	v0,0(v0)
    208c:	00000000 	nop
    2090:	a3c2001c 	sb	v0,28(s8)
    2094:	83c2001c 	lb	v0,28(s8)
    2098:	00000000 	nop
    209c:	04400003 	bltz	v0,20ac <kypd_scan_both+0x1b4>
    20a0:	00000000 	nop
    20a4:	2402000a 	li	v0,10
    20a8:	afc20014 	sw	v0,20(s8)
    20ac:	93c2001c 	lbu	v0,28(s8)
    20b0:	00000000 	nop
    20b4:	30420040 	andi	v0,v0,0x40
    20b8:	14400003 	bnez	v0,20c8 <kypd_scan_both+0x1d0>
    20bc:	00000000 	nop
    20c0:	2402000b 	li	v0,11
    20c4:	afc20014 	sw	v0,20(s8)
    20c8:	93c2001c 	lbu	v0,28(s8)
    20cc:	00000000 	nop
    20d0:	30420020 	andi	v0,v0,0x20
    20d4:	14400003 	bnez	v0,20e4 <kypd_scan_both+0x1ec>
    20d8:	00000000 	nop
    20dc:	2402000c 	li	v0,12
    20e0:	afc20014 	sw	v0,20(s8)
    20e4:	8fc20028 	lw	v0,40(s8)
    20e8:	8fc30010 	lw	v1,16(s8)
    20ec:	00000000 	nop
    20f0:	ac430000 	sw	v1,0(v0)
    20f4:	8fc2002c 	lw	v0,44(s8)
    20f8:	8fc30014 	lw	v1,20(s8)
    20fc:	00000000 	nop
    2100:	ac430000 	sw	v1,0(v0)
    2104:	24040064 	li	a0,100
    2108:	0c0006f2 	jal	1bc8 <tiny_wait>
    210c:	00000000 	nop
    2110:	00000000 	nop
    2114:	03c0e825 	move	sp,s8
    2118:	8fbf0024 	lw	ra,36(sp)
    211c:	8fbe0020 	lw	s8,32(sp)
    2120:	27bd0028 	addiu	sp,sp,40
    2124:	03e00008 	jr	ra
    2128:	00000000 	nop

0000212c <led_set>:
    212c:	27bdfff0 	addiu	sp,sp,-16
    2130:	afbe000c 	sw	s8,12(sp)
    2134:	03a0f025 	move	s8,sp
    2138:	afc40010 	sw	a0,16(s8)
    213c:	3402ff08 	li	v0,0xff08
    2140:	afc20000 	sw	v0,0(s8)
    2144:	8fc20000 	lw	v0,0(s8)
    2148:	8fc30010 	lw	v1,16(s8)
    214c:	00000000 	nop
    2150:	ac430000 	sw	v1,0(v0)
    2154:	00000000 	nop
    2158:	03c0e825 	move	sp,s8
    215c:	8fbe000c 	lw	s8,12(sp)
    2160:	27bd0010 	addiu	sp,sp,16
    2164:	03e00008 	jr	ra
    2168:	00000000 	nop

0000216c <led_blink>:
    216c:	27bdffe0 	addiu	sp,sp,-32
    2170:	afbf001c 	sw	ra,28(sp)
    2174:	afbe0018 	sw	s8,24(sp)
    2178:	03a0f025 	move	s8,sp
    217c:	2404000f 	li	a0,15
    2180:	0c00084b 	jal	212c <led_set>
    2184:	00000000 	nop
    2188:	afc00010 	sw	zero,16(s8)
    218c:	10000005 	b	21a4 <led_blink+0x38>
    2190:	00000000 	nop
    2194:	8fc20010 	lw	v0,16(s8)
    2198:	00000000 	nop
    219c:	24420001 	addiu	v0,v0,1
    21a0:	afc20010 	sw	v0,16(s8)
    21a4:	8fc30010 	lw	v1,16(s8)
    21a8:	3c020001 	lui	v0,0x1
    21ac:	344286a0 	ori	v0,v0,0x86a0
    21b0:	0062102a 	slt	v0,v1,v0
    21b4:	1440fff7 	bnez	v0,2194 <led_blink+0x28>
    21b8:	00000000 	nop
    21bc:	00002025 	move	a0,zero
    21c0:	0c00084b 	jal	212c <led_set>
    21c4:	00000000 	nop
    21c8:	00000000 	nop
    21cc:	03c0e825 	move	sp,s8
    21d0:	8fbf001c 	lw	ra,28(sp)
    21d4:	8fbe0018 	lw	s8,24(sp)
    21d8:	27bd0020 	addiu	sp,sp,32
    21dc:	03e00008 	jr	ra
    21e0:	00000000 	nop

000021e4 <buzzer_play>:
    21e4:	27bdfff0 	addiu	sp,sp,-16
    21e8:	afbe000c 	sw	s8,12(sp)
    21ec:	03a0f025 	move	s8,sp
    21f0:	afc40010 	sw	a0,16(s8)
    21f4:	3402ff14 	li	v0,0xff14
    21f8:	afc20000 	sw	v0,0(s8)
    21fc:	8fc20000 	lw	v0,0(s8)
    2200:	8fc30010 	lw	v1,16(s8)
    2204:	00000000 	nop
    2208:	ac430000 	sw	v1,0(v0)
    220c:	00000000 	nop
    2210:	03c0e825 	move	sp,s8
    2214:	8fbe000c 	lw	s8,12(sp)
    2218:	27bd0010 	addiu	sp,sp,16
    221c:	03e00008 	jr	ra
    2220:	00000000 	nop

00002224 <buzzer_stop>:
    2224:	27bdfff0 	addiu	sp,sp,-16
    2228:	afbe000c 	sw	s8,12(sp)
    222c:	03a0f025 	move	s8,sp
    2230:	3402ff14 	li	v0,0xff14
    2234:	afc20000 	sw	v0,0(s8)
    2238:	8fc20000 	lw	v0,0(s8)
    223c:	00000000 	nop
    2240:	ac400000 	sw	zero,0(v0)
    2244:	00000000 	nop
    2248:	03c0e825 	move	sp,s8
    224c:	8fbe000c 	lw	s8,12(sp)
    2250:	27bd0010 	addiu	sp,sp,16
    2254:	03e00008 	jr	ra
    2258:	00000000 	nop

0000225c <lcd_wait>:
    225c:	27bdfff0 	addiu	sp,sp,-16
    2260:	afbe000c 	sw	s8,12(sp)
    2264:	03a0f025 	move	s8,sp
    2268:	afc40010 	sw	a0,16(s8)
    226c:	afc00000 	sw	zero,0(s8)
    2270:	10000005 	b	2288 <lcd_wait+0x2c>
    2274:	00000000 	nop
    2278:	8fc20000 	lw	v0,0(s8)
    227c:	00000000 	nop
    2280:	24420001 	addiu	v0,v0,1
    2284:	afc20000 	sw	v0,0(s8)
    2288:	8fc30000 	lw	v1,0(s8)
    228c:	8fc20010 	lw	v0,16(s8)
    2290:	00000000 	nop
    2294:	0062102a 	slt	v0,v1,v0
    2298:	1440fff7 	bnez	v0,2278 <lcd_wait+0x1c>
    229c:	00000000 	nop
    22a0:	00000000 	nop
    22a4:	03c0e825 	move	sp,s8
    22a8:	8fbe000c 	lw	s8,12(sp)
    22ac:	27bd0010 	addiu	sp,sp,16
    22b0:	03e00008 	jr	ra
    22b4:	00000000 	nop

000022b8 <lcd_cmd>:
    22b8:	27bdffe0 	addiu	sp,sp,-32
    22bc:	afbf001c 	sw	ra,28(sp)
    22c0:	afbe0018 	sw	s8,24(sp)
    22c4:	03a0f025 	move	s8,sp
    22c8:	00801025 	move	v0,a0
    22cc:	a3c20020 	sb	v0,32(s8)
    22d0:	3402ff0c 	li	v0,0xff0c
    22d4:	afc20010 	sw	v0,16(s8)
    22d8:	93c30020 	lbu	v1,32(s8)
    22dc:	8fc20010 	lw	v0,16(s8)
    22e0:	00000000 	nop
    22e4:	ac430000 	sw	v1,0(v0)
    22e8:	240403e8 	li	a0,1000
    22ec:	0c000897 	jal	225c <lcd_wait>
    22f0:	00000000 	nop
    22f4:	00000000 	nop
    22f8:	03c0e825 	move	sp,s8
    22fc:	8fbf001c 	lw	ra,28(sp)
    2300:	8fbe0018 	lw	s8,24(sp)
    2304:	27bd0020 	addiu	sp,sp,32
    2308:	03e00008 	jr	ra
    230c:	00000000 	nop

00002310 <lcd_data>:
    2310:	27bdffe0 	addiu	sp,sp,-32
    2314:	afbf001c 	sw	ra,28(sp)
    2318:	afbe0018 	sw	s8,24(sp)
    231c:	03a0f025 	move	s8,sp
    2320:	00801025 	move	v0,a0
    2324:	a3c20020 	sb	v0,32(s8)
    2328:	3402ff0c 	li	v0,0xff0c
    232c:	afc20010 	sw	v0,16(s8)
    2330:	93c20020 	lbu	v0,32(s8)
    2334:	00000000 	nop
    2338:	34430100 	ori	v1,v0,0x100
    233c:	8fc20010 	lw	v0,16(s8)
    2340:	00000000 	nop
    2344:	ac430000 	sw	v1,0(v0)
    2348:	240400c8 	li	a0,200
    234c:	0c000897 	jal	225c <lcd_wait>
    2350:	00000000 	nop
    2354:	00000000 	nop
    2358:	03c0e825 	move	sp,s8
    235c:	8fbf001c 	lw	ra,28(sp)
    2360:	8fbe0018 	lw	s8,24(sp)
    2364:	27bd0020 	addiu	sp,sp,32
    2368:	03e00008 	jr	ra
    236c:	00000000 	nop

00002370 <lcd_pwr_on>:
    2370:	27bdffe0 	addiu	sp,sp,-32
    2374:	afbf001c 	sw	ra,28(sp)
    2378:	afbe0018 	sw	s8,24(sp)
    237c:	03a0f025 	move	s8,sp
    2380:	3402ff0c 	li	v0,0xff0c
    2384:	afc20010 	sw	v0,16(s8)
    2388:	8fc20010 	lw	v0,16(s8)
    238c:	24030200 	li	v1,512
    2390:	ac430000 	sw	v1,0(v0)
    2394:	3c02000a 	lui	v0,0xa
    2398:	3444ae60 	ori	a0,v0,0xae60
    239c:	0c000897 	jal	225c <lcd_wait>
    23a0:	00000000 	nop
    23a4:	00000000 	nop
    23a8:	03c0e825 	move	sp,s8
    23ac:	8fbf001c 	lw	ra,28(sp)
    23b0:	8fbe0018 	lw	s8,24(sp)
    23b4:	27bd0020 	addiu	sp,sp,32
    23b8:	03e00008 	jr	ra
    23bc:	00000000 	nop

000023c0 <lcd_init>:
    23c0:	27bdffe8 	addiu	sp,sp,-24
    23c4:	afbf0014 	sw	ra,20(sp)
    23c8:	afbe0010 	sw	s8,16(sp)
    23cc:	03a0f025 	move	s8,sp
    23d0:	0c0008dc 	jal	2370 <lcd_pwr_on>
    23d4:	00000000 	nop
    23d8:	240400a0 	li	a0,160
    23dc:	0c0008ae 	jal	22b8 <lcd_cmd>
    23e0:	00000000 	nop
    23e4:	24040020 	li	a0,32
    23e8:	0c0008ae 	jal	22b8 <lcd_cmd>
    23ec:	00000000 	nop
    23f0:	24040015 	li	a0,21
    23f4:	0c0008ae 	jal	22b8 <lcd_cmd>
    23f8:	00000000 	nop
    23fc:	00002025 	move	a0,zero
    2400:	0c0008ae 	jal	22b8 <lcd_cmd>
    2404:	00000000 	nop
    2408:	2404005f 	li	a0,95
    240c:	0c0008ae 	jal	22b8 <lcd_cmd>
    2410:	00000000 	nop
    2414:	24040075 	li	a0,117
    2418:	0c0008ae 	jal	22b8 <lcd_cmd>
    241c:	00000000 	nop
    2420:	00002025 	move	a0,zero
    2424:	0c0008ae 	jal	22b8 <lcd_cmd>
    2428:	00000000 	nop
    242c:	2404003f 	li	a0,63
    2430:	0c0008ae 	jal	22b8 <lcd_cmd>
    2434:	00000000 	nop
    2438:	240400af 	li	a0,175
    243c:	0c0008ae 	jal	22b8 <lcd_cmd>
    2440:	00000000 	nop
    2444:	00000000 	nop
    2448:	03c0e825 	move	sp,s8
    244c:	8fbf0014 	lw	ra,20(sp)
    2450:	8fbe0010 	lw	s8,16(sp)
    2454:	27bd0018 	addiu	sp,sp,24
    2458:	03e00008 	jr	ra
    245c:	00000000 	nop

00002460 <lcd_set_vbuf_pixel>:
    2460:	27bdfff8 	addiu	sp,sp,-8
    2464:	afbe0004 	sw	s8,4(sp)
    2468:	03a0f025 	move	s8,sp
    246c:	afc40008 	sw	a0,8(s8)
    2470:	afc5000c 	sw	a1,12(s8)
    2474:	afc60010 	sw	a2,16(s8)
    2478:	afc70014 	sw	a3,20(s8)
    247c:	8fc20010 	lw	v0,16(s8)
    2480:	00000000 	nop
    2484:	00021143 	sra	v0,v0,0x5
    2488:	afc20010 	sw	v0,16(s8)
    248c:	8fc20014 	lw	v0,20(s8)
    2490:	00000000 	nop
    2494:	00021143 	sra	v0,v0,0x5
    2498:	afc20014 	sw	v0,20(s8)
    249c:	8fc20018 	lw	v0,24(s8)
    24a0:	00000000 	nop
    24a4:	00021183 	sra	v0,v0,0x6
    24a8:	afc20018 	sw	v0,24(s8)
    24ac:	8fc20010 	lw	v0,16(s8)
    24b0:	00000000 	nop
    24b4:	00021140 	sll	v0,v0,0x5
    24b8:	00021e00 	sll	v1,v0,0x18
    24bc:	00031e03 	sra	v1,v1,0x18
    24c0:	8fc20014 	lw	v0,20(s8)
    24c4:	00000000 	nop
    24c8:	00021080 	sll	v0,v0,0x2
    24cc:	00021600 	sll	v0,v0,0x18
    24d0:	00021603 	sra	v0,v0,0x18
    24d4:	00621025 	or	v0,v1,v0
    24d8:	00021e00 	sll	v1,v0,0x18
    24dc:	00031e03 	sra	v1,v1,0x18
    24e0:	8fc20018 	lw	v0,24(s8)
    24e4:	00000000 	nop
    24e8:	00021600 	sll	v0,v0,0x18
    24ec:	00021603 	sra	v0,v0,0x18
    24f0:	00621025 	or	v0,v1,v0
    24f4:	00021600 	sll	v0,v0,0x18
    24f8:	00021603 	sra	v0,v0,0x18
    24fc:	304400ff 	andi	a0,v0,0xff
    2500:	3c050000 	lui	a1,0x0
    2504:	8fc30008 	lw	v1,8(s8)
    2508:	00000000 	nop
    250c:	00601025 	move	v0,v1
    2510:	00021040 	sll	v0,v0,0x1
    2514:	00431021 	addu	v0,v0,v1
    2518:	00021140 	sll	v0,v0,0x5
    251c:	24a36ba4 	addiu	v1,a1,27556
    2520:	00431821 	addu	v1,v0,v1
    2524:	8fc2000c 	lw	v0,12(s8)
    2528:	00000000 	nop
    252c:	00621021 	addu	v0,v1,v0
    2530:	a0440000 	sb	a0,0(v0)
    2534:	00000000 	nop
    2538:	03c0e825 	move	sp,s8
    253c:	8fbe0004 	lw	s8,4(sp)
    2540:	27bd0008 	addiu	sp,sp,8
    2544:	03e00008 	jr	ra
    2548:	00000000 	nop

0000254c <lcd_clear_vbuf>:
    254c:	27bdfff0 	addiu	sp,sp,-16
    2550:	afbe000c 	sw	s8,12(sp)
    2554:	03a0f025 	move	s8,sp
    2558:	afc00000 	sw	zero,0(s8)
    255c:	1000001e 	b	25d8 <lcd_clear_vbuf+0x8c>
    2560:	00000000 	nop
    2564:	afc00004 	sw	zero,4(s8)
    2568:	10000012 	b	25b4 <lcd_clear_vbuf+0x68>
    256c:	00000000 	nop
    2570:	3c040000 	lui	a0,0x0
    2574:	8fc30000 	lw	v1,0(s8)
    2578:	00000000 	nop
    257c:	00601025 	move	v0,v1
    2580:	00021040 	sll	v0,v0,0x1
    2584:	00431021 	addu	v0,v0,v1
    2588:	00021140 	sll	v0,v0,0x5
    258c:	24836ba4 	addiu	v1,a0,27556
    2590:	00431821 	addu	v1,v0,v1
    2594:	8fc20004 	lw	v0,4(s8)
    2598:	00000000 	nop
    259c:	00621021 	addu	v0,v1,v0
    25a0:	a0400000 	sb	zero,0(v0)
    25a4:	8fc20004 	lw	v0,4(s8)
    25a8:	00000000 	nop
    25ac:	24420001 	addiu	v0,v0,1
    25b0:	afc20004 	sw	v0,4(s8)
    25b4:	8fc20004 	lw	v0,4(s8)
    25b8:	00000000 	nop
    25bc:	28420060 	slti	v0,v0,96
    25c0:	1440ffeb 	bnez	v0,2570 <lcd_clear_vbuf+0x24>
    25c4:	00000000 	nop
    25c8:	8fc20000 	lw	v0,0(s8)
    25cc:	00000000 	nop
    25d0:	24420001 	addiu	v0,v0,1
    25d4:	afc20000 	sw	v0,0(s8)
    25d8:	8fc20000 	lw	v0,0(s8)
    25dc:	00000000 	nop
    25e0:	28420040 	slti	v0,v0,64
    25e4:	1440ffdf 	bnez	v0,2564 <lcd_clear_vbuf+0x18>
    25e8:	00000000 	nop
    25ec:	00000000 	nop
    25f0:	03c0e825 	move	sp,s8
    25f4:	8fbe000c 	lw	s8,12(sp)
    25f8:	27bd0010 	addiu	sp,sp,16
    25fc:	03e00008 	jr	ra
    2600:	00000000 	nop

00002604 <lcd_sync_vbuf>:
    2604:	27bdffe0 	addiu	sp,sp,-32
    2608:	afbf001c 	sw	ra,28(sp)
    260c:	afbe0018 	sw	s8,24(sp)
    2610:	03a0f025 	move	s8,sp
    2614:	afc00010 	sw	zero,16(s8)
    2618:	10000022 	b	26a4 <lcd_sync_vbuf+0xa0>
    261c:	00000000 	nop
    2620:	afc00014 	sw	zero,20(s8)
    2624:	10000016 	b	2680 <lcd_sync_vbuf+0x7c>
    2628:	00000000 	nop
    262c:	3c040000 	lui	a0,0x0
    2630:	8fc30010 	lw	v1,16(s8)
    2634:	00000000 	nop
    2638:	00601025 	move	v0,v1
    263c:	00021040 	sll	v0,v0,0x1
    2640:	00431021 	addu	v0,v0,v1
    2644:	00021140 	sll	v0,v0,0x5
    2648:	24836ba4 	addiu	v1,a0,27556
    264c:	00431821 	addu	v1,v0,v1
    2650:	8fc20014 	lw	v0,20(s8)
    2654:	00000000 	nop
    2658:	00621021 	addu	v0,v1,v0
    265c:	90420000 	lbu	v0,0(v0)
    2660:	00000000 	nop
    2664:	00402025 	move	a0,v0
    2668:	0c0008c4 	jal	2310 <lcd_data>
    266c:	00000000 	nop
    2670:	8fc20014 	lw	v0,20(s8)
    2674:	00000000 	nop
    2678:	24420001 	addiu	v0,v0,1
    267c:	afc20014 	sw	v0,20(s8)
    2680:	8fc20014 	lw	v0,20(s8)
    2684:	00000000 	nop
    2688:	28420060 	slti	v0,v0,96
    268c:	1440ffe7 	bnez	v0,262c <lcd_sync_vbuf+0x28>
    2690:	00000000 	nop
    2694:	8fc20010 	lw	v0,16(s8)
    2698:	00000000 	nop
    269c:	24420001 	addiu	v0,v0,1
    26a0:	afc20010 	sw	v0,16(s8)
    26a4:	8fc20010 	lw	v0,16(s8)
    26a8:	00000000 	nop
    26ac:	28420040 	slti	v0,v0,64
    26b0:	1440ffdb 	bnez	v0,2620 <lcd_sync_vbuf+0x1c>
    26b4:	00000000 	nop
    26b8:	00000000 	nop
    26bc:	03c0e825 	move	sp,s8
    26c0:	8fbf001c 	lw	ra,28(sp)
    26c4:	8fbe0018 	lw	s8,24(sp)
    26c8:	27bd0020 	addiu	sp,sp,32
    26cc:	03e00008 	jr	ra
    26d0:	00000000 	nop

000026d4 <lcd_putc>:
    26d4:	27bdffd8 	addiu	sp,sp,-40
    26d8:	afbf0024 	sw	ra,36(sp)
    26dc:	afbe0020 	sw	s8,32(sp)
    26e0:	03a0f025 	move	s8,sp
    26e4:	afc40028 	sw	a0,40(s8)
    26e8:	afc5002c 	sw	a1,44(s8)
    26ec:	afc60030 	sw	a2,48(s8)
    26f0:	afc00018 	sw	zero,24(s8)
    26f4:	10000036 	b	27d0 <lcd_putc+0xfc>
    26f8:	00000000 	nop
    26fc:	afc0001c 	sw	zero,28(s8)
    2700:	1000002a 	b	27ac <lcd_putc+0xd8>
    2704:	00000000 	nop
    2708:	8fc20030 	lw	v0,48(s8)
    270c:	00000000 	nop
    2710:	2442ffe0 	addiu	v0,v0,-32
    2714:	000218c0 	sll	v1,v0,0x3
    2718:	8fc2001c 	lw	v0,28(s8)
    271c:	00000000 	nop
    2720:	00621821 	addu	v1,v1,v0
    2724:	3c020000 	lui	v0,0x0
    2728:	244265f4 	addiu	v0,v0,26100
    272c:	00621021 	addu	v0,v1,v0
    2730:	90420000 	lbu	v0,0(v0)
    2734:	00000000 	nop
    2738:	00401825 	move	v1,v0
    273c:	8fc20018 	lw	v0,24(s8)
    2740:	00000000 	nop
    2744:	00431007 	srav	v0,v1,v0
    2748:	30420001 	andi	v0,v0,0x1
    274c:	10400013 	beqz	v0,279c <lcd_putc+0xc8>
    2750:	00000000 	nop
    2754:	8fc20028 	lw	v0,40(s8)
    2758:	00000000 	nop
    275c:	000218c0 	sll	v1,v0,0x3
    2760:	8fc20018 	lw	v0,24(s8)
    2764:	00000000 	nop
    2768:	00622021 	addu	a0,v1,v0
    276c:	8fc2002c 	lw	v0,44(s8)
    2770:	00000000 	nop
    2774:	000218c0 	sll	v1,v0,0x3
    2778:	8fc2001c 	lw	v0,28(s8)
    277c:	00000000 	nop
    2780:	00621021 	addu	v0,v1,v0
    2784:	afa00010 	sw	zero,16(sp)
    2788:	240700ff 	li	a3,255
    278c:	00003025 	move	a2,zero
    2790:	00402825 	move	a1,v0
    2794:	0c000918 	jal	2460 <lcd_set_vbuf_pixel>
    2798:	00000000 	nop
    279c:	8fc2001c 	lw	v0,28(s8)
    27a0:	00000000 	nop
    27a4:	24420001 	addiu	v0,v0,1
    27a8:	afc2001c 	sw	v0,28(s8)
    27ac:	8fc2001c 	lw	v0,28(s8)
    27b0:	00000000 	nop
    27b4:	28420008 	slti	v0,v0,8
    27b8:	1440ffd3 	bnez	v0,2708 <lcd_putc+0x34>
    27bc:	00000000 	nop
    27c0:	8fc20018 	lw	v0,24(s8)
    27c4:	00000000 	nop
    27c8:	24420001 	addiu	v0,v0,1
    27cc:	afc20018 	sw	v0,24(s8)
    27d0:	8fc20018 	lw	v0,24(s8)
    27d4:	00000000 	nop
    27d8:	28420008 	slti	v0,v0,8
    27dc:	1440ffc7 	bnez	v0,26fc <lcd_putc+0x28>
    27e0:	00000000 	nop
    27e4:	00000000 	nop
    27e8:	03c0e825 	move	sp,s8
    27ec:	8fbf0024 	lw	ra,36(sp)
    27f0:	8fbe0020 	lw	s8,32(sp)
    27f4:	27bd0028 	addiu	sp,sp,40
    27f8:	03e00008 	jr	ra
    27fc:	00000000 	nop

00002800 <lcd_puts>:
    2800:	27bdffe0 	addiu	sp,sp,-32
    2804:	afbf001c 	sw	ra,28(sp)
    2808:	afbe0018 	sw	s8,24(sp)
    280c:	03a0f025 	move	s8,sp
    2810:	afc40020 	sw	a0,32(s8)
    2814:	afc50024 	sw	a1,36(s8)
    2818:	afc60028 	sw	a2,40(s8)
    281c:	afc00010 	sw	zero,16(s8)
    2820:	1000001d 	b	2898 <lcd_puts+0x98>
    2824:	00000000 	nop
    2828:	8fc20010 	lw	v0,16(s8)
    282c:	8fc30028 	lw	v1,40(s8)
    2830:	00000000 	nop
    2834:	00621021 	addu	v0,v1,v0
    2838:	80420000 	lb	v0,0(v0)
    283c:	00000000 	nop
    2840:	28420020 	slti	v0,v0,32
    2844:	14400010 	bnez	v0,2888 <lcd_puts+0x88>
    2848:	00000000 	nop
    284c:	8fc30024 	lw	v1,36(s8)
    2850:	8fc20010 	lw	v0,16(s8)
    2854:	00000000 	nop
    2858:	00622021 	addu	a0,v1,v0
    285c:	8fc20010 	lw	v0,16(s8)
    2860:	8fc30028 	lw	v1,40(s8)
    2864:	00000000 	nop
    2868:	00621021 	addu	v0,v1,v0
    286c:	80420000 	lb	v0,0(v0)
    2870:	00000000 	nop
    2874:	00403025 	move	a2,v0
    2878:	00802825 	move	a1,a0
    287c:	8fc40020 	lw	a0,32(s8)
    2880:	0c0009b5 	jal	26d4 <lcd_putc>
    2884:	00000000 	nop
    2888:	8fc20010 	lw	v0,16(s8)
    288c:	00000000 	nop
    2890:	24420001 	addiu	v0,v0,1
    2894:	afc20010 	sw	v0,16(s8)
    2898:	8fc20010 	lw	v0,16(s8)
    289c:	8fc30028 	lw	v1,40(s8)
    28a0:	00000000 	nop
    28a4:	00621021 	addu	v0,v1,v0
    28a8:	80420000 	lb	v0,0(v0)
    28ac:	00000000 	nop
    28b0:	10400008 	beqz	v0,28d4 <lcd_puts+0xd4>
    28b4:	00000000 	nop
    28b8:	8fc30024 	lw	v1,36(s8)
    28bc:	8fc20010 	lw	v0,16(s8)
    28c0:	00000000 	nop
    28c4:	00621021 	addu	v0,v1,v0
    28c8:	2842000c 	slti	v0,v0,12
    28cc:	1440ffd6 	bnez	v0,2828 <lcd_puts+0x28>
    28d0:	00000000 	nop
    28d4:	00000000 	nop
    28d8:	03c0e825 	move	sp,s8
    28dc:	8fbf001c 	lw	ra,28(sp)
    28e0:	8fbe0018 	lw	s8,24(sp)
    28e4:	27bd0020 	addiu	sp,sp,32
    28e8:	03e00008 	jr	ra
    28ec:	00000000 	nop

000028f0 <lcd_putc_color>:
    28f0:	27bdffd8 	addiu	sp,sp,-40
    28f4:	afbf0024 	sw	ra,36(sp)
    28f8:	afbe0020 	sw	s8,32(sp)
    28fc:	03a0f025 	move	s8,sp
    2900:	afc40028 	sw	a0,40(s8)
    2904:	afc5002c 	sw	a1,44(s8)
    2908:	afc60030 	sw	a2,48(s8)
    290c:	afc70034 	sw	a3,52(s8)
    2910:	afc00018 	sw	zero,24(s8)
    2914:	10000038 	b	29f8 <lcd_putc_color+0x108>
    2918:	00000000 	nop
    291c:	afc0001c 	sw	zero,28(s8)
    2920:	1000002c 	b	29d4 <lcd_putc_color+0xe4>
    2924:	00000000 	nop
    2928:	8fc20030 	lw	v0,48(s8)
    292c:	00000000 	nop
    2930:	2442ffe0 	addiu	v0,v0,-32
    2934:	000218c0 	sll	v1,v0,0x3
    2938:	8fc2001c 	lw	v0,28(s8)
    293c:	00000000 	nop
    2940:	00621821 	addu	v1,v1,v0
    2944:	3c020000 	lui	v0,0x0
    2948:	244265f4 	addiu	v0,v0,26100
    294c:	00621021 	addu	v0,v1,v0
    2950:	90420000 	lbu	v0,0(v0)
    2954:	00000000 	nop
    2958:	00401825 	move	v1,v0
    295c:	8fc20018 	lw	v0,24(s8)
    2960:	00000000 	nop
    2964:	00431007 	srav	v0,v1,v0
    2968:	30420001 	andi	v0,v0,0x1
    296c:	10400015 	beqz	v0,29c4 <lcd_putc_color+0xd4>
    2970:	00000000 	nop
    2974:	8fc20028 	lw	v0,40(s8)
    2978:	00000000 	nop
    297c:	000218c0 	sll	v1,v0,0x3
    2980:	8fc20018 	lw	v0,24(s8)
    2984:	00000000 	nop
    2988:	00622021 	addu	a0,v1,v0
    298c:	8fc2002c 	lw	v0,44(s8)
    2990:	00000000 	nop
    2994:	000218c0 	sll	v1,v0,0x3
    2998:	8fc2001c 	lw	v0,28(s8)
    299c:	00000000 	nop
    29a0:	00621821 	addu	v1,v1,v0
    29a4:	8fc2003c 	lw	v0,60(s8)
    29a8:	00000000 	nop
    29ac:	afa20010 	sw	v0,16(sp)
    29b0:	8fc70038 	lw	a3,56(s8)
    29b4:	8fc60034 	lw	a2,52(s8)
    29b8:	00602825 	move	a1,v1
    29bc:	0c000918 	jal	2460 <lcd_set_vbuf_pixel>
    29c0:	00000000 	nop
    29c4:	8fc2001c 	lw	v0,28(s8)
    29c8:	00000000 	nop
    29cc:	24420001 	addiu	v0,v0,1
    29d0:	afc2001c 	sw	v0,28(s8)
    29d4:	8fc2001c 	lw	v0,28(s8)
    29d8:	00000000 	nop
    29dc:	28420008 	slti	v0,v0,8
    29e0:	1440ffd1 	bnez	v0,2928 <lcd_putc_color+0x38>
    29e4:	00000000 	nop
    29e8:	8fc20018 	lw	v0,24(s8)
    29ec:	00000000 	nop
    29f0:	24420001 	addiu	v0,v0,1
    29f4:	afc20018 	sw	v0,24(s8)
    29f8:	8fc20018 	lw	v0,24(s8)
    29fc:	00000000 	nop
    2a00:	28420008 	slti	v0,v0,8
    2a04:	1440ffc5 	bnez	v0,291c <lcd_putc_color+0x2c>
    2a08:	00000000 	nop
    2a0c:	00000000 	nop
    2a10:	03c0e825 	move	sp,s8
    2a14:	8fbf0024 	lw	ra,36(sp)
    2a18:	8fbe0020 	lw	s8,32(sp)
    2a1c:	27bd0028 	addiu	sp,sp,40
    2a20:	03e00008 	jr	ra
    2a24:	00000000 	nop

00002a28 <lcd_puts_color>:
    2a28:	27bdffd8 	addiu	sp,sp,-40
    2a2c:	afbf0024 	sw	ra,36(sp)
    2a30:	afbe0020 	sw	s8,32(sp)
    2a34:	03a0f025 	move	s8,sp
    2a38:	afc40028 	sw	a0,40(s8)
    2a3c:	afc5002c 	sw	a1,44(s8)
    2a40:	afc60030 	sw	a2,48(s8)
    2a44:	afc70034 	sw	a3,52(s8)
    2a48:	afc00018 	sw	zero,24(s8)
    2a4c:	10000025 	b	2ae4 <lcd_puts_color+0xbc>
    2a50:	00000000 	nop
    2a54:	8fc20018 	lw	v0,24(s8)
    2a58:	8fc30030 	lw	v1,48(s8)
    2a5c:	00000000 	nop
    2a60:	00621021 	addu	v0,v1,v0
    2a64:	80420000 	lb	v0,0(v0)
    2a68:	00000000 	nop
    2a6c:	28420020 	slti	v0,v0,32
    2a70:	14400018 	bnez	v0,2ad4 <lcd_puts_color+0xac>
    2a74:	00000000 	nop
    2a78:	8fc3002c 	lw	v1,44(s8)
    2a7c:	8fc20018 	lw	v0,24(s8)
    2a80:	00000000 	nop
    2a84:	00622021 	addu	a0,v1,v0
    2a88:	8fc20018 	lw	v0,24(s8)
    2a8c:	8fc30030 	lw	v1,48(s8)
    2a90:	00000000 	nop
    2a94:	00621021 	addu	v0,v1,v0
    2a98:	80420000 	lb	v0,0(v0)
    2a9c:	00000000 	nop
    2aa0:	00401825 	move	v1,v0
    2aa4:	8fc2003c 	lw	v0,60(s8)
    2aa8:	00000000 	nop
    2aac:	afa20014 	sw	v0,20(sp)
    2ab0:	8fc20038 	lw	v0,56(s8)
    2ab4:	00000000 	nop
    2ab8:	afa20010 	sw	v0,16(sp)
    2abc:	8fc70034 	lw	a3,52(s8)
    2ac0:	00603025 	move	a2,v1
    2ac4:	00802825 	move	a1,a0
    2ac8:	8fc40028 	lw	a0,40(s8)
    2acc:	0c000a3c 	jal	28f0 <lcd_putc_color>
    2ad0:	00000000 	nop
    2ad4:	8fc20018 	lw	v0,24(s8)
    2ad8:	00000000 	nop
    2adc:	24420001 	addiu	v0,v0,1
    2ae0:	afc20018 	sw	v0,24(s8)
    2ae4:	8fc20018 	lw	v0,24(s8)
    2ae8:	8fc30030 	lw	v1,48(s8)
    2aec:	00000000 	nop
    2af0:	00621021 	addu	v0,v1,v0
    2af4:	80420000 	lb	v0,0(v0)
    2af8:	00000000 	nop
    2afc:	10400008 	beqz	v0,2b20 <lcd_puts_color+0xf8>
    2b00:	00000000 	nop
    2b04:	8fc3002c 	lw	v1,44(s8)
    2b08:	8fc20018 	lw	v0,24(s8)
    2b0c:	00000000 	nop
    2b10:	00621021 	addu	v0,v1,v0
    2b14:	2842000c 	slti	v0,v0,12
    2b18:	1440ffce 	bnez	v0,2a54 <lcd_puts_color+0x2c>
    2b1c:	00000000 	nop
    2b20:	00000000 	nop
    2b24:	03c0e825 	move	sp,s8
    2b28:	8fbf0024 	lw	ra,36(sp)
    2b2c:	8fbe0020 	lw	s8,32(sp)
    2b30:	27bd0028 	addiu	sp,sp,40
    2b34:	03e00008 	jr	ra
    2b38:	00000000 	nop

00002b3c <draw_court_lines>:
    2b3c:	27bdffc8 	addiu	sp,sp,-56
    2b40:	afbf0034 	sw	ra,52(sp)
    2b44:	afbe0030 	sw	s8,48(sp)
    2b48:	03a0f025 	move	s8,sp
    2b4c:	24020004 	li	v0,4
    2b50:	afc20018 	sw	v0,24(s8)
    2b54:	10000015 	b	2bac <draw_court_lines+0x70>
    2b58:	00000000 	nop
    2b5c:	240200ff 	li	v0,255
    2b60:	afa20010 	sw	v0,16(sp)
    2b64:	240700ff 	li	a3,255
    2b68:	240600ff 	li	a2,255
    2b6c:	8fc50018 	lw	a1,24(s8)
    2b70:	24040004 	li	a0,4
    2b74:	0c000918 	jal	2460 <lcd_set_vbuf_pixel>
    2b78:	00000000 	nop
    2b7c:	240200ff 	li	v0,255
    2b80:	afa20010 	sw	v0,16(sp)
    2b84:	240700ff 	li	a3,255
    2b88:	240600ff 	li	a2,255
    2b8c:	8fc50018 	lw	a1,24(s8)
    2b90:	2404003b 	li	a0,59
    2b94:	0c000918 	jal	2460 <lcd_set_vbuf_pixel>
    2b98:	00000000 	nop
    2b9c:	8fc20018 	lw	v0,24(s8)
    2ba0:	00000000 	nop
    2ba4:	24420001 	addiu	v0,v0,1
    2ba8:	afc20018 	sw	v0,24(s8)
    2bac:	8fc20018 	lw	v0,24(s8)
    2bb0:	00000000 	nop
    2bb4:	2842005c 	slti	v0,v0,92
    2bb8:	1440ffe8 	bnez	v0,2b5c <draw_court_lines+0x20>
    2bbc:	00000000 	nop
    2bc0:	24020004 	li	v0,4
    2bc4:	afc2001c 	sw	v0,28(s8)
    2bc8:	10000015 	b	2c20 <draw_court_lines+0xe4>
    2bcc:	00000000 	nop
    2bd0:	240200ff 	li	v0,255
    2bd4:	afa20010 	sw	v0,16(sp)
    2bd8:	240700ff 	li	a3,255
    2bdc:	240600ff 	li	a2,255
    2be0:	24050004 	li	a1,4
    2be4:	8fc4001c 	lw	a0,28(s8)
    2be8:	0c000918 	jal	2460 <lcd_set_vbuf_pixel>
    2bec:	00000000 	nop
    2bf0:	240200ff 	li	v0,255
    2bf4:	afa20010 	sw	v0,16(sp)
    2bf8:	240700ff 	li	a3,255
    2bfc:	240600ff 	li	a2,255
    2c00:	2405005b 	li	a1,91
    2c04:	8fc4001c 	lw	a0,28(s8)
    2c08:	0c000918 	jal	2460 <lcd_set_vbuf_pixel>
    2c0c:	00000000 	nop
    2c10:	8fc2001c 	lw	v0,28(s8)
    2c14:	00000000 	nop
    2c18:	24420001 	addiu	v0,v0,1
    2c1c:	afc2001c 	sw	v0,28(s8)
    2c20:	8fc2001c 	lw	v0,28(s8)
    2c24:	00000000 	nop
    2c28:	2842003c 	slti	v0,v0,60
    2c2c:	1440ffe8 	bnez	v0,2bd0 <draw_court_lines+0x94>
    2c30:	00000000 	nop
    2c34:	24020010 	li	v0,16
    2c38:	afc20020 	sw	v0,32(s8)
    2c3c:	10000015 	b	2c94 <draw_court_lines+0x158>
    2c40:	00000000 	nop
    2c44:	240200ff 	li	v0,255
    2c48:	afa20010 	sw	v0,16(sp)
    2c4c:	240700ff 	li	a3,255
    2c50:	240600ff 	li	a2,255
    2c54:	24050018 	li	a1,24
    2c58:	8fc40020 	lw	a0,32(s8)
    2c5c:	0c000918 	jal	2460 <lcd_set_vbuf_pixel>
    2c60:	00000000 	nop
    2c64:	240200ff 	li	v0,255
    2c68:	afa20010 	sw	v0,16(sp)
    2c6c:	240700ff 	li	a3,255
    2c70:	240600ff 	li	a2,255
    2c74:	24050047 	li	a1,71
    2c78:	8fc40020 	lw	a0,32(s8)
    2c7c:	0c000918 	jal	2460 <lcd_set_vbuf_pixel>
    2c80:	00000000 	nop
    2c84:	8fc20020 	lw	v0,32(s8)
    2c88:	00000000 	nop
    2c8c:	24420001 	addiu	v0,v0,1
    2c90:	afc20020 	sw	v0,32(s8)
    2c94:	8fc20020 	lw	v0,32(s8)
    2c98:	00000000 	nop
    2c9c:	28420030 	slti	v0,v0,48
    2ca0:	1440ffe8 	bnez	v0,2c44 <draw_court_lines+0x108>
    2ca4:	00000000 	nop
    2ca8:	24020018 	li	v0,24
    2cac:	afc20024 	sw	v0,36(s8)
    2cb0:	1000000d 	b	2ce8 <draw_court_lines+0x1ac>
    2cb4:	00000000 	nop
    2cb8:	240200ff 	li	v0,255
    2cbc:	afa20010 	sw	v0,16(sp)
    2cc0:	240700ff 	li	a3,255
    2cc4:	240600ff 	li	a2,255
    2cc8:	8fc50024 	lw	a1,36(s8)
    2ccc:	24040020 	li	a0,32
    2cd0:	0c000918 	jal	2460 <lcd_set_vbuf_pixel>
    2cd4:	00000000 	nop
    2cd8:	8fc20024 	lw	v0,36(s8)
    2cdc:	00000000 	nop
    2ce0:	24420002 	addiu	v0,v0,2
    2ce4:	afc20024 	sw	v0,36(s8)
    2ce8:	8fc20024 	lw	v0,36(s8)
    2cec:	00000000 	nop
    2cf0:	28420048 	slti	v0,v0,72
    2cf4:	1440fff0 	bnez	v0,2cb8 <draw_court_lines+0x17c>
    2cf8:	00000000 	nop
    2cfc:	24020002 	li	v0,2
    2d00:	afc20028 	sw	v0,40(s8)
    2d04:	1000000d 	b	2d3c <draw_court_lines+0x200>
    2d08:	00000000 	nop
    2d0c:	240200b4 	li	v0,180
    2d10:	afa20010 	sw	v0,16(sp)
    2d14:	240700b4 	li	a3,180
    2d18:	240600b4 	li	a2,180
    2d1c:	24050030 	li	a1,48
    2d20:	8fc40028 	lw	a0,40(s8)
    2d24:	0c000918 	jal	2460 <lcd_set_vbuf_pixel>
    2d28:	00000000 	nop
    2d2c:	8fc20028 	lw	v0,40(s8)
    2d30:	00000000 	nop
    2d34:	24420002 	addiu	v0,v0,2
    2d38:	afc20028 	sw	v0,40(s8)
    2d3c:	8fc20028 	lw	v0,40(s8)
    2d40:	00000000 	nop
    2d44:	2842003e 	slti	v0,v0,62
    2d48:	1440fff0 	bnez	v0,2d0c <draw_court_lines+0x1d0>
    2d4c:	00000000 	nop
    2d50:	00000000 	nop
    2d54:	03c0e825 	move	sp,s8
    2d58:	8fbf0034 	lw	ra,52(sp)
    2d5c:	8fbe0030 	lw	s8,48(sp)
    2d60:	27bd0038 	addiu	sp,sp,56
    2d64:	03e00008 	jr	ra
    2d68:	00000000 	nop

00002d6c <draw_racket>:
    2d6c:	27bdffc8 	addiu	sp,sp,-56
    2d70:	afbf0034 	sw	ra,52(sp)
    2d74:	afbe0030 	sw	s8,48(sp)
    2d78:	03a0f025 	move	s8,sp
    2d7c:	afc40038 	sw	a0,56(s8)
    2d80:	afc5003c 	sw	a1,60(s8)
    2d84:	afc60040 	sw	a2,64(s8)
    2d88:	afc70044 	sw	a3,68(s8)
    2d8c:	afc00018 	sw	zero,24(s8)
    2d90:	10000054 	b	2ee4 <draw_racket+0x178>
    2d94:	00000000 	nop
    2d98:	afc0001c 	sw	zero,28(s8)
    2d9c:	10000048 	b	2ec0 <draw_racket+0x154>
    2da0:	00000000 	nop
    2da4:	8fc3003c 	lw	v1,60(s8)
    2da8:	8fc20018 	lw	v0,24(s8)
    2dac:	00000000 	nop
    2db0:	00621021 	addu	v0,v1,v0
    2db4:	afc20020 	sw	v0,32(s8)
    2db8:	8fc30038 	lw	v1,56(s8)
    2dbc:	8fc2001c 	lw	v0,28(s8)
    2dc0:	00000000 	nop
    2dc4:	00621021 	addu	v0,v1,v0
    2dc8:	afc20024 	sw	v0,36(s8)
    2dcc:	8fc20024 	lw	v0,36(s8)
    2dd0:	00000000 	nop
    2dd4:	04400036 	bltz	v0,2eb0 <draw_racket+0x144>
    2dd8:	00000000 	nop
    2ddc:	8fc20024 	lw	v0,36(s8)
    2de0:	00000000 	nop
    2de4:	28420060 	slti	v0,v0,96
    2de8:	10400031 	beqz	v0,2eb0 <draw_racket+0x144>
    2dec:	00000000 	nop
    2df0:	8fc20020 	lw	v0,32(s8)
    2df4:	00000000 	nop
    2df8:	0440002d 	bltz	v0,2eb0 <draw_racket+0x144>
    2dfc:	00000000 	nop
    2e00:	8fc20020 	lw	v0,32(s8)
    2e04:	00000000 	nop
    2e08:	28420040 	slti	v0,v0,64
    2e0c:	10400028 	beqz	v0,2eb0 <draw_racket+0x144>
    2e10:	00000000 	nop
    2e14:	3c020000 	lui	v0,0x0
    2e18:	8fc30018 	lw	v1,24(s8)
    2e1c:	00000000 	nop
    2e20:	000318c0 	sll	v1,v1,0x3
    2e24:	244268f4 	addiu	v0,v0,26868
    2e28:	00621821 	addu	v1,v1,v0
    2e2c:	8fc2001c 	lw	v0,28(s8)
    2e30:	00000000 	nop
    2e34:	00621021 	addu	v0,v1,v0
    2e38:	90420000 	lbu	v0,0(v0)
    2e3c:	00000000 	nop
    2e40:	afc20028 	sw	v0,40(s8)
    2e44:	8fc30028 	lw	v1,40(s8)
    2e48:	24020001 	li	v0,1
    2e4c:	1462000c 	bne	v1,v0,2e80 <draw_racket+0x114>
    2e50:	00000000 	nop
    2e54:	8fc20048 	lw	v0,72(s8)
    2e58:	00000000 	nop
    2e5c:	afa20010 	sw	v0,16(sp)
    2e60:	8fc70044 	lw	a3,68(s8)
    2e64:	8fc60040 	lw	a2,64(s8)
    2e68:	8fc50024 	lw	a1,36(s8)
    2e6c:	8fc40020 	lw	a0,32(s8)
    2e70:	0c000918 	jal	2460 <lcd_set_vbuf_pixel>
    2e74:	00000000 	nop
    2e78:	1000000d 	b	2eb0 <draw_racket+0x144>
    2e7c:	00000000 	nop
    2e80:	8fc30028 	lw	v1,40(s8)
    2e84:	24020002 	li	v0,2
    2e88:	14620009 	bne	v1,v0,2eb0 <draw_racket+0x144>
    2e8c:	00000000 	nop
    2e90:	24020064 	li	v0,100
    2e94:	afa20010 	sw	v0,16(sp)
    2e98:	24070064 	li	a3,100
    2e9c:	24060064 	li	a2,100
    2ea0:	8fc50024 	lw	a1,36(s8)
    2ea4:	8fc40020 	lw	a0,32(s8)
    2ea8:	0c000918 	jal	2460 <lcd_set_vbuf_pixel>
    2eac:	00000000 	nop
    2eb0:	8fc2001c 	lw	v0,28(s8)
    2eb4:	00000000 	nop
    2eb8:	24420001 	addiu	v0,v0,1
    2ebc:	afc2001c 	sw	v0,28(s8)
    2ec0:	8fc2001c 	lw	v0,28(s8)
    2ec4:	00000000 	nop
    2ec8:	28420008 	slti	v0,v0,8
    2ecc:	1440ffb5 	bnez	v0,2da4 <draw_racket+0x38>
    2ed0:	00000000 	nop
    2ed4:	8fc20018 	lw	v0,24(s8)
    2ed8:	00000000 	nop
    2edc:	24420001 	addiu	v0,v0,1
    2ee0:	afc20018 	sw	v0,24(s8)
    2ee4:	8fc20018 	lw	v0,24(s8)
    2ee8:	00000000 	nop
    2eec:	2842000c 	slti	v0,v0,12
    2ef0:	1440ffa9 	bnez	v0,2d98 <draw_racket+0x2c>
    2ef4:	00000000 	nop
    2ef8:	00000000 	nop
    2efc:	03c0e825 	move	sp,s8
    2f00:	8fbf0034 	lw	ra,52(sp)
    2f04:	8fbe0030 	lw	s8,48(sp)
    2f08:	27bd0038 	addiu	sp,sp,56
    2f0c:	03e00008 	jr	ra
    2f10:	00000000 	nop

00002f14 <draw_ball>:
    2f14:	27bdffd0 	addiu	sp,sp,-48
    2f18:	afbf002c 	sw	ra,44(sp)
    2f1c:	afbe0028 	sw	s8,40(sp)
    2f20:	03a0f025 	move	s8,sp
    2f24:	afc40030 	sw	a0,48(s8)
    2f28:	afc50034 	sw	a1,52(s8)
    2f2c:	afc00018 	sw	zero,24(s8)
    2f30:	10000034 	b	3004 <draw_ball+0xf0>
    2f34:	00000000 	nop
    2f38:	afc0001c 	sw	zero,28(s8)
    2f3c:	10000028 	b	2fe0 <draw_ball+0xcc>
    2f40:	00000000 	nop
    2f44:	8fc30034 	lw	v1,52(s8)
    2f48:	8fc20018 	lw	v0,24(s8)
    2f4c:	00000000 	nop
    2f50:	00621021 	addu	v0,v1,v0
    2f54:	afc20020 	sw	v0,32(s8)
    2f58:	8fc30030 	lw	v1,48(s8)
    2f5c:	8fc2001c 	lw	v0,28(s8)
    2f60:	00000000 	nop
    2f64:	00621021 	addu	v0,v1,v0
    2f68:	afc20024 	sw	v0,36(s8)
    2f6c:	8fc20024 	lw	v0,36(s8)
    2f70:	00000000 	nop
    2f74:	04400016 	bltz	v0,2fd0 <draw_ball+0xbc>
    2f78:	00000000 	nop
    2f7c:	8fc20024 	lw	v0,36(s8)
    2f80:	00000000 	nop
    2f84:	28420060 	slti	v0,v0,96
    2f88:	10400011 	beqz	v0,2fd0 <draw_ball+0xbc>
    2f8c:	00000000 	nop
    2f90:	8fc20020 	lw	v0,32(s8)
    2f94:	00000000 	nop
    2f98:	0440000d 	bltz	v0,2fd0 <draw_ball+0xbc>
    2f9c:	00000000 	nop
    2fa0:	8fc20020 	lw	v0,32(s8)
    2fa4:	00000000 	nop
    2fa8:	28420040 	slti	v0,v0,64
    2fac:	10400008 	beqz	v0,2fd0 <draw_ball+0xbc>
    2fb0:	00000000 	nop
    2fb4:	afa00010 	sw	zero,16(sp)
    2fb8:	240700ff 	li	a3,255
    2fbc:	240600ff 	li	a2,255
    2fc0:	8fc50024 	lw	a1,36(s8)
    2fc4:	8fc40020 	lw	a0,32(s8)
    2fc8:	0c000918 	jal	2460 <lcd_set_vbuf_pixel>
    2fcc:	00000000 	nop
    2fd0:	8fc2001c 	lw	v0,28(s8)
    2fd4:	00000000 	nop
    2fd8:	24420001 	addiu	v0,v0,1
    2fdc:	afc2001c 	sw	v0,28(s8)
    2fe0:	8fc2001c 	lw	v0,28(s8)
    2fe4:	00000000 	nop
    2fe8:	28420004 	slti	v0,v0,4
    2fec:	1440ffd5 	bnez	v0,2f44 <draw_ball+0x30>
    2ff0:	00000000 	nop
    2ff4:	8fc20018 	lw	v0,24(s8)
    2ff8:	00000000 	nop
    2ffc:	24420001 	addiu	v0,v0,1
    3000:	afc20018 	sw	v0,24(s8)
    3004:	8fc20018 	lw	v0,24(s8)
    3008:	00000000 	nop
    300c:	28420004 	slti	v0,v0,4
    3010:	1440ffc9 	bnez	v0,2f38 <draw_ball+0x24>
    3014:	00000000 	nop
    3018:	00000000 	nop
    301c:	03c0e825 	move	sp,s8
    3020:	8fbf002c 	lw	ra,44(sp)
    3024:	8fbe0028 	lw	s8,40(sp)
    3028:	27bd0030 	addiu	sp,sp,48
    302c:	03e00008 	jr	ra
    3030:	00000000 	nop

00003034 <draw_tennis_game>:
    3034:	27bdffd0 	addiu	sp,sp,-48
    3038:	afbf002c 	sw	ra,44(sp)
    303c:	afbe0028 	sw	s8,40(sp)
    3040:	03a0f025 	move	s8,sp
    3044:	0c000953 	jal	254c <lcd_clear_vbuf>
    3048:	00000000 	nop
    304c:	afc00018 	sw	zero,24(s8)
    3050:	10000018 	b	30b4 <draw_tennis_game+0x80>
    3054:	00000000 	nop
    3058:	afc0001c 	sw	zero,28(s8)
    305c:	1000000c 	b	3090 <draw_tennis_game+0x5c>
    3060:	00000000 	nop
    3064:	afa00010 	sw	zero,16(sp)
    3068:	24070064 	li	a3,100
    306c:	00003025 	move	a2,zero
    3070:	8fc5001c 	lw	a1,28(s8)
    3074:	8fc40018 	lw	a0,24(s8)
    3078:	0c000918 	jal	2460 <lcd_set_vbuf_pixel>
    307c:	00000000 	nop
    3080:	8fc2001c 	lw	v0,28(s8)
    3084:	00000000 	nop
    3088:	24420001 	addiu	v0,v0,1
    308c:	afc2001c 	sw	v0,28(s8)
    3090:	8fc2001c 	lw	v0,28(s8)
    3094:	00000000 	nop
    3098:	28420060 	slti	v0,v0,96
    309c:	1440fff1 	bnez	v0,3064 <draw_tennis_game+0x30>
    30a0:	00000000 	nop
    30a4:	8fc20018 	lw	v0,24(s8)
    30a8:	00000000 	nop
    30ac:	24420001 	addiu	v0,v0,1
    30b0:	afc20018 	sw	v0,24(s8)
    30b4:	8fc20018 	lw	v0,24(s8)
    30b8:	00000000 	nop
    30bc:	28420040 	slti	v0,v0,64
    30c0:	1440ffe5 	bnez	v0,3058 <draw_tennis_game+0x24>
    30c4:	00000000 	nop
    30c8:	0c000acf 	jal	2b3c <draw_court_lines>
    30cc:	00000000 	nop
    30d0:	3c020000 	lui	v0,0x0
    30d4:	8c436ae0 	lw	v1,27360(v0)
    30d8:	3c020000 	lui	v0,0x0
    30dc:	8c426ae4 	lw	v0,27364(v0)
    30e0:	afa00010 	sw	zero,16(sp)
    30e4:	240700ff 	li	a3,255
    30e8:	00003025 	move	a2,zero
    30ec:	00402825 	move	a1,v0
    30f0:	00602025 	move	a0,v1
    30f4:	0c000b5b 	jal	2d6c <draw_racket>
    30f8:	00000000 	nop
    30fc:	3c020000 	lui	v0,0x0
    3100:	8c436ae8 	lw	v1,27368(v0)
    3104:	3c020000 	lui	v0,0x0
    3108:	8c426aec 	lw	v0,27372(v0)
    310c:	afa00010 	sw	zero,16(sp)
    3110:	24070080 	li	a3,128
    3114:	240600ff 	li	a2,255
    3118:	00402825 	move	a1,v0
    311c:	00602025 	move	a0,v1
    3120:	0c000b5b 	jal	2d6c <draw_racket>
    3124:	00000000 	nop
    3128:	3c020000 	lui	v0,0x0
    312c:	8c436af0 	lw	v1,27376(v0)
    3130:	3c020000 	lui	v0,0x0
    3134:	8c426af4 	lw	v0,27380(v0)
    3138:	00000000 	nop
    313c:	00402825 	move	a1,v0
    3140:	00602025 	move	a0,v1
    3144:	0c000bc5 	jal	2f14 <draw_ball>
    3148:	00000000 	nop
    314c:	3c020000 	lui	v0,0x0
    3150:	8c426b60 	lw	v0,27488(v0)
    3154:	00000000 	nop
    3158:	304200ff 	andi	v0,v0,0xff
    315c:	24420030 	addiu	v0,v0,48
    3160:	304200ff 	andi	v0,v0,0xff
    3164:	00021600 	sll	v0,v0,0x18
    3168:	00021603 	sra	v0,v0,0x18
    316c:	a3c20020 	sb	v0,32(s8)
    3170:	2402002d 	li	v0,45
    3174:	a3c20021 	sb	v0,33(s8)
    3178:	3c020000 	lui	v0,0x0
    317c:	8c426b64 	lw	v0,27492(v0)
    3180:	00000000 	nop
    3184:	304200ff 	andi	v0,v0,0xff
    3188:	24420030 	addiu	v0,v0,48
    318c:	304200ff 	andi	v0,v0,0xff
    3190:	00021600 	sll	v0,v0,0x18
    3194:	00021603 	sra	v0,v0,0x18
    3198:	a3c20022 	sb	v0,34(s8)
    319c:	a3c00023 	sb	zero,35(s8)
    31a0:	27c30020 	addiu	v1,s8,32
    31a4:	240200ff 	li	v0,255
    31a8:	afa20014 	sw	v0,20(sp)
    31ac:	240200ff 	li	v0,255
    31b0:	afa20010 	sw	v0,16(sp)
    31b4:	240700ff 	li	a3,255
    31b8:	00603025 	move	a2,v1
    31bc:	24050005 	li	a1,5
    31c0:	00002025 	move	a0,zero
    31c4:	0c000a8a 	jal	2a28 <lcd_puts_color>
    31c8:	00000000 	nop
    31cc:	00000000 	nop
    31d0:	03c0e825 	move	sp,s8
    31d4:	8fbf002c 	lw	ra,44(sp)
    31d8:	8fbe0028 	lw	s8,40(sp)
    31dc:	27bd0030 	addiu	sp,sp,48
    31e0:	03e00008 	jr	ra
    31e4:	00000000 	nop

000031e8 <draw_squash_background>:
    31e8:	27bdffd8 	addiu	sp,sp,-40
    31ec:	afbf0024 	sw	ra,36(sp)
    31f0:	afbe0020 	sw	s8,32(sp)
    31f4:	03a0f025 	move	s8,sp
    31f8:	afc00018 	sw	zero,24(s8)
    31fc:	10000019 	b	3264 <draw_squash_background+0x7c>
    3200:	00000000 	nop
    3204:	afc0001c 	sw	zero,28(s8)
    3208:	1000000d 	b	3240 <draw_squash_background+0x58>
    320c:	00000000 	nop
    3210:	2402003c 	li	v0,60
    3214:	afa20010 	sw	v0,16(sp)
    3218:	24070028 	li	a3,40
    321c:	00003025 	move	a2,zero
    3220:	8fc5001c 	lw	a1,28(s8)
    3224:	8fc40018 	lw	a0,24(s8)
    3228:	0c000918 	jal	2460 <lcd_set_vbuf_pixel>
    322c:	00000000 	nop
    3230:	8fc2001c 	lw	v0,28(s8)
    3234:	00000000 	nop
    3238:	24420001 	addiu	v0,v0,1
    323c:	afc2001c 	sw	v0,28(s8)
    3240:	8fc2001c 	lw	v0,28(s8)
    3244:	00000000 	nop
    3248:	28420060 	slti	v0,v0,96
    324c:	1440fff0 	bnez	v0,3210 <draw_squash_background+0x28>
    3250:	00000000 	nop
    3254:	8fc20018 	lw	v0,24(s8)
    3258:	00000000 	nop
    325c:	24420001 	addiu	v0,v0,1
    3260:	afc20018 	sw	v0,24(s8)
    3264:	8fc20018 	lw	v0,24(s8)
    3268:	00000000 	nop
    326c:	28420038 	slti	v0,v0,56
    3270:	1440ffe4 	bnez	v0,3204 <draw_squash_background+0x1c>
    3274:	00000000 	nop
    3278:	00000000 	nop
    327c:	03c0e825 	move	sp,s8
    3280:	8fbf0024 	lw	ra,36(sp)
    3284:	8fbe0020 	lw	s8,32(sp)
    3288:	27bd0028 	addiu	sp,sp,40
    328c:	03e00008 	jr	ra
    3290:	00000000 	nop

00003294 <draw_squash_walls>:
    3294:	27bdffc0 	addiu	sp,sp,-64
    3298:	afbf003c 	sw	ra,60(sp)
    329c:	afbe0038 	sw	s8,56(sp)
    32a0:	03a0f025 	move	s8,sp
    32a4:	afc00018 	sw	zero,24(s8)
    32a8:	10000019 	b	3310 <draw_squash_walls+0x7c>
    32ac:	00000000 	nop
    32b0:	afc0001c 	sw	zero,28(s8)
    32b4:	1000000d 	b	32ec <draw_squash_walls+0x58>
    32b8:	00000000 	nop
    32bc:	240200ff 	li	v0,255
    32c0:	afa20010 	sw	v0,16(sp)
    32c4:	240700b4 	li	a3,180
    32c8:	00003025 	move	a2,zero
    32cc:	8fc5001c 	lw	a1,28(s8)
    32d0:	8fc40018 	lw	a0,24(s8)
    32d4:	0c000918 	jal	2460 <lcd_set_vbuf_pixel>
    32d8:	00000000 	nop
    32dc:	8fc2001c 	lw	v0,28(s8)
    32e0:	00000000 	nop
    32e4:	24420001 	addiu	v0,v0,1
    32e8:	afc2001c 	sw	v0,28(s8)
    32ec:	8fc2001c 	lw	v0,28(s8)
    32f0:	00000000 	nop
    32f4:	28420060 	slti	v0,v0,96
    32f8:	1440fff0 	bnez	v0,32bc <draw_squash_walls+0x28>
    32fc:	00000000 	nop
    3300:	8fc20018 	lw	v0,24(s8)
    3304:	00000000 	nop
    3308:	24420001 	addiu	v0,v0,1
    330c:	afc20018 	sw	v0,24(s8)
    3310:	8fc20018 	lw	v0,24(s8)
    3314:	00000000 	nop
    3318:	28420004 	slti	v0,v0,4
    331c:	1440ffe4 	bnez	v0,32b0 <draw_squash_walls+0x1c>
    3320:	00000000 	nop
    3324:	24020034 	li	v0,52
    3328:	afc20020 	sw	v0,32(s8)
    332c:	10000019 	b	3394 <draw_squash_walls+0x100>
    3330:	00000000 	nop
    3334:	afc00024 	sw	zero,36(s8)
    3338:	1000000d 	b	3370 <draw_squash_walls+0xdc>
    333c:	00000000 	nop
    3340:	240200ff 	li	v0,255
    3344:	afa20010 	sw	v0,16(sp)
    3348:	240700b4 	li	a3,180
    334c:	00003025 	move	a2,zero
    3350:	8fc50024 	lw	a1,36(s8)
    3354:	8fc40020 	lw	a0,32(s8)
    3358:	0c000918 	jal	2460 <lcd_set_vbuf_pixel>
    335c:	00000000 	nop
    3360:	8fc20024 	lw	v0,36(s8)
    3364:	00000000 	nop
    3368:	24420001 	addiu	v0,v0,1
    336c:	afc20024 	sw	v0,36(s8)
    3370:	8fc20024 	lw	v0,36(s8)
    3374:	00000000 	nop
    3378:	28420060 	slti	v0,v0,96
    337c:	1440fff0 	bnez	v0,3340 <draw_squash_walls+0xac>
    3380:	00000000 	nop
    3384:	8fc20020 	lw	v0,32(s8)
    3388:	00000000 	nop
    338c:	24420001 	addiu	v0,v0,1
    3390:	afc20020 	sw	v0,32(s8)
    3394:	8fc20020 	lw	v0,32(s8)
    3398:	00000000 	nop
    339c:	28420038 	slti	v0,v0,56
    33a0:	1440ffe4 	bnez	v0,3334 <draw_squash_walls+0xa0>
    33a4:	00000000 	nop
    33a8:	afc00028 	sw	zero,40(s8)
    33ac:	1000001a 	b	3418 <draw_squash_walls+0x184>
    33b0:	00000000 	nop
    33b4:	2402005c 	li	v0,92
    33b8:	afc2002c 	sw	v0,44(s8)
    33bc:	1000000d 	b	33f4 <draw_squash_walls+0x160>
    33c0:	00000000 	nop
    33c4:	240200ff 	li	v0,255
    33c8:	afa20010 	sw	v0,16(sp)
    33cc:	240700b4 	li	a3,180
    33d0:	00003025 	move	a2,zero
    33d4:	8fc5002c 	lw	a1,44(s8)
    33d8:	8fc40028 	lw	a0,40(s8)
    33dc:	0c000918 	jal	2460 <lcd_set_vbuf_pixel>
    33e0:	00000000 	nop
    33e4:	8fc2002c 	lw	v0,44(s8)
    33e8:	00000000 	nop
    33ec:	24420001 	addiu	v0,v0,1
    33f0:	afc2002c 	sw	v0,44(s8)
    33f4:	8fc2002c 	lw	v0,44(s8)
    33f8:	00000000 	nop
    33fc:	28420060 	slti	v0,v0,96
    3400:	1440fff0 	bnez	v0,33c4 <draw_squash_walls+0x130>
    3404:	00000000 	nop
    3408:	8fc20028 	lw	v0,40(s8)
    340c:	00000000 	nop
    3410:	24420001 	addiu	v0,v0,1
    3414:	afc20028 	sw	v0,40(s8)
    3418:	8fc20028 	lw	v0,40(s8)
    341c:	00000000 	nop
    3420:	28420038 	slti	v0,v0,56
    3424:	1440ffe3 	bnez	v0,33b4 <draw_squash_walls+0x120>
    3428:	00000000 	nop
    342c:	24020004 	li	v0,4
    3430:	afc20030 	sw	v0,48(s8)
    3434:	1000000d 	b	346c <draw_squash_walls+0x1d8>
    3438:	00000000 	nop
    343c:	240200ff 	li	v0,255
    3440:	afa20010 	sw	v0,16(sp)
    3444:	240700ff 	li	a3,255
    3448:	240600ff 	li	a2,255
    344c:	2405002e 	li	a1,46
    3450:	8fc40030 	lw	a0,48(s8)
    3454:	0c000918 	jal	2460 <lcd_set_vbuf_pixel>
    3458:	00000000 	nop
    345c:	8fc20030 	lw	v0,48(s8)
    3460:	00000000 	nop
    3464:	24420001 	addiu	v0,v0,1
    3468:	afc20030 	sw	v0,48(s8)
    346c:	8fc20030 	lw	v0,48(s8)
    3470:	00000000 	nop
    3474:	28420034 	slti	v0,v0,52
    3478:	1440fff0 	bnez	v0,343c <draw_squash_walls+0x1a8>
    347c:	00000000 	nop
    3480:	afc00034 	sw	zero,52(s8)
    3484:	1000000d 	b	34bc <draw_squash_walls+0x228>
    3488:	00000000 	nop
    348c:	240200ff 	li	v0,255
    3490:	afa20010 	sw	v0,16(sp)
    3494:	240700ff 	li	a3,255
    3498:	240600ff 	li	a2,255
    349c:	8fc50034 	lw	a1,52(s8)
    34a0:	2404001c 	li	a0,28
    34a4:	0c000918 	jal	2460 <lcd_set_vbuf_pixel>
    34a8:	00000000 	nop
    34ac:	8fc20034 	lw	v0,52(s8)
    34b0:	00000000 	nop
    34b4:	24420002 	addiu	v0,v0,2
    34b8:	afc20034 	sw	v0,52(s8)
    34bc:	8fc20034 	lw	v0,52(s8)
    34c0:	00000000 	nop
    34c4:	2842005c 	slti	v0,v0,92
    34c8:	1440fff0 	bnez	v0,348c <draw_squash_walls+0x1f8>
    34cc:	00000000 	nop
    34d0:	00000000 	nop
    34d4:	03c0e825 	move	sp,s8
    34d8:	8fbf003c 	lw	ra,60(sp)
    34dc:	8fbe0038 	lw	s8,56(sp)
    34e0:	27bd0040 	addiu	sp,sp,64
    34e4:	03e00008 	jr	ra
    34e8:	00000000 	nop

000034ec <draw_squash_racket>:
    34ec:	27bdffc8 	addiu	sp,sp,-56
    34f0:	afbf0034 	sw	ra,52(sp)
    34f4:	afbe0030 	sw	s8,48(sp)
    34f8:	03a0f025 	move	s8,sp
    34fc:	afc40038 	sw	a0,56(s8)
    3500:	afc5003c 	sw	a1,60(s8)
    3504:	afc60040 	sw	a2,64(s8)
    3508:	afc70044 	sw	a3,68(s8)
    350c:	afc00018 	sw	zero,24(s8)
    3510:	10000054 	b	3664 <draw_squash_racket+0x178>
    3514:	00000000 	nop
    3518:	afc0001c 	sw	zero,28(s8)
    351c:	10000048 	b	3640 <draw_squash_racket+0x154>
    3520:	00000000 	nop
    3524:	8fc3003c 	lw	v1,60(s8)
    3528:	8fc20018 	lw	v0,24(s8)
    352c:	00000000 	nop
    3530:	00621021 	addu	v0,v1,v0
    3534:	afc20020 	sw	v0,32(s8)
    3538:	8fc30038 	lw	v1,56(s8)
    353c:	8fc2001c 	lw	v0,28(s8)
    3540:	00000000 	nop
    3544:	00621021 	addu	v0,v1,v0
    3548:	afc20024 	sw	v0,36(s8)
    354c:	8fc20024 	lw	v0,36(s8)
    3550:	00000000 	nop
    3554:	04400036 	bltz	v0,3630 <draw_squash_racket+0x144>
    3558:	00000000 	nop
    355c:	8fc20024 	lw	v0,36(s8)
    3560:	00000000 	nop
    3564:	28420060 	slti	v0,v0,96
    3568:	10400031 	beqz	v0,3630 <draw_squash_racket+0x144>
    356c:	00000000 	nop
    3570:	8fc20020 	lw	v0,32(s8)
    3574:	00000000 	nop
    3578:	0440002d 	bltz	v0,3630 <draw_squash_racket+0x144>
    357c:	00000000 	nop
    3580:	8fc20020 	lw	v0,32(s8)
    3584:	00000000 	nop
    3588:	28420038 	slti	v0,v0,56
    358c:	10400028 	beqz	v0,3630 <draw_squash_racket+0x144>
    3590:	00000000 	nop
    3594:	3c020000 	lui	v0,0x0
    3598:	8fc30018 	lw	v1,24(s8)
    359c:	00000000 	nop
    35a0:	000318c0 	sll	v1,v1,0x3
    35a4:	244268f4 	addiu	v0,v0,26868
    35a8:	00621821 	addu	v1,v1,v0
    35ac:	8fc2001c 	lw	v0,28(s8)
    35b0:	00000000 	nop
    35b4:	00621021 	addu	v0,v1,v0
    35b8:	90420000 	lbu	v0,0(v0)
    35bc:	00000000 	nop
    35c0:	afc20028 	sw	v0,40(s8)
    35c4:	8fc30028 	lw	v1,40(s8)
    35c8:	24020001 	li	v0,1
    35cc:	1462000c 	bne	v1,v0,3600 <draw_squash_racket+0x114>
    35d0:	00000000 	nop
    35d4:	8fc20048 	lw	v0,72(s8)
    35d8:	00000000 	nop
    35dc:	afa20010 	sw	v0,16(sp)
    35e0:	8fc70044 	lw	a3,68(s8)
    35e4:	8fc60040 	lw	a2,64(s8)
    35e8:	8fc50024 	lw	a1,36(s8)
    35ec:	8fc40020 	lw	a0,32(s8)
    35f0:	0c000918 	jal	2460 <lcd_set_vbuf_pixel>
    35f4:	00000000 	nop
    35f8:	1000000d 	b	3630 <draw_squash_racket+0x144>
    35fc:	00000000 	nop
    3600:	8fc30028 	lw	v1,40(s8)
    3604:	24020002 	li	v0,2
    3608:	14620009 	bne	v1,v0,3630 <draw_squash_racket+0x144>
    360c:	00000000 	nop
    3610:	24020064 	li	v0,100
    3614:	afa20010 	sw	v0,16(sp)
    3618:	24070064 	li	a3,100
    361c:	24060064 	li	a2,100
    3620:	8fc50024 	lw	a1,36(s8)
    3624:	8fc40020 	lw	a0,32(s8)
    3628:	0c000918 	jal	2460 <lcd_set_vbuf_pixel>
    362c:	00000000 	nop
    3630:	8fc2001c 	lw	v0,28(s8)
    3634:	00000000 	nop
    3638:	24420001 	addiu	v0,v0,1
    363c:	afc2001c 	sw	v0,28(s8)
    3640:	8fc2001c 	lw	v0,28(s8)
    3644:	00000000 	nop
    3648:	28420008 	slti	v0,v0,8
    364c:	1440ffb5 	bnez	v0,3524 <draw_squash_racket+0x38>
    3650:	00000000 	nop
    3654:	8fc20018 	lw	v0,24(s8)
    3658:	00000000 	nop
    365c:	24420001 	addiu	v0,v0,1
    3660:	afc20018 	sw	v0,24(s8)
    3664:	8fc20018 	lw	v0,24(s8)
    3668:	00000000 	nop
    366c:	2842000c 	slti	v0,v0,12
    3670:	1440ffa9 	bnez	v0,3518 <draw_squash_racket+0x2c>
    3674:	00000000 	nop
    3678:	00000000 	nop
    367c:	03c0e825 	move	sp,s8
    3680:	8fbf0034 	lw	ra,52(sp)
    3684:	8fbe0030 	lw	s8,48(sp)
    3688:	27bd0038 	addiu	sp,sp,56
    368c:	03e00008 	jr	ra
    3690:	00000000 	nop

00003694 <draw_squash_ball>:
    3694:	27bdffd0 	addiu	sp,sp,-48
    3698:	afbf002c 	sw	ra,44(sp)
    369c:	afbe0028 	sw	s8,40(sp)
    36a0:	03a0f025 	move	s8,sp
    36a4:	afc40030 	sw	a0,48(s8)
    36a8:	afc50034 	sw	a1,52(s8)
    36ac:	afc00018 	sw	zero,24(s8)
    36b0:	10000035 	b	3788 <draw_squash_ball+0xf4>
    36b4:	00000000 	nop
    36b8:	afc0001c 	sw	zero,28(s8)
    36bc:	10000029 	b	3764 <draw_squash_ball+0xd0>
    36c0:	00000000 	nop
    36c4:	8fc30030 	lw	v1,48(s8)
    36c8:	8fc2001c 	lw	v0,28(s8)
    36cc:	00000000 	nop
    36d0:	00621021 	addu	v0,v1,v0
    36d4:	afc20020 	sw	v0,32(s8)
    36d8:	8fc30034 	lw	v1,52(s8)
    36dc:	8fc20018 	lw	v0,24(s8)
    36e0:	00000000 	nop
    36e4:	00621021 	addu	v0,v1,v0
    36e8:	afc20024 	sw	v0,36(s8)
    36ec:	8fc20020 	lw	v0,32(s8)
    36f0:	00000000 	nop
    36f4:	04400017 	bltz	v0,3754 <draw_squash_ball+0xc0>
    36f8:	00000000 	nop
    36fc:	8fc20020 	lw	v0,32(s8)
    3700:	00000000 	nop
    3704:	28420060 	slti	v0,v0,96
    3708:	10400012 	beqz	v0,3754 <draw_squash_ball+0xc0>
    370c:	00000000 	nop
    3710:	8fc20024 	lw	v0,36(s8)
    3714:	00000000 	nop
    3718:	0440000e 	bltz	v0,3754 <draw_squash_ball+0xc0>
    371c:	00000000 	nop
    3720:	8fc20024 	lw	v0,36(s8)
    3724:	00000000 	nop
    3728:	28420038 	slti	v0,v0,56
    372c:	10400009 	beqz	v0,3754 <draw_squash_ball+0xc0>
    3730:	00000000 	nop
    3734:	240200ff 	li	v0,255
    3738:	afa20010 	sw	v0,16(sp)
    373c:	240700ff 	li	a3,255
    3740:	240600ff 	li	a2,255
    3744:	8fc50020 	lw	a1,32(s8)
    3748:	8fc40024 	lw	a0,36(s8)
    374c:	0c000918 	jal	2460 <lcd_set_vbuf_pixel>
    3750:	00000000 	nop
    3754:	8fc2001c 	lw	v0,28(s8)
    3758:	00000000 	nop
    375c:	24420001 	addiu	v0,v0,1
    3760:	afc2001c 	sw	v0,28(s8)
    3764:	8fc2001c 	lw	v0,28(s8)
    3768:	00000000 	nop
    376c:	28420004 	slti	v0,v0,4
    3770:	1440ffd4 	bnez	v0,36c4 <draw_squash_ball+0x30>
    3774:	00000000 	nop
    3778:	8fc20018 	lw	v0,24(s8)
    377c:	00000000 	nop
    3780:	24420001 	addiu	v0,v0,1
    3784:	afc20018 	sw	v0,24(s8)
    3788:	8fc20018 	lw	v0,24(s8)
    378c:	00000000 	nop
    3790:	28420004 	slti	v0,v0,4
    3794:	1440ffc8 	bnez	v0,36b8 <draw_squash_ball+0x24>
    3798:	00000000 	nop
    379c:	00000000 	nop
    37a0:	03c0e825 	move	sp,s8
    37a4:	8fbf002c 	lw	ra,44(sp)
    37a8:	8fbe0028 	lw	s8,40(sp)
    37ac:	27bd0030 	addiu	sp,sp,48
    37b0:	03e00008 	jr	ra
    37b4:	00000000 	nop

000037b8 <draw_squash_score>:
    37b8:	27bdffe0 	addiu	sp,sp,-32
    37bc:	afbf001c 	sw	ra,28(sp)
    37c0:	afbe0018 	sw	s8,24(sp)
    37c4:	03a0f025 	move	s8,sp
    37c8:	afc40020 	sw	a0,32(s8)
    37cc:	afa00014 	sw	zero,20(sp)
    37d0:	240200ff 	li	v0,255
    37d4:	afa20010 	sw	v0,16(sp)
    37d8:	00003825 	move	a3,zero
    37dc:	24060053 	li	a2,83
    37e0:	00002825 	move	a1,zero
    37e4:	24040007 	li	a0,7
    37e8:	0c000a3c 	jal	28f0 <lcd_putc_color>
    37ec:	00000000 	nop
    37f0:	afa00014 	sw	zero,20(sp)
    37f4:	240200ff 	li	v0,255
    37f8:	afa20010 	sw	v0,16(sp)
    37fc:	00003825 	move	a3,zero
    3800:	2406003a 	li	a2,58
    3804:	24050001 	li	a1,1
    3808:	24040007 	li	a0,7
    380c:	0c000a3c 	jal	28f0 <lcd_putc_color>
    3810:	00000000 	nop
    3814:	8fc30020 	lw	v1,32(s8)
    3818:	24020064 	li	v0,100
    381c:	0062001a 	div	zero,v1,v0
    3820:	14400002 	bnez	v0,382c <draw_squash_score+0x74>
    3824:	00000000 	nop
    3828:	0007000d 	break	0x7
    382c:	00001010 	mfhi	v0
    3830:	00001812 	mflo	v1
    3834:	2402000a 	li	v0,10
    3838:	00000000 	nop
    383c:	0062001a 	div	zero,v1,v0
    3840:	14400002 	bnez	v0,384c <draw_squash_score+0x94>
    3844:	00000000 	nop
    3848:	0007000d 	break	0x7
    384c:	00001010 	mfhi	v0
    3850:	24430030 	addiu	v1,v0,48
    3854:	afa00014 	sw	zero,20(sp)
    3858:	240200ff 	li	v0,255
    385c:	afa20010 	sw	v0,16(sp)
    3860:	00003825 	move	a3,zero
    3864:	00603025 	move	a2,v1
    3868:	24050002 	li	a1,2
    386c:	24040007 	li	a0,7
    3870:	0c000a3c 	jal	28f0 <lcd_putc_color>
    3874:	00000000 	nop
    3878:	8fc30020 	lw	v1,32(s8)
    387c:	2402000a 	li	v0,10
    3880:	0062001a 	div	zero,v1,v0
    3884:	14400002 	bnez	v0,3890 <draw_squash_score+0xd8>
    3888:	00000000 	nop
    388c:	0007000d 	break	0x7
    3890:	00001010 	mfhi	v0
    3894:	00001812 	mflo	v1
    3898:	2402000a 	li	v0,10
    389c:	00000000 	nop
    38a0:	0062001a 	div	zero,v1,v0
    38a4:	14400002 	bnez	v0,38b0 <draw_squash_score+0xf8>
    38a8:	00000000 	nop
    38ac:	0007000d 	break	0x7
    38b0:	00001010 	mfhi	v0
    38b4:	24430030 	addiu	v1,v0,48
    38b8:	afa00014 	sw	zero,20(sp)
    38bc:	240200ff 	li	v0,255
    38c0:	afa20010 	sw	v0,16(sp)
    38c4:	00003825 	move	a3,zero
    38c8:	00603025 	move	a2,v1
    38cc:	24050003 	li	a1,3
    38d0:	24040007 	li	a0,7
    38d4:	0c000a3c 	jal	28f0 <lcd_putc_color>
    38d8:	00000000 	nop
    38dc:	8fc30020 	lw	v1,32(s8)
    38e0:	2402000a 	li	v0,10
    38e4:	0062001a 	div	zero,v1,v0
    38e8:	14400002 	bnez	v0,38f4 <draw_squash_score+0x13c>
    38ec:	00000000 	nop
    38f0:	0007000d 	break	0x7
    38f4:	00001010 	mfhi	v0
    38f8:	24430030 	addiu	v1,v0,48
    38fc:	afa00014 	sw	zero,20(sp)
    3900:	240200ff 	li	v0,255
    3904:	afa20010 	sw	v0,16(sp)
    3908:	00003825 	move	a3,zero
    390c:	00603025 	move	a2,v1
    3910:	24050004 	li	a1,4
    3914:	24040007 	li	a0,7
    3918:	0c000a3c 	jal	28f0 <lcd_putc_color>
    391c:	00000000 	nop
    3920:	00000000 	nop
    3924:	03c0e825 	move	sp,s8
    3928:	8fbf001c 	lw	ra,28(sp)
    392c:	8fbe0018 	lw	s8,24(sp)
    3930:	27bd0020 	addiu	sp,sp,32
    3934:	03e00008 	jr	ra
    3938:	00000000 	nop

0000393c <draw_lives>:
    393c:	27bdffd8 	addiu	sp,sp,-40
    3940:	afbf0024 	sw	ra,36(sp)
    3944:	afbe0020 	sw	s8,32(sp)
    3948:	03a0f025 	move	s8,sp
    394c:	afc40028 	sw	a0,40(s8)
    3950:	afa00014 	sw	zero,20(sp)
    3954:	afa00010 	sw	zero,16(sp)
    3958:	240700ff 	li	a3,255
    395c:	2406004c 	li	a2,76
    3960:	24050006 	li	a1,6
    3964:	24040007 	li	a0,7
    3968:	0c000a3c 	jal	28f0 <lcd_putc_color>
    396c:	00000000 	nop
    3970:	afa00014 	sw	zero,20(sp)
    3974:	afa00010 	sw	zero,16(sp)
    3978:	240700ff 	li	a3,255
    397c:	2406003a 	li	a2,58
    3980:	24050007 	li	a1,7
    3984:	24040007 	li	a0,7
    3988:	0c000a3c 	jal	28f0 <lcd_putc_color>
    398c:	00000000 	nop
    3990:	afc00018 	sw	zero,24(s8)
    3994:	10000025 	b	3a2c <draw_lives+0xf0>
    3998:	00000000 	nop
    399c:	8fc30018 	lw	v1,24(s8)
    39a0:	8fc20028 	lw	v0,40(s8)
    39a4:	00000000 	nop
    39a8:	0062102a 	slt	v0,v1,v0
    39ac:	1040000e 	beqz	v0,39e8 <draw_lives+0xac>
    39b0:	00000000 	nop
    39b4:	8fc20018 	lw	v0,24(s8)
    39b8:	00000000 	nop
    39bc:	24420008 	addiu	v0,v0,8
    39c0:	afa00014 	sw	zero,20(sp)
    39c4:	afa00010 	sw	zero,16(sp)
    39c8:	240700ff 	li	a3,255
    39cc:	2406002a 	li	a2,42
    39d0:	00402825 	move	a1,v0
    39d4:	24040007 	li	a0,7
    39d8:	0c000a3c 	jal	28f0 <lcd_putc_color>
    39dc:	00000000 	nop
    39e0:	1000000e 	b	3a1c <draw_lives+0xe0>
    39e4:	00000000 	nop
    39e8:	8fc20018 	lw	v0,24(s8)
    39ec:	00000000 	nop
    39f0:	24430008 	addiu	v1,v0,8
    39f4:	24020064 	li	v0,100
    39f8:	afa20014 	sw	v0,20(sp)
    39fc:	24020064 	li	v0,100
    3a00:	afa20010 	sw	v0,16(sp)
    3a04:	24070064 	li	a3,100
    3a08:	2406002d 	li	a2,45
    3a0c:	00602825 	move	a1,v1
    3a10:	24040007 	li	a0,7
    3a14:	0c000a3c 	jal	28f0 <lcd_putc_color>
    3a18:	00000000 	nop
    3a1c:	8fc20018 	lw	v0,24(s8)
    3a20:	00000000 	nop
    3a24:	24420001 	addiu	v0,v0,1
    3a28:	afc20018 	sw	v0,24(s8)
    3a2c:	8fc20018 	lw	v0,24(s8)
    3a30:	00000000 	nop
    3a34:	28420003 	slti	v0,v0,3
    3a38:	1440ffd8 	bnez	v0,399c <draw_lives+0x60>
    3a3c:	00000000 	nop
    3a40:	00000000 	nop
    3a44:	03c0e825 	move	sp,s8
    3a48:	8fbf0024 	lw	ra,36(sp)
    3a4c:	8fbe0020 	lw	s8,32(sp)
    3a50:	27bd0028 	addiu	sp,sp,40
    3a54:	03e00008 	jr	ra
    3a58:	00000000 	nop

00003a5c <draw_squash_2p_score>:
    3a5c:	27bdffe0 	addiu	sp,sp,-32
    3a60:	afbf001c 	sw	ra,28(sp)
    3a64:	afbe0018 	sw	s8,24(sp)
    3a68:	03a0f025 	move	s8,sp
    3a6c:	afc40020 	sw	a0,32(s8)
    3a70:	afc50024 	sw	a1,36(s8)
    3a74:	afa00014 	sw	zero,20(sp)
    3a78:	240200ff 	li	v0,255
    3a7c:	afa20010 	sw	v0,16(sp)
    3a80:	00003825 	move	a3,zero
    3a84:	3c020000 	lui	v0,0x0
    3a88:	24466aac 	addiu	a2,v0,27308
    3a8c:	00002825 	move	a1,zero
    3a90:	24040007 	li	a0,7
    3a94:	0c000a8a 	jal	2a28 <lcd_puts_color>
    3a98:	00000000 	nop
    3a9c:	8fc20020 	lw	v0,32(s8)
    3aa0:	00000000 	nop
    3aa4:	24430030 	addiu	v1,v0,48
    3aa8:	afa00014 	sw	zero,20(sp)
    3aac:	240200ff 	li	v0,255
    3ab0:	afa20010 	sw	v0,16(sp)
    3ab4:	00003825 	move	a3,zero
    3ab8:	00603025 	move	a2,v1
    3abc:	24050003 	li	a1,3
    3ac0:	24040007 	li	a0,7
    3ac4:	0c000a3c 	jal	28f0 <lcd_putc_color>
    3ac8:	00000000 	nop
    3acc:	240200ff 	li	v0,255
    3ad0:	afa20014 	sw	v0,20(sp)
    3ad4:	240200ff 	li	v0,255
    3ad8:	afa20010 	sw	v0,16(sp)
    3adc:	240700ff 	li	a3,255
    3ae0:	2406002d 	li	a2,45
    3ae4:	24050004 	li	a1,4
    3ae8:	24040007 	li	a0,7
    3aec:	0c000a3c 	jal	28f0 <lcd_putc_color>
    3af0:	00000000 	nop
    3af4:	afa00014 	sw	zero,20(sp)
    3af8:	24020080 	li	v0,128
    3afc:	afa20010 	sw	v0,16(sp)
    3b00:	240700ff 	li	a3,255
    3b04:	3c020000 	lui	v0,0x0
    3b08:	24466ab0 	addiu	a2,v0,27312
    3b0c:	24050005 	li	a1,5
    3b10:	24040007 	li	a0,7
    3b14:	0c000a8a 	jal	2a28 <lcd_puts_color>
    3b18:	00000000 	nop
    3b1c:	8fc20024 	lw	v0,36(s8)
    3b20:	00000000 	nop
    3b24:	24430030 	addiu	v1,v0,48
    3b28:	afa00014 	sw	zero,20(sp)
    3b2c:	24020080 	li	v0,128
    3b30:	afa20010 	sw	v0,16(sp)
    3b34:	240700ff 	li	a3,255
    3b38:	00603025 	move	a2,v1
    3b3c:	24050008 	li	a1,8
    3b40:	24040007 	li	a0,7
    3b44:	0c000a3c 	jal	28f0 <lcd_putc_color>
    3b48:	00000000 	nop
    3b4c:	00000000 	nop
    3b50:	03c0e825 	move	sp,s8
    3b54:	8fbf001c 	lw	ra,28(sp)
    3b58:	8fbe0018 	lw	s8,24(sp)
    3b5c:	27bd0020 	addiu	sp,sp,32
    3b60:	03e00008 	jr	ra
    3b64:	00000000 	nop

00003b68 <draw_turn_indicator>:
    3b68:	27bdffd8 	addiu	sp,sp,-40
    3b6c:	afbf0024 	sw	ra,36(sp)
    3b70:	afbe0020 	sw	s8,32(sp)
    3b74:	03a0f025 	move	s8,sp
    3b78:	afc40028 	sw	a0,40(s8)
    3b7c:	afc5002c 	sw	a1,44(s8)
    3b80:	8fc3002c 	lw	v1,44(s8)
    3b84:	24020003 	li	v0,3
    3b88:	0062001a 	div	zero,v1,v0
    3b8c:	14400002 	bnez	v0,3b98 <draw_turn_indicator+0x30>
    3b90:	00000000 	nop
    3b94:	0007000d 	break	0x7
    3b98:	00001010 	mfhi	v0
    3b9c:	00001812 	mflo	v1
    3ba0:	3c028000 	lui	v0,0x8000
    3ba4:	34420001 	ori	v0,v0,0x1
    3ba8:	00621024 	and	v0,v1,v0
    3bac:	04410005 	bgez	v0,3bc4 <draw_turn_indicator+0x5c>
    3bb0:	00000000 	nop
    3bb4:	2442ffff 	addiu	v0,v0,-1
    3bb8:	2403fffe 	li	v1,-2
    3bbc:	00431025 	or	v0,v0,v1
    3bc0:	24420001 	addiu	v0,v0,1
    3bc4:	afc20018 	sw	v0,24(s8)
    3bc8:	8fc20028 	lw	v0,40(s8)
    3bcc:	00000000 	nop
    3bd0:	14400027 	bnez	v0,3c70 <draw_turn_indicator+0x108>
    3bd4:	00000000 	nop
    3bd8:	8fc20018 	lw	v0,24(s8)
    3bdc:	00000000 	nop
    3be0:	1040000d 	beqz	v0,3c18 <draw_turn_indicator+0xb0>
    3be4:	00000000 	nop
    3be8:	afa00014 	sw	zero,20(sp)
    3bec:	240200ff 	li	v0,255
    3bf0:	afa20010 	sw	v0,16(sp)
    3bf4:	00003825 	move	a3,zero
    3bf8:	3c020000 	lui	v0,0x0
    3bfc:	24466ab4 	addiu	a2,v0,27316
    3c00:	00002825 	move	a1,zero
    3c04:	00002025 	move	a0,zero
    3c08:	0c000a8a 	jal	2a28 <lcd_puts_color>
    3c0c:	00000000 	nop
    3c10:	1000000b 	b	3c40 <draw_turn_indicator+0xd8>
    3c14:	00000000 	nop
    3c18:	afa00014 	sw	zero,20(sp)
    3c1c:	240200ff 	li	v0,255
    3c20:	afa20010 	sw	v0,16(sp)
    3c24:	240700ff 	li	a3,255
    3c28:	3c020000 	lui	v0,0x0
    3c2c:	24466ab4 	addiu	a2,v0,27316
    3c30:	00002825 	move	a1,zero
    3c34:	00002025 	move	a0,zero
    3c38:	0c000a8a 	jal	2a28 <lcd_puts_color>
    3c3c:	00000000 	nop
    3c40:	afa00014 	sw	zero,20(sp)
    3c44:	240200ff 	li	v0,255
    3c48:	afa20010 	sw	v0,16(sp)
    3c4c:	240700ff 	li	a3,255
    3c50:	3c020000 	lui	v0,0x0
    3c54:	24466ab8 	addiu	a2,v0,27320
    3c58:	24050002 	li	a1,2
    3c5c:	00002025 	move	a0,zero
    3c60:	0c000a8a 	jal	2a28 <lcd_puts_color>
    3c64:	00000000 	nop
    3c68:	10000025 	b	3d00 <draw_turn_indicator+0x198>
    3c6c:	00000000 	nop
    3c70:	8fc20018 	lw	v0,24(s8)
    3c74:	00000000 	nop
    3c78:	1040000d 	beqz	v0,3cb0 <draw_turn_indicator+0x148>
    3c7c:	00000000 	nop
    3c80:	afa00014 	sw	zero,20(sp)
    3c84:	24020080 	li	v0,128
    3c88:	afa20010 	sw	v0,16(sp)
    3c8c:	240700ff 	li	a3,255
    3c90:	3c020000 	lui	v0,0x0
    3c94:	24466abc 	addiu	a2,v0,27324
    3c98:	00002825 	move	a1,zero
    3c9c:	00002025 	move	a0,zero
    3ca0:	0c000a8a 	jal	2a28 <lcd_puts_color>
    3ca4:	00000000 	nop
    3ca8:	1000000b 	b	3cd8 <draw_turn_indicator+0x170>
    3cac:	00000000 	nop
    3cb0:	afa00014 	sw	zero,20(sp)
    3cb4:	240200ff 	li	v0,255
    3cb8:	afa20010 	sw	v0,16(sp)
    3cbc:	240700ff 	li	a3,255
    3cc0:	3c020000 	lui	v0,0x0
    3cc4:	24466abc 	addiu	a2,v0,27324
    3cc8:	00002825 	move	a1,zero
    3ccc:	00002025 	move	a0,zero
    3cd0:	0c000a8a 	jal	2a28 <lcd_puts_color>
    3cd4:	00000000 	nop
    3cd8:	afa00014 	sw	zero,20(sp)
    3cdc:	240200ff 	li	v0,255
    3ce0:	afa20010 	sw	v0,16(sp)
    3ce4:	240700ff 	li	a3,255
    3ce8:	3c020000 	lui	v0,0x0
    3cec:	24466ab8 	addiu	a2,v0,27320
    3cf0:	24050002 	li	a1,2
    3cf4:	00002025 	move	a0,zero
    3cf8:	0c000a8a 	jal	2a28 <lcd_puts_color>
    3cfc:	00000000 	nop
    3d00:	00000000 	nop
    3d04:	03c0e825 	move	sp,s8
    3d08:	8fbf0024 	lw	ra,36(sp)
    3d0c:	8fbe0020 	lw	s8,32(sp)
    3d10:	27bd0028 	addiu	sp,sp,40
    3d14:	03e00008 	jr	ra
    3d18:	00000000 	nop

00003d1c <draw_squash_game>:
    3d1c:	27bdffe0 	addiu	sp,sp,-32
    3d20:	afbf001c 	sw	ra,28(sp)
    3d24:	afbe0018 	sw	s8,24(sp)
    3d28:	03a0f025 	move	s8,sp
    3d2c:	0c000953 	jal	254c <lcd_clear_vbuf>
    3d30:	00000000 	nop
    3d34:	0c000c7a 	jal	31e8 <draw_squash_background>
    3d38:	00000000 	nop
    3d3c:	0c000ca5 	jal	3294 <draw_squash_walls>
    3d40:	00000000 	nop
    3d44:	3c020000 	lui	v0,0x0
    3d48:	8c426b78 	lw	v0,27512(v0)
    3d4c:	00000000 	nop
    3d50:	14400019 	bnez	v0,3db8 <draw_squash_game+0x9c>
    3d54:	00000000 	nop
    3d58:	3c020000 	lui	v0,0x0
    3d5c:	8c436b08 	lw	v1,27400(v0)
    3d60:	3c020000 	lui	v0,0x0
    3d64:	8c426b0c 	lw	v0,27404(v0)
    3d68:	afa00010 	sw	zero,16(sp)
    3d6c:	240700ff 	li	a3,255
    3d70:	00003025 	move	a2,zero
    3d74:	00402825 	move	a1,v0
    3d78:	00602025 	move	a0,v1
    3d7c:	0c000d3b 	jal	34ec <draw_squash_racket>
    3d80:	00000000 	nop
    3d84:	3c020000 	lui	v0,0x0
    3d88:	8c436b10 	lw	v1,27408(v0)
    3d8c:	3c020000 	lui	v0,0x0
    3d90:	8c426b14 	lw	v0,27412(v0)
    3d94:	afa00010 	sw	zero,16(sp)
    3d98:	24070040 	li	a3,64
    3d9c:	24060080 	li	a2,128
    3da0:	00402825 	move	a1,v0
    3da4:	00602025 	move	a0,v1
    3da8:	0c000d3b 	jal	34ec <draw_squash_racket>
    3dac:	00000000 	nop
    3db0:	10000017 	b	3e10 <draw_squash_game+0xf4>
    3db4:	00000000 	nop
    3db8:	3c020000 	lui	v0,0x0
    3dbc:	8c436b08 	lw	v1,27400(v0)
    3dc0:	3c020000 	lui	v0,0x0
    3dc4:	8c426b0c 	lw	v0,27404(v0)
    3dc8:	afa00010 	sw	zero,16(sp)
    3dcc:	24070080 	li	a3,128
    3dd0:	00003025 	move	a2,zero
    3dd4:	00402825 	move	a1,v0
    3dd8:	00602025 	move	a0,v1
    3ddc:	0c000d3b 	jal	34ec <draw_squash_racket>
    3de0:	00000000 	nop
    3de4:	3c020000 	lui	v0,0x0
    3de8:	8c436b10 	lw	v1,27408(v0)
    3dec:	3c020000 	lui	v0,0x0
    3df0:	8c426b14 	lw	v0,27412(v0)
    3df4:	afa00010 	sw	zero,16(sp)
    3df8:	24070080 	li	a3,128
    3dfc:	240600ff 	li	a2,255
    3e00:	00402825 	move	a1,v0
    3e04:	00602025 	move	a0,v1
    3e08:	0c000d3b 	jal	34ec <draw_squash_racket>
    3e0c:	00000000 	nop
    3e10:	3c020000 	lui	v0,0x0
    3e14:	8c436b18 	lw	v1,27416(v0)
    3e18:	3c020000 	lui	v0,0x0
    3e1c:	8c426b1c 	lw	v0,27420(v0)
    3e20:	00000000 	nop
    3e24:	00402825 	move	a1,v0
    3e28:	00602025 	move	a0,v1
    3e2c:	0c000da5 	jal	3694 <draw_squash_ball>
    3e30:	00000000 	nop
    3e34:	3c020000 	lui	v0,0x0
    3e38:	8c436b80 	lw	v1,27520(v0)
    3e3c:	3c020000 	lui	v0,0x0
    3e40:	8c426b84 	lw	v0,27524(v0)
    3e44:	00000000 	nop
    3e48:	00402825 	move	a1,v0
    3e4c:	00602025 	move	a0,v1
    3e50:	0c000e97 	jal	3a5c <draw_squash_2p_score>
    3e54:	00000000 	nop
    3e58:	00000000 	nop
    3e5c:	03c0e825 	move	sp,s8
    3e60:	8fbf001c 	lw	ra,28(sp)
    3e64:	8fbe0018 	lw	s8,24(sp)
    3e68:	27bd0020 	addiu	sp,sp,32
    3e6c:	03e00008 	jr	ra
    3e70:	00000000 	nop

00003e74 <squash_update>:
    3e74:	27bdffe8 	addiu	sp,sp,-24
    3e78:	afbf0014 	sw	ra,20(sp)
    3e7c:	afbe0010 	sw	s8,16(sp)
    3e80:	03a0f025 	move	s8,sp
    3e84:	0c0010cd 	jal	4334 <squash_move_players>
    3e88:	00000000 	nop
    3e8c:	3c020000 	lui	v0,0x0
    3e90:	8c436b18 	lw	v1,27416(v0)
    3e94:	3c020000 	lui	v0,0x0
    3e98:	8c426b20 	lw	v0,27424(v0)
    3e9c:	00000000 	nop
    3ea0:	00621821 	addu	v1,v1,v0
    3ea4:	3c020000 	lui	v0,0x0
    3ea8:	ac436b18 	sw	v1,27416(v0)
    3eac:	3c020000 	lui	v0,0x0
    3eb0:	8c436b1c 	lw	v1,27420(v0)
    3eb4:	3c020000 	lui	v0,0x0
    3eb8:	8c426b24 	lw	v0,27428(v0)
    3ebc:	00000000 	nop
    3ec0:	00621821 	addu	v1,v1,v0
    3ec4:	3c020000 	lui	v0,0x0
    3ec8:	ac436b1c 	sw	v1,27420(v0)
    3ecc:	3c020000 	lui	v0,0x0
    3ed0:	8c426b1c 	lw	v0,27420(v0)
    3ed4:	00000000 	nop
    3ed8:	28420005 	slti	v0,v0,5
    3edc:	1040000a 	beqz	v0,3f08 <squash_update+0x94>
    3ee0:	00000000 	nop
    3ee4:	3c020000 	lui	v0,0x0
    3ee8:	24030004 	li	v1,4
    3eec:	ac436b1c 	sw	v1,27420(v0)
    3ef0:	3c020000 	lui	v0,0x0
    3ef4:	8c426b24 	lw	v0,27428(v0)
    3ef8:	00000000 	nop
    3efc:	00021823 	negu	v1,v0
    3f00:	3c020000 	lui	v0,0x0
    3f04:	ac436b24 	sw	v1,27428(v0)
    3f08:	3c020000 	lui	v0,0x0
    3f0c:	8c426b1c 	lw	v0,27420(v0)
    3f10:	00000000 	nop
    3f14:	28420030 	slti	v0,v0,48
    3f18:	1440000a 	bnez	v0,3f44 <squash_update+0xd0>
    3f1c:	00000000 	nop
    3f20:	3c020000 	lui	v0,0x0
    3f24:	24030030 	li	v1,48
    3f28:	ac436b1c 	sw	v1,27420(v0)
    3f2c:	3c020000 	lui	v0,0x0
    3f30:	8c426b24 	lw	v0,27428(v0)
    3f34:	00000000 	nop
    3f38:	00021823 	negu	v1,v0
    3f3c:	3c020000 	lui	v0,0x0
    3f40:	ac436b24 	sw	v1,27428(v0)
    3f44:	3c020000 	lui	v0,0x0
    3f48:	8c426b18 	lw	v0,27416(v0)
    3f4c:	00000000 	nop
    3f50:	28420058 	slti	v0,v0,88
    3f54:	1440000a 	bnez	v0,3f80 <squash_update+0x10c>
    3f58:	00000000 	nop
    3f5c:	3c020000 	lui	v0,0x0
    3f60:	24030058 	li	v1,88
    3f64:	ac436b18 	sw	v1,27416(v0)
    3f68:	3c020000 	lui	v0,0x0
    3f6c:	8c426b20 	lw	v0,27424(v0)
    3f70:	00000000 	nop
    3f74:	00021823 	negu	v1,v0
    3f78:	3c020000 	lui	v0,0x0
    3f7c:	ac436b20 	sw	v1,27424(v0)
    3f80:	3c020000 	lui	v0,0x0
    3f84:	8c426b20 	lw	v0,27424(v0)
    3f88:	00000000 	nop
    3f8c:	0441004f 	bgez	v0,40cc <squash_update+0x258>
    3f90:	00000000 	nop
    3f94:	3c020000 	lui	v0,0x0
    3f98:	8c426b78 	lw	v0,27512(v0)
    3f9c:	00000000 	nop
    3fa0:	1440004a 	bnez	v0,40cc <squash_update+0x258>
    3fa4:	00000000 	nop
    3fa8:	3c020000 	lui	v0,0x0
    3fac:	8c426b08 	lw	v0,27400(v0)
    3fb0:	00000000 	nop
    3fb4:	24430008 	addiu	v1,v0,8
    3fb8:	3c020000 	lui	v0,0x0
    3fbc:	8c426b18 	lw	v0,27416(v0)
    3fc0:	00000000 	nop
    3fc4:	0062102a 	slt	v0,v1,v0
    3fc8:	14400040 	bnez	v0,40cc <squash_update+0x258>
    3fcc:	00000000 	nop
    3fd0:	3c020000 	lui	v0,0x0
    3fd4:	8c426b18 	lw	v0,27416(v0)
    3fd8:	00000000 	nop
    3fdc:	24430004 	addiu	v1,v0,4
    3fe0:	3c020000 	lui	v0,0x0
    3fe4:	8c426b08 	lw	v0,27400(v0)
    3fe8:	00000000 	nop
    3fec:	0062102a 	slt	v0,v1,v0
    3ff0:	14400036 	bnez	v0,40cc <squash_update+0x258>
    3ff4:	00000000 	nop
    3ff8:	3c020000 	lui	v0,0x0
    3ffc:	8c426b1c 	lw	v0,27420(v0)
    4000:	00000000 	nop
    4004:	24430004 	addiu	v1,v0,4
    4008:	3c020000 	lui	v0,0x0
    400c:	8c426b0c 	lw	v0,27404(v0)
    4010:	00000000 	nop
    4014:	0062102a 	slt	v0,v1,v0
    4018:	1440002c 	bnez	v0,40cc <squash_update+0x258>
    401c:	00000000 	nop
    4020:	3c020000 	lui	v0,0x0
    4024:	8c426b0c 	lw	v0,27404(v0)
    4028:	00000000 	nop
    402c:	2443000c 	addiu	v1,v0,12
    4030:	3c020000 	lui	v0,0x0
    4034:	8c426b1c 	lw	v0,27420(v0)
    4038:	00000000 	nop
    403c:	0062102a 	slt	v0,v1,v0
    4040:	14400022 	bnez	v0,40cc <squash_update+0x258>
    4044:	00000000 	nop
    4048:	3c020000 	lui	v0,0x0
    404c:	8c426b08 	lw	v0,27400(v0)
    4050:	00000000 	nop
    4054:	24430008 	addiu	v1,v0,8
    4058:	3c020000 	lui	v0,0x0
    405c:	ac436b18 	sw	v1,27416(v0)
    4060:	3c020000 	lui	v0,0x0
    4064:	8c426b20 	lw	v0,27424(v0)
    4068:	00000000 	nop
    406c:	00021823 	negu	v1,v0
    4070:	3c020000 	lui	v0,0x0
    4074:	ac436b20 	sw	v1,27424(v0)
    4078:	3c020000 	lui	v0,0x0
    407c:	8c426b74 	lw	v0,27508(v0)
    4080:	00000000 	nop
    4084:	24430001 	addiu	v1,v0,1
    4088:	3c020000 	lui	v0,0x0
    408c:	ac436b74 	sw	v1,27508(v0)
    4090:	3c020000 	lui	v0,0x0
    4094:	8c426b7c 	lw	v0,27516(v0)
    4098:	00000000 	nop
    409c:	24430001 	addiu	v1,v0,1
    40a0:	3c020000 	lui	v0,0x0
    40a4:	ac436b7c 	sw	v1,27516(v0)
    40a8:	3c020000 	lui	v0,0x0
    40ac:	24030001 	li	v1,1
    40b0:	ac436b78 	sw	v1,27512(v0)
    40b4:	24040008 	li	a0,8
    40b8:	0c000879 	jal	21e4 <buzzer_play>
    40bc:	00000000 	nop
    40c0:	3c020000 	lui	v0,0x0
    40c4:	24030002 	li	v1,2
    40c8:	ac436b70 	sw	v1,27504(v0)
    40cc:	3c020000 	lui	v0,0x0
    40d0:	8c426b20 	lw	v0,27424(v0)
    40d4:	00000000 	nop
    40d8:	0441004e 	bgez	v0,4214 <squash_update+0x3a0>
    40dc:	00000000 	nop
    40e0:	3c020000 	lui	v0,0x0
    40e4:	8c436b78 	lw	v1,27512(v0)
    40e8:	24020001 	li	v0,1
    40ec:	14620049 	bne	v1,v0,4214 <squash_update+0x3a0>
    40f0:	00000000 	nop
    40f4:	3c020000 	lui	v0,0x0
    40f8:	8c426b10 	lw	v0,27408(v0)
    40fc:	00000000 	nop
    4100:	24430008 	addiu	v1,v0,8
    4104:	3c020000 	lui	v0,0x0
    4108:	8c426b18 	lw	v0,27416(v0)
    410c:	00000000 	nop
    4110:	0062102a 	slt	v0,v1,v0
    4114:	1440003f 	bnez	v0,4214 <squash_update+0x3a0>
    4118:	00000000 	nop
    411c:	3c020000 	lui	v0,0x0
    4120:	8c426b18 	lw	v0,27416(v0)
    4124:	00000000 	nop
    4128:	24430004 	addiu	v1,v0,4
    412c:	3c020000 	lui	v0,0x0
    4130:	8c426b10 	lw	v0,27408(v0)
    4134:	00000000 	nop
    4138:	0062102a 	slt	v0,v1,v0
    413c:	14400035 	bnez	v0,4214 <squash_update+0x3a0>
    4140:	00000000 	nop
    4144:	3c020000 	lui	v0,0x0
    4148:	8c426b1c 	lw	v0,27420(v0)
    414c:	00000000 	nop
    4150:	24430004 	addiu	v1,v0,4
    4154:	3c020000 	lui	v0,0x0
    4158:	8c426b14 	lw	v0,27412(v0)
    415c:	00000000 	nop
    4160:	0062102a 	slt	v0,v1,v0
    4164:	1440002b 	bnez	v0,4214 <squash_update+0x3a0>
    4168:	00000000 	nop
    416c:	3c020000 	lui	v0,0x0
    4170:	8c426b14 	lw	v0,27412(v0)
    4174:	00000000 	nop
    4178:	2443000c 	addiu	v1,v0,12
    417c:	3c020000 	lui	v0,0x0
    4180:	8c426b1c 	lw	v0,27420(v0)
    4184:	00000000 	nop
    4188:	0062102a 	slt	v0,v1,v0
    418c:	14400021 	bnez	v0,4214 <squash_update+0x3a0>
    4190:	00000000 	nop
    4194:	3c020000 	lui	v0,0x0
    4198:	8c426b10 	lw	v0,27408(v0)
    419c:	00000000 	nop
    41a0:	24430008 	addiu	v1,v0,8
    41a4:	3c020000 	lui	v0,0x0
    41a8:	ac436b18 	sw	v1,27416(v0)
    41ac:	3c020000 	lui	v0,0x0
    41b0:	8c426b20 	lw	v0,27424(v0)
    41b4:	00000000 	nop
    41b8:	00021823 	negu	v1,v0
    41bc:	3c020000 	lui	v0,0x0
    41c0:	ac436b20 	sw	v1,27424(v0)
    41c4:	3c020000 	lui	v0,0x0
    41c8:	8c426b74 	lw	v0,27508(v0)
    41cc:	00000000 	nop
    41d0:	24430001 	addiu	v1,v0,1
    41d4:	3c020000 	lui	v0,0x0
    41d8:	ac436b74 	sw	v1,27508(v0)
    41dc:	3c020000 	lui	v0,0x0
    41e0:	8c426b7c 	lw	v0,27516(v0)
    41e4:	00000000 	nop
    41e8:	24430001 	addiu	v1,v0,1
    41ec:	3c020000 	lui	v0,0x0
    41f0:	ac436b7c 	sw	v1,27516(v0)
    41f4:	3c020000 	lui	v0,0x0
    41f8:	ac406b78 	sw	zero,27512(v0)
    41fc:	24040008 	li	a0,8
    4200:	0c000879 	jal	21e4 <buzzer_play>
    4204:	00000000 	nop
    4208:	3c020000 	lui	v0,0x0
    420c:	24030002 	li	v1,2
    4210:	ac436b70 	sw	v1,27504(v0)
    4214:	3c020000 	lui	v0,0x0
    4218:	8c426b18 	lw	v0,27416(v0)
    421c:	00000000 	nop
    4220:	0441003b 	bgez	v0,4310 <squash_update+0x49c>
    4224:	00000000 	nop
    4228:	3c020000 	lui	v0,0x0
    422c:	8c426b78 	lw	v0,27512(v0)
    4230:	00000000 	nop
    4234:	14400009 	bnez	v0,425c <squash_update+0x3e8>
    4238:	00000000 	nop
    423c:	3c020000 	lui	v0,0x0
    4240:	8c426b84 	lw	v0,27524(v0)
    4244:	00000000 	nop
    4248:	24430001 	addiu	v1,v0,1
    424c:	3c020000 	lui	v0,0x0
    4250:	ac436b84 	sw	v1,27524(v0)
    4254:	10000007 	b	4274 <squash_update+0x400>
    4258:	00000000 	nop
    425c:	3c020000 	lui	v0,0x0
    4260:	8c426b80 	lw	v0,27520(v0)
    4264:	00000000 	nop
    4268:	24430001 	addiu	v1,v0,1
    426c:	3c020000 	lui	v0,0x0
    4270:	ac436b80 	sw	v1,27520(v0)
    4274:	3c020000 	lui	v0,0x0
    4278:	8c426b80 	lw	v0,27520(v0)
    427c:	00000000 	nop
    4280:	28420005 	slti	v0,v0,5
    4284:	10400007 	beqz	v0,42a4 <squash_update+0x430>
    4288:	00000000 	nop
    428c:	3c020000 	lui	v0,0x0
    4290:	8c426b84 	lw	v0,27524(v0)
    4294:	00000000 	nop
    4298:	28420005 	slti	v0,v0,5
    429c:	14400006 	bnez	v0,42b8 <squash_update+0x444>
    42a0:	00000000 	nop
    42a4:	3c020000 	lui	v0,0x0
    42a8:	24030004 	li	v1,4
    42ac:	ac436b44 	sw	v1,27460(v0)
    42b0:	10000011 	b	42f8 <squash_update+0x484>
    42b4:	00000000 	nop
    42b8:	3c020000 	lui	v0,0x0
    42bc:	24030014 	li	v1,20
    42c0:	ac436b18 	sw	v1,27416(v0)
    42c4:	3c020000 	lui	v0,0x0
    42c8:	2403001a 	li	v1,26
    42cc:	ac436b1c 	sw	v1,27420(v0)
    42d0:	3c020000 	lui	v0,0x0
    42d4:	24030005 	li	v1,5
    42d8:	ac436b20 	sw	v1,27424(v0)
    42dc:	3c020000 	lui	v0,0x0
    42e0:	24030003 	li	v1,3
    42e4:	ac436b24 	sw	v1,27428(v0)
    42e8:	3c020000 	lui	v0,0x0
    42ec:	ac406b7c 	sw	zero,27516(v0)
    42f0:	3c020000 	lui	v0,0x0
    42f4:	ac406b78 	sw	zero,27512(v0)
    42f8:	2404000d 	li	a0,13
    42fc:	0c000879 	jal	21e4 <buzzer_play>
    4300:	00000000 	nop
    4304:	3c020000 	lui	v0,0x0
    4308:	24030005 	li	v1,5
    430c:	ac436b70 	sw	v1,27504(v0)
    4310:	0c000f47 	jal	3d1c <draw_squash_game>
    4314:	00000000 	nop
    4318:	00000000 	nop
    431c:	03c0e825 	move	sp,s8
    4320:	8fbf0014 	lw	ra,20(sp)
    4324:	8fbe0010 	lw	s8,16(sp)
    4328:	27bd0018 	addiu	sp,sp,24
    432c:	03e00008 	jr	ra
    4330:	00000000 	nop

00004334 <squash_move_players>:
    4334:	27bdfff0 	addiu	sp,sp,-16
    4338:	afbe000c 	sw	s8,12(sp)
    433c:	03a0f025 	move	s8,sp
    4340:	24020006 	li	v0,6
    4344:	afc20000 	sw	v0,0(s8)
    4348:	3c020000 	lui	v0,0x0
    434c:	8c436b00 	lw	v1,27392(v0)
    4350:	24020001 	li	v0,1
    4354:	1462000e 	bne	v1,v0,4390 <squash_move_players+0x5c>
    4358:	00000000 	nop
    435c:	3c020000 	lui	v0,0x0
    4360:	8c426b0c 	lw	v0,27404(v0)
    4364:	00000000 	nop
    4368:	28420005 	slti	v0,v0,5
    436c:	14400008 	bnez	v0,4390 <squash_move_players+0x5c>
    4370:	00000000 	nop
    4374:	3c020000 	lui	v0,0x0
    4378:	8c436b0c 	lw	v1,27404(v0)
    437c:	8fc20000 	lw	v0,0(s8)
    4380:	00000000 	nop
    4384:	00621823 	subu	v1,v1,v0
    4388:	3c020000 	lui	v0,0x0
    438c:	ac436b0c 	sw	v1,27404(v0)
    4390:	3c020000 	lui	v0,0x0
    4394:	8c436b00 	lw	v1,27392(v0)
    4398:	24020007 	li	v0,7
    439c:	1462000e 	bne	v1,v0,43d8 <squash_move_players+0xa4>
    43a0:	00000000 	nop
    43a4:	3c020000 	lui	v0,0x0
    43a8:	8c426b0c 	lw	v0,27404(v0)
    43ac:	00000000 	nop
    43b0:	28420028 	slti	v0,v0,40
    43b4:	10400008 	beqz	v0,43d8 <squash_move_players+0xa4>
    43b8:	00000000 	nop
    43bc:	3c020000 	lui	v0,0x0
    43c0:	8c436b0c 	lw	v1,27404(v0)
    43c4:	8fc20000 	lw	v0,0(s8)
    43c8:	00000000 	nop
    43cc:	00621821 	addu	v1,v1,v0
    43d0:	3c020000 	lui	v0,0x0
    43d4:	ac436b0c 	sw	v1,27404(v0)
    43d8:	3c020000 	lui	v0,0x0
    43dc:	8c436b00 	lw	v1,27392(v0)
    43e0:	24020004 	li	v0,4
    43e4:	1462000d 	bne	v1,v0,441c <squash_move_players+0xe8>
    43e8:	00000000 	nop
    43ec:	3c020000 	lui	v0,0x0
    43f0:	8c426b08 	lw	v0,27400(v0)
    43f4:	00000000 	nop
    43f8:	18400008 	blez	v0,441c <squash_move_players+0xe8>
    43fc:	00000000 	nop
    4400:	3c020000 	lui	v0,0x0
    4404:	8c436b08 	lw	v1,27400(v0)
    4408:	8fc20000 	lw	v0,0(s8)
    440c:	00000000 	nop
    4410:	00621823 	subu	v1,v1,v0
    4414:	3c020000 	lui	v0,0x0
    4418:	ac436b08 	sw	v1,27400(v0)
    441c:	3c020000 	lui	v0,0x0
    4420:	8c436b00 	lw	v1,27392(v0)
    4424:	24020005 	li	v0,5
    4428:	1462000e 	bne	v1,v0,4464 <squash_move_players+0x130>
    442c:	00000000 	nop
    4430:	3c020000 	lui	v0,0x0
    4434:	8c426b08 	lw	v0,27400(v0)
    4438:	00000000 	nop
    443c:	28420050 	slti	v0,v0,80
    4440:	10400008 	beqz	v0,4464 <squash_move_players+0x130>
    4444:	00000000 	nop
    4448:	3c020000 	lui	v0,0x0
    444c:	8c436b08 	lw	v1,27400(v0)
    4450:	8fc20000 	lw	v0,0(s8)
    4454:	00000000 	nop
    4458:	00621821 	addu	v1,v1,v0
    445c:	3c020000 	lui	v0,0x0
    4460:	ac436b08 	sw	v1,27400(v0)
    4464:	3c020000 	lui	v0,0x0
    4468:	8c436b04 	lw	v1,27396(v0)
    446c:	2402000a 	li	v0,10
    4470:	1462000e 	bne	v1,v0,44ac <squash_move_players+0x178>
    4474:	00000000 	nop
    4478:	3c020000 	lui	v0,0x0
    447c:	8c426b14 	lw	v0,27412(v0)
    4480:	00000000 	nop
    4484:	28420005 	slti	v0,v0,5
    4488:	14400008 	bnez	v0,44ac <squash_move_players+0x178>
    448c:	00000000 	nop
    4490:	3c020000 	lui	v0,0x0
    4494:	8c436b14 	lw	v1,27412(v0)
    4498:	8fc20000 	lw	v0,0(s8)
    449c:	00000000 	nop
    44a0:	00621823 	subu	v1,v1,v0
    44a4:	3c020000 	lui	v0,0x0
    44a8:	ac436b14 	sw	v1,27412(v0)
    44ac:	3c020000 	lui	v0,0x0
    44b0:	8c436b04 	lw	v1,27396(v0)
    44b4:	2402000c 	li	v0,12
    44b8:	1462000e 	bne	v1,v0,44f4 <squash_move_players+0x1c0>
    44bc:	00000000 	nop
    44c0:	3c020000 	lui	v0,0x0
    44c4:	8c426b14 	lw	v0,27412(v0)
    44c8:	00000000 	nop
    44cc:	28420028 	slti	v0,v0,40
    44d0:	10400008 	beqz	v0,44f4 <squash_move_players+0x1c0>
    44d4:	00000000 	nop
    44d8:	3c020000 	lui	v0,0x0
    44dc:	8c436b14 	lw	v1,27412(v0)
    44e0:	8fc20000 	lw	v0,0(s8)
    44e4:	00000000 	nop
    44e8:	00621821 	addu	v1,v1,v0
    44ec:	3c020000 	lui	v0,0x0
    44f0:	ac436b14 	sw	v1,27412(v0)
    44f4:	3c020000 	lui	v0,0x0
    44f8:	8c436b04 	lw	v1,27396(v0)
    44fc:	24020006 	li	v0,6
    4500:	1462000d 	bne	v1,v0,4538 <squash_move_players+0x204>
    4504:	00000000 	nop
    4508:	3c020000 	lui	v0,0x0
    450c:	8c426b10 	lw	v0,27408(v0)
    4510:	00000000 	nop
    4514:	18400008 	blez	v0,4538 <squash_move_players+0x204>
    4518:	00000000 	nop
    451c:	3c020000 	lui	v0,0x0
    4520:	8c436b10 	lw	v1,27408(v0)
    4524:	8fc20000 	lw	v0,0(s8)
    4528:	00000000 	nop
    452c:	00621823 	subu	v1,v1,v0
    4530:	3c020000 	lui	v0,0x0
    4534:	ac436b10 	sw	v1,27408(v0)
    4538:	3c020000 	lui	v0,0x0
    453c:	8c436b04 	lw	v1,27396(v0)
    4540:	2402000b 	li	v0,11
    4544:	1462000e 	bne	v1,v0,4580 <squash_move_players+0x24c>
    4548:	00000000 	nop
    454c:	3c020000 	lui	v0,0x0
    4550:	8c426b10 	lw	v0,27408(v0)
    4554:	00000000 	nop
    4558:	28420050 	slti	v0,v0,80
    455c:	10400008 	beqz	v0,4580 <squash_move_players+0x24c>
    4560:	00000000 	nop
    4564:	3c020000 	lui	v0,0x0
    4568:	8c436b10 	lw	v1,27408(v0)
    456c:	8fc20000 	lw	v0,0(s8)
    4570:	00000000 	nop
    4574:	00621821 	addu	v1,v1,v0
    4578:	3c020000 	lui	v0,0x0
    457c:	ac436b10 	sw	v1,27408(v0)
    4580:	00000000 	nop
    4584:	03c0e825 	move	sp,s8
    4588:	8fbe000c 	lw	s8,12(sp)
    458c:	27bd0010 	addiu	sp,sp,16
    4590:	03e00008 	jr	ra
    4594:	00000000 	nop

00004598 <draw_result_squash>:
    4598:	27bdffe0 	addiu	sp,sp,-32
    459c:	afbf001c 	sw	ra,28(sp)
    45a0:	afbe0018 	sw	s8,24(sp)
    45a4:	03a0f025 	move	s8,sp
    45a8:	afc40020 	sw	a0,32(s8)
    45ac:	0c000953 	jal	254c <lcd_clear_vbuf>
    45b0:	00000000 	nop
    45b4:	240200ff 	li	v0,255
    45b8:	afa20014 	sw	v0,20(sp)
    45bc:	240200ff 	li	v0,255
    45c0:	afa20010 	sw	v0,16(sp)
    45c4:	240700ff 	li	a3,255
    45c8:	3c020000 	lui	v0,0x0
    45cc:	244669cc 	addiu	a2,v0,27084
    45d0:	00002825 	move	a1,zero
    45d4:	24040001 	li	a0,1
    45d8:	0c000a8a 	jal	2a28 <lcd_puts_color>
    45dc:	00000000 	nop
    45e0:	afa00014 	sw	zero,20(sp)
    45e4:	afa00010 	sw	zero,16(sp)
    45e8:	240700ff 	li	a3,255
    45ec:	3c020000 	lui	v0,0x0
    45f0:	244669dc 	addiu	a2,v0,27100
    45f4:	00002825 	move	a1,zero
    45f8:	24040002 	li	a0,2
    45fc:	0c000a8a 	jal	2a28 <lcd_puts_color>
    4600:	00000000 	nop
    4604:	240200ff 	li	v0,255
    4608:	afa20014 	sw	v0,20(sp)
    460c:	240200ff 	li	v0,255
    4610:	afa20010 	sw	v0,16(sp)
    4614:	240700ff 	li	a3,255
    4618:	3c020000 	lui	v0,0x0
    461c:	244669cc 	addiu	a2,v0,27084
    4620:	00002825 	move	a1,zero
    4624:	24040003 	li	a0,3
    4628:	0c000a8a 	jal	2a28 <lcd_puts_color>
    462c:	00000000 	nop
    4630:	afa00014 	sw	zero,20(sp)
    4634:	240200ff 	li	v0,255
    4638:	afa20010 	sw	v0,16(sp)
    463c:	00003825 	move	a3,zero
    4640:	24060053 	li	a2,83
    4644:	00002825 	move	a1,zero
    4648:	24040005 	li	a0,5
    464c:	0c000a3c 	jal	28f0 <lcd_putc_color>
    4650:	00000000 	nop
    4654:	afa00014 	sw	zero,20(sp)
    4658:	240200ff 	li	v0,255
    465c:	afa20010 	sw	v0,16(sp)
    4660:	00003825 	move	a3,zero
    4664:	24060043 	li	a2,67
    4668:	24050001 	li	a1,1
    466c:	24040005 	li	a0,5
    4670:	0c000a3c 	jal	28f0 <lcd_putc_color>
    4674:	00000000 	nop
    4678:	afa00014 	sw	zero,20(sp)
    467c:	240200ff 	li	v0,255
    4680:	afa20010 	sw	v0,16(sp)
    4684:	00003825 	move	a3,zero
    4688:	2406004f 	li	a2,79
    468c:	24050002 	li	a1,2
    4690:	24040005 	li	a0,5
    4694:	0c000a3c 	jal	28f0 <lcd_putc_color>
    4698:	00000000 	nop
    469c:	afa00014 	sw	zero,20(sp)
    46a0:	240200ff 	li	v0,255
    46a4:	afa20010 	sw	v0,16(sp)
    46a8:	00003825 	move	a3,zero
    46ac:	24060052 	li	a2,82
    46b0:	24050003 	li	a1,3
    46b4:	24040005 	li	a0,5
    46b8:	0c000a3c 	jal	28f0 <lcd_putc_color>
    46bc:	00000000 	nop
    46c0:	afa00014 	sw	zero,20(sp)
    46c4:	240200ff 	li	v0,255
    46c8:	afa20010 	sw	v0,16(sp)
    46cc:	00003825 	move	a3,zero
    46d0:	24060045 	li	a2,69
    46d4:	24050004 	li	a1,4
    46d8:	24040005 	li	a0,5
    46dc:	0c000a3c 	jal	28f0 <lcd_putc_color>
    46e0:	00000000 	nop
    46e4:	afa00014 	sw	zero,20(sp)
    46e8:	240200ff 	li	v0,255
    46ec:	afa20010 	sw	v0,16(sp)
    46f0:	00003825 	move	a3,zero
    46f4:	2406003a 	li	a2,58
    46f8:	24050005 	li	a1,5
    46fc:	24040005 	li	a0,5
    4700:	0c000a3c 	jal	28f0 <lcd_putc_color>
    4704:	00000000 	nop
    4708:	8fc30020 	lw	v1,32(s8)
    470c:	24020064 	li	v0,100
    4710:	0062001a 	div	zero,v1,v0
    4714:	14400002 	bnez	v0,4720 <draw_result_squash+0x188>
    4718:	00000000 	nop
    471c:	0007000d 	break	0x7
    4720:	00001010 	mfhi	v0
    4724:	00001812 	mflo	v1
    4728:	2402000a 	li	v0,10
    472c:	00000000 	nop
    4730:	0062001a 	div	zero,v1,v0
    4734:	14400002 	bnez	v0,4740 <draw_result_squash+0x1a8>
    4738:	00000000 	nop
    473c:	0007000d 	break	0x7
    4740:	00001010 	mfhi	v0
    4744:	24430030 	addiu	v1,v0,48
    4748:	afa00014 	sw	zero,20(sp)
    474c:	240200ff 	li	v0,255
    4750:	afa20010 	sw	v0,16(sp)
    4754:	00003825 	move	a3,zero
    4758:	00603025 	move	a2,v1
    475c:	24050006 	li	a1,6
    4760:	24040005 	li	a0,5
    4764:	0c000a3c 	jal	28f0 <lcd_putc_color>
    4768:	00000000 	nop
    476c:	8fc30020 	lw	v1,32(s8)
    4770:	2402000a 	li	v0,10
    4774:	0062001a 	div	zero,v1,v0
    4778:	14400002 	bnez	v0,4784 <draw_result_squash+0x1ec>
    477c:	00000000 	nop
    4780:	0007000d 	break	0x7
    4784:	00001010 	mfhi	v0
    4788:	00001812 	mflo	v1
    478c:	2402000a 	li	v0,10
    4790:	00000000 	nop
    4794:	0062001a 	div	zero,v1,v0
    4798:	14400002 	bnez	v0,47a4 <draw_result_squash+0x20c>
    479c:	00000000 	nop
    47a0:	0007000d 	break	0x7
    47a4:	00001010 	mfhi	v0
    47a8:	24430030 	addiu	v1,v0,48
    47ac:	afa00014 	sw	zero,20(sp)
    47b0:	240200ff 	li	v0,255
    47b4:	afa20010 	sw	v0,16(sp)
    47b8:	00003825 	move	a3,zero
    47bc:	00603025 	move	a2,v1
    47c0:	24050007 	li	a1,7
    47c4:	24040005 	li	a0,5
    47c8:	0c000a3c 	jal	28f0 <lcd_putc_color>
    47cc:	00000000 	nop
    47d0:	8fc30020 	lw	v1,32(s8)
    47d4:	2402000a 	li	v0,10
    47d8:	0062001a 	div	zero,v1,v0
    47dc:	14400002 	bnez	v0,47e8 <draw_result_squash+0x250>
    47e0:	00000000 	nop
    47e4:	0007000d 	break	0x7
    47e8:	00001010 	mfhi	v0
    47ec:	24430030 	addiu	v1,v0,48
    47f0:	afa00014 	sw	zero,20(sp)
    47f4:	240200ff 	li	v0,255
    47f8:	afa20010 	sw	v0,16(sp)
    47fc:	00003825 	move	a3,zero
    4800:	00603025 	move	a2,v1
    4804:	24050008 	li	a1,8
    4808:	24040005 	li	a0,5
    480c:	0c000a3c 	jal	28f0 <lcd_putc_color>
    4810:	00000000 	nop
    4814:	240200ff 	li	v0,255
    4818:	afa20014 	sw	v0,20(sp)
    481c:	240200ff 	li	v0,255
    4820:	afa20010 	sw	v0,16(sp)
    4824:	00003825 	move	a3,zero
    4828:	3c020000 	lui	v0,0x0
    482c:	24466a0c 	addiu	a2,v0,27148
    4830:	00002825 	move	a1,zero
    4834:	24040007 	li	a0,7
    4838:	0c000a8a 	jal	2a28 <lcd_puts_color>
    483c:	00000000 	nop
    4840:	00000000 	nop
    4844:	03c0e825 	move	sp,s8
    4848:	8fbf001c 	lw	ra,28(sp)
    484c:	8fbe0018 	lw	s8,24(sp)
    4850:	27bd0020 	addiu	sp,sp,32
    4854:	03e00008 	jr	ra
    4858:	00000000 	nop

0000485c <draw_result_squash_2p>:
    485c:	27bdffe0 	addiu	sp,sp,-32
    4860:	afbf001c 	sw	ra,28(sp)
    4864:	afbe0018 	sw	s8,24(sp)
    4868:	03a0f025 	move	s8,sp
    486c:	afc40020 	sw	a0,32(s8)
    4870:	afc50024 	sw	a1,36(s8)
    4874:	0c000953 	jal	254c <lcd_clear_vbuf>
    4878:	00000000 	nop
    487c:	240200ff 	li	v0,255
    4880:	afa20014 	sw	v0,20(sp)
    4884:	240200ff 	li	v0,255
    4888:	afa20010 	sw	v0,16(sp)
    488c:	240700ff 	li	a3,255
    4890:	3c020000 	lui	v0,0x0
    4894:	244669cc 	addiu	a2,v0,27084
    4898:	00002825 	move	a1,zero
    489c:	00002025 	move	a0,zero
    48a0:	0c000a8a 	jal	2a28 <lcd_puts_color>
    48a4:	00000000 	nop
    48a8:	8fc20020 	lw	v0,32(s8)
    48ac:	00000000 	nop
    48b0:	28420005 	slti	v0,v0,5
    48b4:	1440000d 	bnez	v0,48ec <draw_result_squash_2p+0x90>
    48b8:	00000000 	nop
    48bc:	afa00014 	sw	zero,20(sp)
    48c0:	240200ff 	li	v0,255
    48c4:	afa20010 	sw	v0,16(sp)
    48c8:	00003825 	move	a3,zero
    48cc:	3c020000 	lui	v0,0x0
    48d0:	24466ac0 	addiu	a2,v0,27328
    48d4:	24050001 	li	a1,1
    48d8:	24040002 	li	a0,2
    48dc:	0c000a8a 	jal	2a28 <lcd_puts_color>
    48e0:	00000000 	nop
    48e4:	1000000b 	b	4914 <draw_result_squash_2p+0xb8>
    48e8:	00000000 	nop
    48ec:	afa00014 	sw	zero,20(sp)
    48f0:	24020080 	li	v0,128
    48f4:	afa20010 	sw	v0,16(sp)
    48f8:	240700ff 	li	a3,255
    48fc:	3c020000 	lui	v0,0x0
    4900:	24466acc 	addiu	a2,v0,27340
    4904:	24050001 	li	a1,1
    4908:	24040002 	li	a0,2
    490c:	0c000a8a 	jal	2a28 <lcd_puts_color>
    4910:	00000000 	nop
    4914:	240200ff 	li	v0,255
    4918:	afa20014 	sw	v0,20(sp)
    491c:	240200ff 	li	v0,255
    4920:	afa20010 	sw	v0,16(sp)
    4924:	240700ff 	li	a3,255
    4928:	3c020000 	lui	v0,0x0
    492c:	244669cc 	addiu	a2,v0,27084
    4930:	00002825 	move	a1,zero
    4934:	24040003 	li	a0,3
    4938:	0c000a8a 	jal	2a28 <lcd_puts_color>
    493c:	00000000 	nop
    4940:	afa00014 	sw	zero,20(sp)
    4944:	240200ff 	li	v0,255
    4948:	afa20010 	sw	v0,16(sp)
    494c:	00003825 	move	a3,zero
    4950:	3c020000 	lui	v0,0x0
    4954:	24466aac 	addiu	a2,v0,27308
    4958:	24050001 	li	a1,1
    495c:	24040005 	li	a0,5
    4960:	0c000a8a 	jal	2a28 <lcd_puts_color>
    4964:	00000000 	nop
    4968:	8fc20020 	lw	v0,32(s8)
    496c:	00000000 	nop
    4970:	24430030 	addiu	v1,v0,48
    4974:	afa00014 	sw	zero,20(sp)
    4978:	240200ff 	li	v0,255
    497c:	afa20010 	sw	v0,16(sp)
    4980:	00003825 	move	a3,zero
    4984:	00603025 	move	a2,v1
    4988:	24050004 	li	a1,4
    498c:	24040005 	li	a0,5
    4990:	0c000a3c 	jal	28f0 <lcd_putc_color>
    4994:	00000000 	nop
    4998:	240200ff 	li	v0,255
    499c:	afa20014 	sw	v0,20(sp)
    49a0:	240200ff 	li	v0,255
    49a4:	afa20010 	sw	v0,16(sp)
    49a8:	240700ff 	li	a3,255
    49ac:	2406002d 	li	a2,45
    49b0:	24050005 	li	a1,5
    49b4:	24040005 	li	a0,5
    49b8:	0c000a3c 	jal	28f0 <lcd_putc_color>
    49bc:	00000000 	nop
    49c0:	afa00014 	sw	zero,20(sp)
    49c4:	24020080 	li	v0,128
    49c8:	afa20010 	sw	v0,16(sp)
    49cc:	240700ff 	li	a3,255
    49d0:	3c020000 	lui	v0,0x0
    49d4:	24466ab0 	addiu	a2,v0,27312
    49d8:	24050006 	li	a1,6
    49dc:	24040005 	li	a0,5
    49e0:	0c000a8a 	jal	2a28 <lcd_puts_color>
    49e4:	00000000 	nop
    49e8:	8fc20024 	lw	v0,36(s8)
    49ec:	00000000 	nop
    49f0:	24430030 	addiu	v1,v0,48
    49f4:	afa00014 	sw	zero,20(sp)
    49f8:	24020080 	li	v0,128
    49fc:	afa20010 	sw	v0,16(sp)
    4a00:	240700ff 	li	a3,255
    4a04:	00603025 	move	a2,v1
    4a08:	24050009 	li	a1,9
    4a0c:	24040005 	li	a0,5
    4a10:	0c000a3c 	jal	28f0 <lcd_putc_color>
    4a14:	00000000 	nop
    4a18:	240200ff 	li	v0,255
    4a1c:	afa20014 	sw	v0,20(sp)
    4a20:	240200ff 	li	v0,255
    4a24:	afa20010 	sw	v0,16(sp)
    4a28:	00003825 	move	a3,zero
    4a2c:	3c020000 	lui	v0,0x0
    4a30:	24466a0c 	addiu	a2,v0,27148
    4a34:	00002825 	move	a1,zero
    4a38:	24040007 	li	a0,7
    4a3c:	0c000a8a 	jal	2a28 <lcd_puts_color>
    4a40:	00000000 	nop
    4a44:	00000000 	nop
    4a48:	03c0e825 	move	sp,s8
    4a4c:	8fbf001c 	lw	ra,28(sp)
    4a50:	8fbe0018 	lw	s8,24(sp)
    4a54:	27bd0020 	addiu	sp,sp,32
    4a58:	03e00008 	jr	ra
    4a5c:	00000000 	nop

00004a60 <draw_soccer_player>:
    4a60:	27bdffc8 	addiu	sp,sp,-56
    4a64:	afbf0034 	sw	ra,52(sp)
    4a68:	afbe0030 	sw	s8,48(sp)
    4a6c:	03a0f025 	move	s8,sp
    4a70:	afc40038 	sw	a0,56(s8)
    4a74:	afc5003c 	sw	a1,60(s8)
    4a78:	afc60040 	sw	a2,64(s8)
    4a7c:	afc70044 	sw	a3,68(s8)
    4a80:	8fc2004c 	lw	v0,76(s8)
    4a84:	00000000 	nop
    4a88:	10400007 	beqz	v0,4aa8 <draw_soccer_player+0x48>
    4a8c:	00000000 	nop
    4a90:	3c020000 	lui	v0,0x0
    4a94:	8c426b50 	lw	v0,27472(v0)
    4a98:	00000000 	nop
    4a9c:	30420001 	andi	v0,v0,0x1
    4aa0:	10400050 	beqz	v0,4be4 <draw_soccer_player+0x184>
    4aa4:	00000000 	nop
    4aa8:	afc00018 	sw	zero,24(s8)
    4aac:	10000046 	b	4bc8 <draw_soccer_player+0x168>
    4ab0:	00000000 	nop
    4ab4:	afc0001c 	sw	zero,28(s8)
    4ab8:	1000003a 	b	4ba4 <draw_soccer_player+0x144>
    4abc:	00000000 	nop
    4ac0:	8fc3003c 	lw	v1,60(s8)
    4ac4:	8fc20018 	lw	v0,24(s8)
    4ac8:	00000000 	nop
    4acc:	00621021 	addu	v0,v1,v0
    4ad0:	afc20020 	sw	v0,32(s8)
    4ad4:	8fc30038 	lw	v1,56(s8)
    4ad8:	8fc2001c 	lw	v0,28(s8)
    4adc:	00000000 	nop
    4ae0:	00621021 	addu	v0,v1,v0
    4ae4:	afc20024 	sw	v0,36(s8)
    4ae8:	8fc20024 	lw	v0,36(s8)
    4aec:	00000000 	nop
    4af0:	04400028 	bltz	v0,4b94 <draw_soccer_player+0x134>
    4af4:	00000000 	nop
    4af8:	8fc20024 	lw	v0,36(s8)
    4afc:	00000000 	nop
    4b00:	28420060 	slti	v0,v0,96
    4b04:	10400023 	beqz	v0,4b94 <draw_soccer_player+0x134>
    4b08:	00000000 	nop
    4b0c:	8fc20020 	lw	v0,32(s8)
    4b10:	00000000 	nop
    4b14:	0440001f 	bltz	v0,4b94 <draw_soccer_player+0x134>
    4b18:	00000000 	nop
    4b1c:	8fc20020 	lw	v0,32(s8)
    4b20:	00000000 	nop
    4b24:	28420038 	slti	v0,v0,56
    4b28:	1040001a 	beqz	v0,4b94 <draw_soccer_player+0x134>
    4b2c:	00000000 	nop
    4b30:	3c020000 	lui	v0,0x0
    4b34:	8fc30018 	lw	v1,24(s8)
    4b38:	00000000 	nop
    4b3c:	000318c0 	sll	v1,v1,0x3
    4b40:	24426954 	addiu	v0,v0,26964
    4b44:	00621821 	addu	v1,v1,v0
    4b48:	8fc2001c 	lw	v0,28(s8)
    4b4c:	00000000 	nop
    4b50:	00621021 	addu	v0,v1,v0
    4b54:	90420000 	lbu	v0,0(v0)
    4b58:	00000000 	nop
    4b5c:	afc20028 	sw	v0,40(s8)
    4b60:	8fc30028 	lw	v1,40(s8)
    4b64:	24020001 	li	v0,1
    4b68:	1462000a 	bne	v1,v0,4b94 <draw_soccer_player+0x134>
    4b6c:	00000000 	nop
    4b70:	8fc20048 	lw	v0,72(s8)
    4b74:	00000000 	nop
    4b78:	afa20010 	sw	v0,16(sp)
    4b7c:	8fc70044 	lw	a3,68(s8)
    4b80:	8fc60040 	lw	a2,64(s8)
    4b84:	8fc50024 	lw	a1,36(s8)
    4b88:	8fc40020 	lw	a0,32(s8)
    4b8c:	0c000918 	jal	2460 <lcd_set_vbuf_pixel>
    4b90:	00000000 	nop
    4b94:	8fc2001c 	lw	v0,28(s8)
    4b98:	00000000 	nop
    4b9c:	24420001 	addiu	v0,v0,1
    4ba0:	afc2001c 	sw	v0,28(s8)
    4ba4:	8fc2001c 	lw	v0,28(s8)
    4ba8:	00000000 	nop
    4bac:	28420008 	slti	v0,v0,8
    4bb0:	1440ffc3 	bnez	v0,4ac0 <draw_soccer_player+0x60>
    4bb4:	00000000 	nop
    4bb8:	8fc20018 	lw	v0,24(s8)
    4bbc:	00000000 	nop
    4bc0:	24420001 	addiu	v0,v0,1
    4bc4:	afc20018 	sw	v0,24(s8)
    4bc8:	8fc20018 	lw	v0,24(s8)
    4bcc:	00000000 	nop
    4bd0:	28420008 	slti	v0,v0,8
    4bd4:	1440ffb7 	bnez	v0,4ab4 <draw_soccer_player+0x54>
    4bd8:	00000000 	nop
    4bdc:	10000002 	b	4be8 <draw_soccer_player+0x188>
    4be0:	00000000 	nop
    4be4:	00000000 	nop
    4be8:	03c0e825 	move	sp,s8
    4bec:	8fbf0034 	lw	ra,52(sp)
    4bf0:	8fbe0030 	lw	s8,48(sp)
    4bf4:	27bd0038 	addiu	sp,sp,56
    4bf8:	03e00008 	jr	ra
    4bfc:	00000000 	nop

00004c00 <draw_soccer_ball>:
    4c00:	27bdffd0 	addiu	sp,sp,-48
    4c04:	afbf002c 	sw	ra,44(sp)
    4c08:	afbe0028 	sw	s8,40(sp)
    4c0c:	03a0f025 	move	s8,sp
    4c10:	afc40030 	sw	a0,48(s8)
    4c14:	afc50034 	sw	a1,52(s8)
    4c18:	afc00018 	sw	zero,24(s8)
    4c1c:	10000035 	b	4cf4 <draw_soccer_ball+0xf4>
    4c20:	00000000 	nop
    4c24:	afc0001c 	sw	zero,28(s8)
    4c28:	10000029 	b	4cd0 <draw_soccer_ball+0xd0>
    4c2c:	00000000 	nop
    4c30:	8fc30034 	lw	v1,52(s8)
    4c34:	8fc20018 	lw	v0,24(s8)
    4c38:	00000000 	nop
    4c3c:	00621021 	addu	v0,v1,v0
    4c40:	afc20020 	sw	v0,32(s8)
    4c44:	8fc30030 	lw	v1,48(s8)
    4c48:	8fc2001c 	lw	v0,28(s8)
    4c4c:	00000000 	nop
    4c50:	00621021 	addu	v0,v1,v0
    4c54:	afc20024 	sw	v0,36(s8)
    4c58:	8fc20024 	lw	v0,36(s8)
    4c5c:	00000000 	nop
    4c60:	04400017 	bltz	v0,4cc0 <draw_soccer_ball+0xc0>
    4c64:	00000000 	nop
    4c68:	8fc20024 	lw	v0,36(s8)
    4c6c:	00000000 	nop
    4c70:	28420060 	slti	v0,v0,96
    4c74:	10400012 	beqz	v0,4cc0 <draw_soccer_ball+0xc0>
    4c78:	00000000 	nop
    4c7c:	8fc20020 	lw	v0,32(s8)
    4c80:	00000000 	nop
    4c84:	0440000e 	bltz	v0,4cc0 <draw_soccer_ball+0xc0>
    4c88:	00000000 	nop
    4c8c:	8fc20020 	lw	v0,32(s8)
    4c90:	00000000 	nop
    4c94:	28420038 	slti	v0,v0,56
    4c98:	10400009 	beqz	v0,4cc0 <draw_soccer_ball+0xc0>
    4c9c:	00000000 	nop
    4ca0:	240200ff 	li	v0,255
    4ca4:	afa20010 	sw	v0,16(sp)
    4ca8:	240700ff 	li	a3,255
    4cac:	240600ff 	li	a2,255
    4cb0:	8fc50024 	lw	a1,36(s8)
    4cb4:	8fc40020 	lw	a0,32(s8)
    4cb8:	0c000918 	jal	2460 <lcd_set_vbuf_pixel>
    4cbc:	00000000 	nop
    4cc0:	8fc2001c 	lw	v0,28(s8)
    4cc4:	00000000 	nop
    4cc8:	24420001 	addiu	v0,v0,1
    4ccc:	afc2001c 	sw	v0,28(s8)
    4cd0:	8fc2001c 	lw	v0,28(s8)
    4cd4:	00000000 	nop
    4cd8:	28420004 	slti	v0,v0,4
    4cdc:	1440ffd4 	bnez	v0,4c30 <draw_soccer_ball+0x30>
    4ce0:	00000000 	nop
    4ce4:	8fc20018 	lw	v0,24(s8)
    4ce8:	00000000 	nop
    4cec:	24420001 	addiu	v0,v0,1
    4cf0:	afc20018 	sw	v0,24(s8)
    4cf4:	8fc20018 	lw	v0,24(s8)
    4cf8:	00000000 	nop
    4cfc:	28420004 	slti	v0,v0,4
    4d00:	1440ffc8 	bnez	v0,4c24 <draw_soccer_ball+0x24>
    4d04:	00000000 	nop
    4d08:	00000000 	nop
    4d0c:	03c0e825 	move	sp,s8
    4d10:	8fbf002c 	lw	ra,44(sp)
    4d14:	8fbe0028 	lw	s8,40(sp)
    4d18:	27bd0030 	addiu	sp,sp,48
    4d1c:	03e00008 	jr	ra
    4d20:	00000000 	nop

00004d24 <draw_soccer_game>:
    4d24:	27bdffb0 	addiu	sp,sp,-80
    4d28:	afbf004c 	sw	ra,76(sp)
    4d2c:	afbe0048 	sw	s8,72(sp)
    4d30:	03a0f025 	move	s8,sp
    4d34:	0c000953 	jal	254c <lcd_clear_vbuf>
    4d38:	00000000 	nop
    4d3c:	afc00018 	sw	zero,24(s8)
    4d40:	10000018 	b	4da4 <draw_soccer_game+0x80>
    4d44:	00000000 	nop
    4d48:	afc0001c 	sw	zero,28(s8)
    4d4c:	1000000c 	b	4d80 <draw_soccer_game+0x5c>
    4d50:	00000000 	nop
    4d54:	afa00010 	sw	zero,16(sp)
    4d58:	24070050 	li	a3,80
    4d5c:	00003025 	move	a2,zero
    4d60:	8fc5001c 	lw	a1,28(s8)
    4d64:	8fc40018 	lw	a0,24(s8)
    4d68:	0c000918 	jal	2460 <lcd_set_vbuf_pixel>
    4d6c:	00000000 	nop
    4d70:	8fc2001c 	lw	v0,28(s8)
    4d74:	00000000 	nop
    4d78:	24420001 	addiu	v0,v0,1
    4d7c:	afc2001c 	sw	v0,28(s8)
    4d80:	8fc2001c 	lw	v0,28(s8)
    4d84:	00000000 	nop
    4d88:	28420060 	slti	v0,v0,96
    4d8c:	1440fff1 	bnez	v0,4d54 <draw_soccer_game+0x30>
    4d90:	00000000 	nop
    4d94:	8fc20018 	lw	v0,24(s8)
    4d98:	00000000 	nop
    4d9c:	24420001 	addiu	v0,v0,1
    4da0:	afc20018 	sw	v0,24(s8)
    4da4:	8fc20018 	lw	v0,24(s8)
    4da8:	00000000 	nop
    4dac:	28420038 	slti	v0,v0,56
    4db0:	1440ffe5 	bnez	v0,4d48 <draw_soccer_game+0x24>
    4db4:	00000000 	nop
    4db8:	afc00020 	sw	zero,32(s8)
    4dbc:	1000000d 	b	4df4 <draw_soccer_game+0xd0>
    4dc0:	00000000 	nop
    4dc4:	240200ff 	li	v0,255
    4dc8:	afa20010 	sw	v0,16(sp)
    4dcc:	240700ff 	li	a3,255
    4dd0:	240600ff 	li	a2,255
    4dd4:	24050030 	li	a1,48
    4dd8:	8fc40020 	lw	a0,32(s8)
    4ddc:	0c000918 	jal	2460 <lcd_set_vbuf_pixel>
    4de0:	00000000 	nop
    4de4:	8fc20020 	lw	v0,32(s8)
    4de8:	00000000 	nop
    4dec:	24420001 	addiu	v0,v0,1
    4df0:	afc20020 	sw	v0,32(s8)
    4df4:	8fc20020 	lw	v0,32(s8)
    4df8:	00000000 	nop
    4dfc:	28420038 	slti	v0,v0,56
    4e00:	1440fff0 	bnez	v0,4dc4 <draw_soccer_game+0xa0>
    4e04:	00000000 	nop
    4e08:	afc00024 	sw	zero,36(s8)
    4e0c:	1000008d 	b	5044 <draw_soccer_game+0x320>
    4e10:	00000000 	nop
    4e14:	24020030 	li	v0,48
    4e18:	afc2003c 	sw	v0,60(s8)
    4e1c:	2402001c 	li	v0,28
    4e20:	afc20040 	sw	v0,64(s8)
    4e24:	8fc20024 	lw	v0,36(s8)
    4e28:	00000000 	nop
    4e2c:	1440000c 	bnez	v0,4e60 <draw_soccer_game+0x13c>
    4e30:	00000000 	nop
    4e34:	8fc20040 	lw	v0,64(s8)
    4e38:	00000000 	nop
    4e3c:	2443fff8 	addiu	v1,v0,-8
    4e40:	240200ff 	li	v0,255
    4e44:	afa20010 	sw	v0,16(sp)
    4e48:	240700ff 	li	a3,255
    4e4c:	240600ff 	li	a2,255
    4e50:	8fc5003c 	lw	a1,60(s8)
    4e54:	00602025 	move	a0,v1
    4e58:	0c000918 	jal	2460 <lcd_set_vbuf_pixel>
    4e5c:	00000000 	nop
    4e60:	8fc30024 	lw	v1,36(s8)
    4e64:	24020001 	li	v0,1
    4e68:	1462000c 	bne	v1,v0,4e9c <draw_soccer_game+0x178>
    4e6c:	00000000 	nop
    4e70:	8fc20040 	lw	v0,64(s8)
    4e74:	00000000 	nop
    4e78:	24430008 	addiu	v1,v0,8
    4e7c:	240200ff 	li	v0,255
    4e80:	afa20010 	sw	v0,16(sp)
    4e84:	240700ff 	li	a3,255
    4e88:	240600ff 	li	a2,255
    4e8c:	8fc5003c 	lw	a1,60(s8)
    4e90:	00602025 	move	a0,v1
    4e94:	0c000918 	jal	2460 <lcd_set_vbuf_pixel>
    4e98:	00000000 	nop
    4e9c:	8fc30024 	lw	v1,36(s8)
    4ea0:	24020002 	li	v0,2
    4ea4:	1462000c 	bne	v1,v0,4ed8 <draw_soccer_game+0x1b4>
    4ea8:	00000000 	nop
    4eac:	8fc2003c 	lw	v0,60(s8)
    4eb0:	00000000 	nop
    4eb4:	2443fff8 	addiu	v1,v0,-8
    4eb8:	240200ff 	li	v0,255
    4ebc:	afa20010 	sw	v0,16(sp)
    4ec0:	240700ff 	li	a3,255
    4ec4:	240600ff 	li	a2,255
    4ec8:	00602825 	move	a1,v1
    4ecc:	8fc40040 	lw	a0,64(s8)
    4ed0:	0c000918 	jal	2460 <lcd_set_vbuf_pixel>
    4ed4:	00000000 	nop
    4ed8:	8fc30024 	lw	v1,36(s8)
    4edc:	24020003 	li	v0,3
    4ee0:	1462000c 	bne	v1,v0,4f14 <draw_soccer_game+0x1f0>
    4ee4:	00000000 	nop
    4ee8:	8fc2003c 	lw	v0,60(s8)
    4eec:	00000000 	nop
    4ef0:	24430008 	addiu	v1,v0,8
    4ef4:	240200ff 	li	v0,255
    4ef8:	afa20010 	sw	v0,16(sp)
    4efc:	240700ff 	li	a3,255
    4f00:	240600ff 	li	a2,255
    4f04:	00602825 	move	a1,v1
    4f08:	8fc40040 	lw	a0,64(s8)
    4f0c:	0c000918 	jal	2460 <lcd_set_vbuf_pixel>
    4f10:	00000000 	nop
    4f14:	8fc30024 	lw	v1,36(s8)
    4f18:	24020004 	li	v0,4
    4f1c:	1462000f 	bne	v1,v0,4f5c <draw_soccer_game+0x238>
    4f20:	00000000 	nop
    4f24:	8fc20040 	lw	v0,64(s8)
    4f28:	00000000 	nop
    4f2c:	2443fffa 	addiu	v1,v0,-6
    4f30:	8fc2003c 	lw	v0,60(s8)
    4f34:	00000000 	nop
    4f38:	2444fffa 	addiu	a0,v0,-6
    4f3c:	240200ff 	li	v0,255
    4f40:	afa20010 	sw	v0,16(sp)
    4f44:	240700ff 	li	a3,255
    4f48:	240600ff 	li	a2,255
    4f4c:	00802825 	move	a1,a0
    4f50:	00602025 	move	a0,v1
    4f54:	0c000918 	jal	2460 <lcd_set_vbuf_pixel>
    4f58:	00000000 	nop
    4f5c:	8fc30024 	lw	v1,36(s8)
    4f60:	24020005 	li	v0,5
    4f64:	1462000f 	bne	v1,v0,4fa4 <draw_soccer_game+0x280>
    4f68:	00000000 	nop
    4f6c:	8fc20040 	lw	v0,64(s8)
    4f70:	00000000 	nop
    4f74:	2443fffa 	addiu	v1,v0,-6
    4f78:	8fc2003c 	lw	v0,60(s8)
    4f7c:	00000000 	nop
    4f80:	24440006 	addiu	a0,v0,6
    4f84:	240200ff 	li	v0,255
    4f88:	afa20010 	sw	v0,16(sp)
    4f8c:	240700ff 	li	a3,255
    4f90:	240600ff 	li	a2,255
    4f94:	00802825 	move	a1,a0
    4f98:	00602025 	move	a0,v1
    4f9c:	0c000918 	jal	2460 <lcd_set_vbuf_pixel>
    4fa0:	00000000 	nop
    4fa4:	8fc30024 	lw	v1,36(s8)
    4fa8:	24020006 	li	v0,6
    4fac:	1462000f 	bne	v1,v0,4fec <draw_soccer_game+0x2c8>
    4fb0:	00000000 	nop
    4fb4:	8fc20040 	lw	v0,64(s8)
    4fb8:	00000000 	nop
    4fbc:	24430006 	addiu	v1,v0,6
    4fc0:	8fc2003c 	lw	v0,60(s8)
    4fc4:	00000000 	nop
    4fc8:	2444fffa 	addiu	a0,v0,-6
    4fcc:	240200ff 	li	v0,255
    4fd0:	afa20010 	sw	v0,16(sp)
    4fd4:	240700ff 	li	a3,255
    4fd8:	240600ff 	li	a2,255
    4fdc:	00802825 	move	a1,a0
    4fe0:	00602025 	move	a0,v1
    4fe4:	0c000918 	jal	2460 <lcd_set_vbuf_pixel>
    4fe8:	00000000 	nop
    4fec:	8fc30024 	lw	v1,36(s8)
    4ff0:	24020007 	li	v0,7
    4ff4:	1462000f 	bne	v1,v0,5034 <draw_soccer_game+0x310>
    4ff8:	00000000 	nop
    4ffc:	8fc20040 	lw	v0,64(s8)
    5000:	00000000 	nop
    5004:	24430006 	addiu	v1,v0,6
    5008:	8fc2003c 	lw	v0,60(s8)
    500c:	00000000 	nop
    5010:	24440006 	addiu	a0,v0,6
    5014:	240200ff 	li	v0,255
    5018:	afa20010 	sw	v0,16(sp)
    501c:	240700ff 	li	a3,255
    5020:	240600ff 	li	a2,255
    5024:	00802825 	move	a1,a0
    5028:	00602025 	move	a0,v1
    502c:	0c000918 	jal	2460 <lcd_set_vbuf_pixel>
    5030:	00000000 	nop
    5034:	8fc20024 	lw	v0,36(s8)
    5038:	00000000 	nop
    503c:	24420001 	addiu	v0,v0,1
    5040:	afc20024 	sw	v0,36(s8)
    5044:	8fc20024 	lw	v0,36(s8)
    5048:	00000000 	nop
    504c:	28420008 	slti	v0,v0,8
    5050:	1440ff70 	bnez	v0,4e14 <draw_soccer_game+0xf0>
    5054:	00000000 	nop
    5058:	24020010 	li	v0,16
    505c:	afc20028 	sw	v0,40(s8)
    5060:	10000013 	b	50b0 <draw_soccer_game+0x38c>
    5064:	00000000 	nop
    5068:	afa00010 	sw	zero,16(sp)
    506c:	240700ff 	li	a3,255
    5070:	240600ff 	li	a2,255
    5074:	00002825 	move	a1,zero
    5078:	8fc40028 	lw	a0,40(s8)
    507c:	0c000918 	jal	2460 <lcd_set_vbuf_pixel>
    5080:	00000000 	nop
    5084:	afa00010 	sw	zero,16(sp)
    5088:	240700ff 	li	a3,255
    508c:	240600ff 	li	a2,255
    5090:	2405005f 	li	a1,95
    5094:	8fc40028 	lw	a0,40(s8)
    5098:	0c000918 	jal	2460 <lcd_set_vbuf_pixel>
    509c:	00000000 	nop
    50a0:	8fc20028 	lw	v0,40(s8)
    50a4:	00000000 	nop
    50a8:	24420001 	addiu	v0,v0,1
    50ac:	afc20028 	sw	v0,40(s8)
    50b0:	8fc20028 	lw	v0,40(s8)
    50b4:	00000000 	nop
    50b8:	28420028 	slti	v0,v0,40
    50bc:	1440ffea 	bnez	v0,5068 <draw_soccer_game+0x344>
    50c0:	00000000 	nop
    50c4:	3c020000 	lui	v0,0x0
    50c8:	8c426ba0 	lw	v0,27552(v0)
    50cc:	00000000 	nop
    50d0:	18400009 	blez	v0,50f8 <draw_soccer_game+0x3d4>
    50d4:	00000000 	nop
    50d8:	3c020000 	lui	v0,0x0
    50dc:	8c436b94 	lw	v1,27540(v0)
    50e0:	24020001 	li	v0,1
    50e4:	10620004 	beq	v1,v0,50f8 <draw_soccer_game+0x3d4>
    50e8:	00000000 	nop
    50ec:	24020001 	li	v0,1
    50f0:	10000002 	b	50fc <draw_soccer_game+0x3d8>
    50f4:	00000000 	nop
    50f8:	00001025 	move	v0,zero
    50fc:	afc20034 	sw	v0,52(s8)
    5100:	3c020000 	lui	v0,0x0
    5104:	8c426ba0 	lw	v0,27552(v0)
    5108:	00000000 	nop
    510c:	18400009 	blez	v0,5134 <draw_soccer_game+0x410>
    5110:	00000000 	nop
    5114:	3c020000 	lui	v0,0x0
    5118:	8c436b94 	lw	v1,27540(v0)
    511c:	24020002 	li	v0,2
    5120:	10620004 	beq	v1,v0,5134 <draw_soccer_game+0x410>
    5124:	00000000 	nop
    5128:	24020001 	li	v0,1
    512c:	10000002 	b	5138 <draw_soccer_game+0x414>
    5130:	00000000 	nop
    5134:	00001025 	move	v0,zero
    5138:	afc20038 	sw	v0,56(s8)
    513c:	3c020000 	lui	v0,0x0
    5140:	8c436b2c 	lw	v1,27436(v0)
    5144:	3c020000 	lui	v0,0x0
    5148:	8c446b30 	lw	a0,27440(v0)
    514c:	8fc20034 	lw	v0,52(s8)
    5150:	00000000 	nop
    5154:	afa20014 	sw	v0,20(sp)
    5158:	afa00010 	sw	zero,16(sp)
    515c:	240700ff 	li	a3,255
    5160:	00003025 	move	a2,zero
    5164:	00802825 	move	a1,a0
    5168:	00602025 	move	a0,v1
    516c:	0c001298 	jal	4a60 <draw_soccer_player>
    5170:	00000000 	nop
    5174:	3c020000 	lui	v0,0x0
    5178:	8c436b34 	lw	v1,27444(v0)
    517c:	3c020000 	lui	v0,0x0
    5180:	8c446b38 	lw	a0,27448(v0)
    5184:	8fc20038 	lw	v0,56(s8)
    5188:	00000000 	nop
    518c:	afa20014 	sw	v0,20(sp)
    5190:	afa00010 	sw	zero,16(sp)
    5194:	24070080 	li	a3,128
    5198:	240600ff 	li	a2,255
    519c:	00802825 	move	a1,a0
    51a0:	00602025 	move	a0,v1
    51a4:	0c001298 	jal	4a60 <draw_soccer_player>
    51a8:	00000000 	nop
    51ac:	3c020000 	lui	v0,0x0
    51b0:	8c436b94 	lw	v1,27540(v0)
    51b4:	24020001 	li	v0,1
    51b8:	1462000d 	bne	v1,v0,51f0 <draw_soccer_game+0x4cc>
    51bc:	00000000 	nop
    51c0:	3c020000 	lui	v0,0x0
    51c4:	8c426b2c 	lw	v0,27436(v0)
    51c8:	00000000 	nop
    51cc:	24420008 	addiu	v0,v0,8
    51d0:	afc2002c 	sw	v0,44(s8)
    51d4:	3c020000 	lui	v0,0x0
    51d8:	8c426b30 	lw	v0,27440(v0)
    51dc:	00000000 	nop
    51e0:	24420002 	addiu	v0,v0,2
    51e4:	afc20030 	sw	v0,48(s8)
    51e8:	1000001a 	b	5254 <draw_soccer_game+0x530>
    51ec:	00000000 	nop
    51f0:	3c020000 	lui	v0,0x0
    51f4:	8c436b94 	lw	v1,27540(v0)
    51f8:	24020002 	li	v0,2
    51fc:	1462000d 	bne	v1,v0,5234 <draw_soccer_game+0x510>
    5200:	00000000 	nop
    5204:	3c020000 	lui	v0,0x0
    5208:	8c426b34 	lw	v0,27444(v0)
    520c:	00000000 	nop
    5210:	2442fffc 	addiu	v0,v0,-4
    5214:	afc2002c 	sw	v0,44(s8)
    5218:	3c020000 	lui	v0,0x0
    521c:	8c426b38 	lw	v0,27448(v0)
    5220:	00000000 	nop
    5224:	24420002 	addiu	v0,v0,2
    5228:	afc20030 	sw	v0,48(s8)
    522c:	10000009 	b	5254 <draw_soccer_game+0x530>
    5230:	00000000 	nop
    5234:	3c020000 	lui	v0,0x0
    5238:	8c426b3c 	lw	v0,27452(v0)
    523c:	00000000 	nop
    5240:	afc2002c 	sw	v0,44(s8)
    5244:	3c020000 	lui	v0,0x0
    5248:	8c426b40 	lw	v0,27456(v0)
    524c:	00000000 	nop
    5250:	afc20030 	sw	v0,48(s8)
    5254:	8fc50030 	lw	a1,48(s8)
    5258:	8fc4002c 	lw	a0,44(s8)
    525c:	0c001300 	jal	4c00 <draw_soccer_ball>
    5260:	00000000 	nop
    5264:	afa00014 	sw	zero,20(sp)
    5268:	240200ff 	li	v0,255
    526c:	afa20010 	sw	v0,16(sp)
    5270:	00003825 	move	a3,zero
    5274:	3c020000 	lui	v0,0x0
    5278:	24466aac 	addiu	a2,v0,27308
    527c:	00002825 	move	a1,zero
    5280:	24040007 	li	a0,7
    5284:	0c000a8a 	jal	2a28 <lcd_puts_color>
    5288:	00000000 	nop
    528c:	3c020000 	lui	v0,0x0
    5290:	8c426b98 	lw	v0,27544(v0)
    5294:	00000000 	nop
    5298:	24430030 	addiu	v1,v0,48
    529c:	afa00014 	sw	zero,20(sp)
    52a0:	240200ff 	li	v0,255
    52a4:	afa20010 	sw	v0,16(sp)
    52a8:	00003825 	move	a3,zero
    52ac:	00603025 	move	a2,v1
    52b0:	24050003 	li	a1,3
    52b4:	24040007 	li	a0,7
    52b8:	0c000a3c 	jal	28f0 <lcd_putc_color>
    52bc:	00000000 	nop
    52c0:	240200ff 	li	v0,255
    52c4:	afa20014 	sw	v0,20(sp)
    52c8:	240200ff 	li	v0,255
    52cc:	afa20010 	sw	v0,16(sp)
    52d0:	240700ff 	li	a3,255
    52d4:	2406002d 	li	a2,45
    52d8:	24050004 	li	a1,4
    52dc:	24040007 	li	a0,7
    52e0:	0c000a3c 	jal	28f0 <lcd_putc_color>
    52e4:	00000000 	nop
    52e8:	afa00014 	sw	zero,20(sp)
    52ec:	24020080 	li	v0,128
    52f0:	afa20010 	sw	v0,16(sp)
    52f4:	240700ff 	li	a3,255
    52f8:	3c020000 	lui	v0,0x0
    52fc:	24466ab0 	addiu	a2,v0,27312
    5300:	24050005 	li	a1,5
    5304:	24040007 	li	a0,7
    5308:	0c000a8a 	jal	2a28 <lcd_puts_color>
    530c:	00000000 	nop
    5310:	3c020000 	lui	v0,0x0
    5314:	8c426b9c 	lw	v0,27548(v0)
    5318:	00000000 	nop
    531c:	24430030 	addiu	v1,v0,48
    5320:	afa00014 	sw	zero,20(sp)
    5324:	24020080 	li	v0,128
    5328:	afa20010 	sw	v0,16(sp)
    532c:	240700ff 	li	a3,255
    5330:	00603025 	move	a2,v1
    5334:	24050008 	li	a1,8
    5338:	24040007 	li	a0,7
    533c:	0c000a3c 	jal	28f0 <lcd_putc_color>
    5340:	00000000 	nop
    5344:	00000000 	nop
    5348:	03c0e825 	move	sp,s8
    534c:	8fbf004c 	lw	ra,76(sp)
    5350:	8fbe0048 	lw	s8,72(sp)
    5354:	27bd0050 	addiu	sp,sp,80
    5358:	03e00008 	jr	ra
    535c:	00000000 	nop

00005360 <soccer_reset_positions>:
    5360:	27bdfff8 	addiu	sp,sp,-8
    5364:	afbe0004 	sw	s8,4(sp)
    5368:	03a0f025 	move	s8,sp
    536c:	3c020000 	lui	v0,0x0
    5370:	2403000a 	li	v1,10
    5374:	ac436b2c 	sw	v1,27436(v0)
    5378:	3c020000 	lui	v0,0x0
    537c:	24030018 	li	v1,24
    5380:	ac436b30 	sw	v1,27440(v0)
    5384:	3c020000 	lui	v0,0x0
    5388:	2403004e 	li	v1,78
    538c:	ac436b34 	sw	v1,27444(v0)
    5390:	3c020000 	lui	v0,0x0
    5394:	24030018 	li	v1,24
    5398:	ac436b38 	sw	v1,27448(v0)
    539c:	3c020000 	lui	v0,0x0
    53a0:	2403002c 	li	v1,44
    53a4:	ac436b3c 	sw	v1,27452(v0)
    53a8:	3c020000 	lui	v0,0x0
    53ac:	24030018 	li	v1,24
    53b0:	ac436b40 	sw	v1,27456(v0)
    53b4:	3c020000 	lui	v0,0x0
    53b8:	ac406b88 	sw	zero,27528(v0)
    53bc:	3c020000 	lui	v0,0x0
    53c0:	ac406b8c 	sw	zero,27532(v0)
    53c4:	3c020000 	lui	v0,0x0
    53c8:	ac406b90 	sw	zero,27536(v0)
    53cc:	3c020000 	lui	v0,0x0
    53d0:	ac406b94 	sw	zero,27540(v0)
    53d4:	3c020000 	lui	v0,0x0
    53d8:	ac406ba0 	sw	zero,27552(v0)
    53dc:	00000000 	nop
    53e0:	03c0e825 	move	sp,s8
    53e4:	8fbe0004 	lw	s8,4(sp)
    53e8:	27bd0008 	addiu	sp,sp,8
    53ec:	03e00008 	jr	ra
    53f0:	00000000 	nop

000053f4 <soccer_update>:
    53f4:	27bdff98 	addiu	sp,sp,-104
    53f8:	afbf0064 	sw	ra,100(sp)
    53fc:	afbe0060 	sw	s8,96(sp)
    5400:	03a0f025 	move	s8,sp
    5404:	3c020000 	lui	v0,0x0
    5408:	8c426ba0 	lw	v0,27552(v0)
    540c:	00000000 	nop
    5410:	18400007 	blez	v0,5430 <soccer_update+0x3c>
    5414:	00000000 	nop
    5418:	3c020000 	lui	v0,0x0
    541c:	8c426ba0 	lw	v0,27552(v0)
    5420:	00000000 	nop
    5424:	2443ffff 	addiu	v1,v0,-1
    5428:	3c020000 	lui	v0,0x0
    542c:	ac436ba0 	sw	v1,27552(v0)
    5430:	3c020000 	lui	v0,0x0
    5434:	8c436b94 	lw	v1,27540(v0)
    5438:	24020001 	li	v0,1
    543c:	14620004 	bne	v1,v0,5450 <soccer_update+0x5c>
    5440:	00000000 	nop
    5444:	24020004 	li	v0,4
    5448:	10000002 	b	5454 <soccer_update+0x60>
    544c:	00000000 	nop
    5450:	24020006 	li	v0,6
    5454:	afc20038 	sw	v0,56(s8)
    5458:	3c020000 	lui	v0,0x0
    545c:	8c436b94 	lw	v1,27540(v0)
    5460:	24020002 	li	v0,2
    5464:	14620004 	bne	v1,v0,5478 <soccer_update+0x84>
    5468:	00000000 	nop
    546c:	24020004 	li	v0,4
    5470:	10000002 	b	547c <soccer_update+0x88>
    5474:	00000000 	nop
    5478:	24020006 	li	v0,6
    547c:	afc2003c 	sw	v0,60(s8)
    5480:	3c020000 	lui	v0,0x0
    5484:	8c436b00 	lw	v1,27392(v0)
    5488:	24020001 	li	v0,1
    548c:	14620014 	bne	v1,v0,54e0 <soccer_update+0xec>
    5490:	00000000 	nop
    5494:	3c020000 	lui	v0,0x0
    5498:	8c426b30 	lw	v0,27440(v0)
    549c:	00000000 	nop
    54a0:	18400008 	blez	v0,54c4 <soccer_update+0xd0>
    54a4:	00000000 	nop
    54a8:	3c020000 	lui	v0,0x0
    54ac:	8c436b30 	lw	v1,27440(v0)
    54b0:	8fc20038 	lw	v0,56(s8)
    54b4:	00000000 	nop
    54b8:	00621823 	subu	v1,v1,v0
    54bc:	3c020000 	lui	v0,0x0
    54c0:	ac436b30 	sw	v1,27440(v0)
    54c4:	3c020000 	lui	v0,0x0
    54c8:	8c426b30 	lw	v0,27440(v0)
    54cc:	00000000 	nop
    54d0:	04410003 	bgez	v0,54e0 <soccer_update+0xec>
    54d4:	00000000 	nop
    54d8:	3c020000 	lui	v0,0x0
    54dc:	ac406b30 	sw	zero,27440(v0)
    54e0:	3c020000 	lui	v0,0x0
    54e4:	8c436b00 	lw	v1,27392(v0)
    54e8:	24020007 	li	v0,7
    54ec:	14620017 	bne	v1,v0,554c <soccer_update+0x158>
    54f0:	00000000 	nop
    54f4:	3c020000 	lui	v0,0x0
    54f8:	8c426b30 	lw	v0,27440(v0)
    54fc:	00000000 	nop
    5500:	28420030 	slti	v0,v0,48
    5504:	10400008 	beqz	v0,5528 <soccer_update+0x134>
    5508:	00000000 	nop
    550c:	3c020000 	lui	v0,0x0
    5510:	8c436b30 	lw	v1,27440(v0)
    5514:	8fc20038 	lw	v0,56(s8)
    5518:	00000000 	nop
    551c:	00621821 	addu	v1,v1,v0
    5520:	3c020000 	lui	v0,0x0
    5524:	ac436b30 	sw	v1,27440(v0)
    5528:	3c020000 	lui	v0,0x0
    552c:	8c426b30 	lw	v0,27440(v0)
    5530:	00000000 	nop
    5534:	28420031 	slti	v0,v0,49
    5538:	14400004 	bnez	v0,554c <soccer_update+0x158>
    553c:	00000000 	nop
    5540:	3c020000 	lui	v0,0x0
    5544:	24030030 	li	v1,48
    5548:	ac436b30 	sw	v1,27440(v0)
    554c:	3c020000 	lui	v0,0x0
    5550:	8c436b00 	lw	v1,27392(v0)
    5554:	24020004 	li	v0,4
    5558:	14620014 	bne	v1,v0,55ac <soccer_update+0x1b8>
    555c:	00000000 	nop
    5560:	3c020000 	lui	v0,0x0
    5564:	8c426b2c 	lw	v0,27436(v0)
    5568:	00000000 	nop
    556c:	18400008 	blez	v0,5590 <soccer_update+0x19c>
    5570:	00000000 	nop
    5574:	3c020000 	lui	v0,0x0
    5578:	8c436b2c 	lw	v1,27436(v0)
    557c:	8fc20038 	lw	v0,56(s8)
    5580:	00000000 	nop
    5584:	00621823 	subu	v1,v1,v0
    5588:	3c020000 	lui	v0,0x0
    558c:	ac436b2c 	sw	v1,27436(v0)
    5590:	3c020000 	lui	v0,0x0
    5594:	8c426b2c 	lw	v0,27436(v0)
    5598:	00000000 	nop
    559c:	04410003 	bgez	v0,55ac <soccer_update+0x1b8>
    55a0:	00000000 	nop
    55a4:	3c020000 	lui	v0,0x0
    55a8:	ac406b2c 	sw	zero,27436(v0)
    55ac:	3c020000 	lui	v0,0x0
    55b0:	8c436b00 	lw	v1,27392(v0)
    55b4:	24020005 	li	v0,5
    55b8:	14620017 	bne	v1,v0,5618 <soccer_update+0x224>
    55bc:	00000000 	nop
    55c0:	3c020000 	lui	v0,0x0
    55c4:	8c426b2c 	lw	v0,27436(v0)
    55c8:	00000000 	nop
    55cc:	28420058 	slti	v0,v0,88
    55d0:	10400008 	beqz	v0,55f4 <soccer_update+0x200>
    55d4:	00000000 	nop
    55d8:	3c020000 	lui	v0,0x0
    55dc:	8c436b2c 	lw	v1,27436(v0)
    55e0:	8fc20038 	lw	v0,56(s8)
    55e4:	00000000 	nop
    55e8:	00621821 	addu	v1,v1,v0
    55ec:	3c020000 	lui	v0,0x0
    55f0:	ac436b2c 	sw	v1,27436(v0)
    55f4:	3c020000 	lui	v0,0x0
    55f8:	8c426b2c 	lw	v0,27436(v0)
    55fc:	00000000 	nop
    5600:	28420059 	slti	v0,v0,89
    5604:	14400004 	bnez	v0,5618 <soccer_update+0x224>
    5608:	00000000 	nop
    560c:	3c020000 	lui	v0,0x0
    5610:	24030058 	li	v1,88
    5614:	ac436b2c 	sw	v1,27436(v0)
    5618:	3c020000 	lui	v0,0x0
    561c:	8c436b04 	lw	v1,27396(v0)
    5620:	2402000a 	li	v0,10
    5624:	14620014 	bne	v1,v0,5678 <soccer_update+0x284>
    5628:	00000000 	nop
    562c:	3c020000 	lui	v0,0x0
    5630:	8c426b38 	lw	v0,27448(v0)
    5634:	00000000 	nop
    5638:	18400008 	blez	v0,565c <soccer_update+0x268>
    563c:	00000000 	nop
    5640:	3c020000 	lui	v0,0x0
    5644:	8c436b38 	lw	v1,27448(v0)
    5648:	8fc2003c 	lw	v0,60(s8)
    564c:	00000000 	nop
    5650:	00621823 	subu	v1,v1,v0
    5654:	3c020000 	lui	v0,0x0
    5658:	ac436b38 	sw	v1,27448(v0)
    565c:	3c020000 	lui	v0,0x0
    5660:	8c426b38 	lw	v0,27448(v0)
    5664:	00000000 	nop
    5668:	04410003 	bgez	v0,5678 <soccer_update+0x284>
    566c:	00000000 	nop
    5670:	3c020000 	lui	v0,0x0
    5674:	ac406b38 	sw	zero,27448(v0)
    5678:	3c020000 	lui	v0,0x0
    567c:	8c436b04 	lw	v1,27396(v0)
    5680:	2402000c 	li	v0,12
    5684:	14620017 	bne	v1,v0,56e4 <soccer_update+0x2f0>
    5688:	00000000 	nop
    568c:	3c020000 	lui	v0,0x0
    5690:	8c426b38 	lw	v0,27448(v0)
    5694:	00000000 	nop
    5698:	28420030 	slti	v0,v0,48
    569c:	10400008 	beqz	v0,56c0 <soccer_update+0x2cc>
    56a0:	00000000 	nop
    56a4:	3c020000 	lui	v0,0x0
    56a8:	8c436b38 	lw	v1,27448(v0)
    56ac:	8fc2003c 	lw	v0,60(s8)
    56b0:	00000000 	nop
    56b4:	00621821 	addu	v1,v1,v0
    56b8:	3c020000 	lui	v0,0x0
    56bc:	ac436b38 	sw	v1,27448(v0)
    56c0:	3c020000 	lui	v0,0x0
    56c4:	8c426b38 	lw	v0,27448(v0)
    56c8:	00000000 	nop
    56cc:	28420031 	slti	v0,v0,49
    56d0:	14400004 	bnez	v0,56e4 <soccer_update+0x2f0>
    56d4:	00000000 	nop
    56d8:	3c020000 	lui	v0,0x0
    56dc:	24030030 	li	v1,48
    56e0:	ac436b38 	sw	v1,27448(v0)
    56e4:	3c020000 	lui	v0,0x0
    56e8:	8c436b04 	lw	v1,27396(v0)
    56ec:	24020006 	li	v0,6
    56f0:	14620014 	bne	v1,v0,5744 <soccer_update+0x350>
    56f4:	00000000 	nop
    56f8:	3c020000 	lui	v0,0x0
    56fc:	8c426b34 	lw	v0,27444(v0)
    5700:	00000000 	nop
    5704:	18400008 	blez	v0,5728 <soccer_update+0x334>
    5708:	00000000 	nop
    570c:	3c020000 	lui	v0,0x0
    5710:	8c436b34 	lw	v1,27444(v0)
    5714:	8fc2003c 	lw	v0,60(s8)
    5718:	00000000 	nop
    571c:	00621823 	subu	v1,v1,v0
    5720:	3c020000 	lui	v0,0x0
    5724:	ac436b34 	sw	v1,27444(v0)
    5728:	3c020000 	lui	v0,0x0
    572c:	8c426b34 	lw	v0,27444(v0)
    5730:	00000000 	nop
    5734:	04410003 	bgez	v0,5744 <soccer_update+0x350>
    5738:	00000000 	nop
    573c:	3c020000 	lui	v0,0x0
    5740:	ac406b34 	sw	zero,27444(v0)
    5744:	3c020000 	lui	v0,0x0
    5748:	8c436b04 	lw	v1,27396(v0)
    574c:	2402000b 	li	v0,11
    5750:	14620017 	bne	v1,v0,57b0 <soccer_update+0x3bc>
    5754:	00000000 	nop
    5758:	3c020000 	lui	v0,0x0
    575c:	8c426b34 	lw	v0,27444(v0)
    5760:	00000000 	nop
    5764:	28420058 	slti	v0,v0,88
    5768:	10400008 	beqz	v0,578c <soccer_update+0x398>
    576c:	00000000 	nop
    5770:	3c020000 	lui	v0,0x0
    5774:	8c436b34 	lw	v1,27444(v0)
    5778:	8fc2003c 	lw	v0,60(s8)
    577c:	00000000 	nop
    5780:	00621821 	addu	v1,v1,v0
    5784:	3c020000 	lui	v0,0x0
    5788:	ac436b34 	sw	v1,27444(v0)
    578c:	3c020000 	lui	v0,0x0
    5790:	8c426b34 	lw	v0,27444(v0)
    5794:	00000000 	nop
    5798:	28420059 	slti	v0,v0,89
    579c:	14400004 	bnez	v0,57b0 <soccer_update+0x3bc>
    57a0:	00000000 	nop
    57a4:	3c020000 	lui	v0,0x0
    57a8:	24030058 	li	v1,88
    57ac:	ac436b34 	sw	v1,27444(v0)
    57b0:	3c020000 	lui	v0,0x0
    57b4:	8c436b00 	lw	v1,27392(v0)
    57b8:	24020008 	li	v0,8
    57bc:	1462005b 	bne	v1,v0,592c <soccer_update+0x538>
    57c0:	00000000 	nop
    57c4:	3c020000 	lui	v0,0x0
    57c8:	8c436b94 	lw	v1,27540(v0)
    57cc:	24020001 	li	v0,1
    57d0:	14620056 	bne	v1,v0,592c <soccer_update+0x538>
    57d4:	00000000 	nop
    57d8:	3c020000 	lui	v0,0x0
    57dc:	24030001 	li	v1,1
    57e0:	ac436b90 	sw	v1,27536(v0)
    57e4:	3c020000 	lui	v0,0x0
    57e8:	ac406b94 	sw	zero,27540(v0)
    57ec:	3c020000 	lui	v0,0x0
    57f0:	8c426b2c 	lw	v0,27436(v0)
    57f4:	00000000 	nop
    57f8:	24430008 	addiu	v1,v0,8
    57fc:	3c020000 	lui	v0,0x0
    5800:	ac436b3c 	sw	v1,27452(v0)
    5804:	3c020000 	lui	v0,0x0
    5808:	8c426b30 	lw	v0,27440(v0)
    580c:	00000000 	nop
    5810:	24430002 	addiu	v1,v0,2
    5814:	3c020000 	lui	v0,0x0
    5818:	ac436b40 	sw	v1,27456(v0)
    581c:	2402001c 	li	v0,28
    5820:	afc20040 	sw	v0,64(s8)
    5824:	3c020000 	lui	v0,0x0
    5828:	8c426b40 	lw	v0,27456(v0)
    582c:	8fc30040 	lw	v1,64(s8)
    5830:	00000000 	nop
    5834:	00621023 	subu	v0,v1,v0
    5838:	afc20044 	sw	v0,68(s8)
    583c:	3c020000 	lui	v0,0x0
    5840:	24030008 	li	v1,8
    5844:	ac436b88 	sw	v1,27528(v0)
    5848:	8fc20044 	lw	v0,68(s8)
    584c:	00000000 	nop
    5850:	28420015 	slti	v0,v0,21
    5854:	14400006 	bnez	v0,5870 <soccer_update+0x47c>
    5858:	00000000 	nop
    585c:	3c020000 	lui	v0,0x0
    5860:	24030003 	li	v1,3
    5864:	ac436b8c 	sw	v1,27532(v0)
    5868:	1000002a 	b	5914 <soccer_update+0x520>
    586c:	00000000 	nop
    5870:	8fc20044 	lw	v0,68(s8)
    5874:	00000000 	nop
    5878:	28420009 	slti	v0,v0,9
    587c:	14400006 	bnez	v0,5898 <soccer_update+0x4a4>
    5880:	00000000 	nop
    5884:	3c020000 	lui	v0,0x0
    5888:	24030002 	li	v1,2
    588c:	ac436b8c 	sw	v1,27532(v0)
    5890:	10000020 	b	5914 <soccer_update+0x520>
    5894:	00000000 	nop
    5898:	8fc20044 	lw	v0,68(s8)
    589c:	00000000 	nop
    58a0:	18400006 	blez	v0,58bc <soccer_update+0x4c8>
    58a4:	00000000 	nop
    58a8:	3c020000 	lui	v0,0x0
    58ac:	24030001 	li	v1,1
    58b0:	ac436b8c 	sw	v1,27532(v0)
    58b4:	10000017 	b	5914 <soccer_update+0x520>
    58b8:	00000000 	nop
    58bc:	8fc20044 	lw	v0,68(s8)
    58c0:	00000000 	nop
    58c4:	2842fff9 	slti	v0,v0,-7
    58c8:	14400005 	bnez	v0,58e0 <soccer_update+0x4ec>
    58cc:	00000000 	nop
    58d0:	3c020000 	lui	v0,0x0
    58d4:	ac406b8c 	sw	zero,27532(v0)
    58d8:	1000000e 	b	5914 <soccer_update+0x520>
    58dc:	00000000 	nop
    58e0:	8fc20044 	lw	v0,68(s8)
    58e4:	00000000 	nop
    58e8:	2842ffed 	slti	v0,v0,-19
    58ec:	14400006 	bnez	v0,5908 <soccer_update+0x514>
    58f0:	00000000 	nop
    58f4:	3c020000 	lui	v0,0x0
    58f8:	2403fffe 	li	v1,-2
    58fc:	ac436b8c 	sw	v1,27532(v0)
    5900:	10000004 	b	5914 <soccer_update+0x520>
    5904:	00000000 	nop
    5908:	3c020000 	lui	v0,0x0
    590c:	2403fffd 	li	v1,-3
    5910:	ac436b8c 	sw	v1,27532(v0)
    5914:	2404000d 	li	a0,13
    5918:	0c000879 	jal	21e4 <buzzer_play>
    591c:	00000000 	nop
    5920:	3c020000 	lui	v0,0x0
    5924:	24030002 	li	v1,2
    5928:	ac436b70 	sw	v1,27504(v0)
    592c:	3c020000 	lui	v0,0x0
    5930:	8c436b04 	lw	v1,27396(v0)
    5934:	24020003 	li	v0,3
    5938:	1462005b 	bne	v1,v0,5aa8 <soccer_update+0x6b4>
    593c:	00000000 	nop
    5940:	3c020000 	lui	v0,0x0
    5944:	8c436b94 	lw	v1,27540(v0)
    5948:	24020002 	li	v0,2
    594c:	14620056 	bne	v1,v0,5aa8 <soccer_update+0x6b4>
    5950:	00000000 	nop
    5954:	3c020000 	lui	v0,0x0
    5958:	24030001 	li	v1,1
    595c:	ac436b90 	sw	v1,27536(v0)
    5960:	3c020000 	lui	v0,0x0
    5964:	ac406b94 	sw	zero,27540(v0)
    5968:	3c020000 	lui	v0,0x0
    596c:	8c426b34 	lw	v0,27444(v0)
    5970:	00000000 	nop
    5974:	2443fffc 	addiu	v1,v0,-4
    5978:	3c020000 	lui	v0,0x0
    597c:	ac436b3c 	sw	v1,27452(v0)
    5980:	3c020000 	lui	v0,0x0
    5984:	8c426b38 	lw	v0,27448(v0)
    5988:	00000000 	nop
    598c:	24430002 	addiu	v1,v0,2
    5990:	3c020000 	lui	v0,0x0
    5994:	ac436b40 	sw	v1,27456(v0)
    5998:	2402001c 	li	v0,28
    599c:	afc20048 	sw	v0,72(s8)
    59a0:	3c020000 	lui	v0,0x0
    59a4:	8c426b40 	lw	v0,27456(v0)
    59a8:	8fc30048 	lw	v1,72(s8)
    59ac:	00000000 	nop
    59b0:	00621023 	subu	v0,v1,v0
    59b4:	afc2004c 	sw	v0,76(s8)
    59b8:	3c020000 	lui	v0,0x0
    59bc:	2403fff8 	li	v1,-8
    59c0:	ac436b88 	sw	v1,27528(v0)
    59c4:	8fc2004c 	lw	v0,76(s8)
    59c8:	00000000 	nop
    59cc:	28420015 	slti	v0,v0,21
    59d0:	14400006 	bnez	v0,59ec <soccer_update+0x5f8>
    59d4:	00000000 	nop
    59d8:	3c020000 	lui	v0,0x0
    59dc:	24030003 	li	v1,3
    59e0:	ac436b8c 	sw	v1,27532(v0)
    59e4:	1000002a 	b	5a90 <soccer_update+0x69c>
    59e8:	00000000 	nop
    59ec:	8fc2004c 	lw	v0,76(s8)
    59f0:	00000000 	nop
    59f4:	28420009 	slti	v0,v0,9
    59f8:	14400006 	bnez	v0,5a14 <soccer_update+0x620>
    59fc:	00000000 	nop
    5a00:	3c020000 	lui	v0,0x0
    5a04:	24030002 	li	v1,2
    5a08:	ac436b8c 	sw	v1,27532(v0)
    5a0c:	10000020 	b	5a90 <soccer_update+0x69c>
    5a10:	00000000 	nop
    5a14:	8fc2004c 	lw	v0,76(s8)
    5a18:	00000000 	nop
    5a1c:	18400006 	blez	v0,5a38 <soccer_update+0x644>
    5a20:	00000000 	nop
    5a24:	3c020000 	lui	v0,0x0
    5a28:	24030001 	li	v1,1
    5a2c:	ac436b8c 	sw	v1,27532(v0)
    5a30:	10000017 	b	5a90 <soccer_update+0x69c>
    5a34:	00000000 	nop
    5a38:	8fc2004c 	lw	v0,76(s8)
    5a3c:	00000000 	nop
    5a40:	2842fff9 	slti	v0,v0,-7
    5a44:	14400005 	bnez	v0,5a5c <soccer_update+0x668>
    5a48:	00000000 	nop
    5a4c:	3c020000 	lui	v0,0x0
    5a50:	ac406b8c 	sw	zero,27532(v0)
    5a54:	1000000e 	b	5a90 <soccer_update+0x69c>
    5a58:	00000000 	nop
    5a5c:	8fc2004c 	lw	v0,76(s8)
    5a60:	00000000 	nop
    5a64:	2842ffed 	slti	v0,v0,-19
    5a68:	14400006 	bnez	v0,5a84 <soccer_update+0x690>
    5a6c:	00000000 	nop
    5a70:	3c020000 	lui	v0,0x0
    5a74:	2403fffe 	li	v1,-2
    5a78:	ac436b8c 	sw	v1,27532(v0)
    5a7c:	10000004 	b	5a90 <soccer_update+0x69c>
    5a80:	00000000 	nop
    5a84:	3c020000 	lui	v0,0x0
    5a88:	2403fffd 	li	v1,-3
    5a8c:	ac436b8c 	sw	v1,27532(v0)
    5a90:	2404000d 	li	a0,13
    5a94:	0c000879 	jal	21e4 <buzzer_play>
    5a98:	00000000 	nop
    5a9c:	3c020000 	lui	v0,0x0
    5aa0:	24030002 	li	v1,2
    5aa4:	ac436b70 	sw	v1,27504(v0)
    5aa8:	3c020000 	lui	v0,0x0
    5aac:	8c426b90 	lw	v0,27536(v0)
    5ab0:	00000000 	nop
    5ab4:	1040006a 	beqz	v0,5c60 <soccer_update+0x86c>
    5ab8:	00000000 	nop
    5abc:	3c020000 	lui	v0,0x0
    5ac0:	8c436b3c 	lw	v1,27452(v0)
    5ac4:	3c020000 	lui	v0,0x0
    5ac8:	8c426b88 	lw	v0,27528(v0)
    5acc:	00000000 	nop
    5ad0:	00621821 	addu	v1,v1,v0
    5ad4:	3c020000 	lui	v0,0x0
    5ad8:	ac436b3c 	sw	v1,27452(v0)
    5adc:	3c020000 	lui	v0,0x0
    5ae0:	8c436b40 	lw	v1,27456(v0)
    5ae4:	3c020000 	lui	v0,0x0
    5ae8:	8c426b8c 	lw	v0,27532(v0)
    5aec:	00000000 	nop
    5af0:	00621821 	addu	v1,v1,v0
    5af4:	3c020000 	lui	v0,0x0
    5af8:	ac436b40 	sw	v1,27456(v0)
    5afc:	3c020000 	lui	v0,0x0
    5b00:	8c426b40 	lw	v0,27456(v0)
    5b04:	00000000 	nop
    5b08:	1c400009 	bgtz	v0,5b30 <soccer_update+0x73c>
    5b0c:	00000000 	nop
    5b10:	3c020000 	lui	v0,0x0
    5b14:	ac406b40 	sw	zero,27456(v0)
    5b18:	3c020000 	lui	v0,0x0
    5b1c:	8c426b8c 	lw	v0,27532(v0)
    5b20:	00000000 	nop
    5b24:	00021823 	negu	v1,v0
    5b28:	3c020000 	lui	v0,0x0
    5b2c:	ac436b8c 	sw	v1,27532(v0)
    5b30:	3c020000 	lui	v0,0x0
    5b34:	8c426b40 	lw	v0,27456(v0)
    5b38:	00000000 	nop
    5b3c:	28420030 	slti	v0,v0,48
    5b40:	1440000a 	bnez	v0,5b6c <soccer_update+0x778>
    5b44:	00000000 	nop
    5b48:	3c020000 	lui	v0,0x0
    5b4c:	24030030 	li	v1,48
    5b50:	ac436b40 	sw	v1,27456(v0)
    5b54:	3c020000 	lui	v0,0x0
    5b58:	8c426b8c 	lw	v0,27532(v0)
    5b5c:	00000000 	nop
    5b60:	00021823 	negu	v1,v0
    5b64:	3c020000 	lui	v0,0x0
    5b68:	ac436b8c 	sw	v1,27532(v0)
    5b6c:	3c020000 	lui	v0,0x0
    5b70:	8c426b3c 	lw	v0,27452(v0)
    5b74:	00000000 	nop
    5b78:	28420060 	slti	v0,v0,96
    5b7c:	1440001a 	bnez	v0,5be8 <soccer_update+0x7f4>
    5b80:	00000000 	nop
    5b84:	3c020000 	lui	v0,0x0
    5b88:	8c426b98 	lw	v0,27544(v0)
    5b8c:	00000000 	nop
    5b90:	24430001 	addiu	v1,v0,1
    5b94:	3c020000 	lui	v0,0x0
    5b98:	ac436b98 	sw	v1,27544(v0)
    5b9c:	2404000d 	li	a0,13
    5ba0:	0c000879 	jal	21e4 <buzzer_play>
    5ba4:	00000000 	nop
    5ba8:	3c020000 	lui	v0,0x0
    5bac:	24030005 	li	v1,5
    5bb0:	ac436b70 	sw	v1,27504(v0)
    5bb4:	3c020000 	lui	v0,0x0
    5bb8:	8c426b98 	lw	v0,27544(v0)
    5bbc:	00000000 	nop
    5bc0:	28420003 	slti	v0,v0,3
    5bc4:	14400006 	bnez	v0,5be0 <soccer_update+0x7ec>
    5bc8:	00000000 	nop
    5bcc:	3c020000 	lui	v0,0x0
    5bd0:	24030004 	li	v1,4
    5bd4:	ac436b44 	sw	v1,27460(v0)
    5bd8:	10000003 	b	5be8 <soccer_update+0x7f4>
    5bdc:	00000000 	nop
    5be0:	0c0014d8 	jal	5360 <soccer_reset_positions>
    5be4:	00000000 	nop
    5be8:	3c020000 	lui	v0,0x0
    5bec:	8c426b3c 	lw	v0,27452(v0)
    5bf0:	00000000 	nop
    5bf4:	1c40001a 	bgtz	v0,5c60 <soccer_update+0x86c>
    5bf8:	00000000 	nop
    5bfc:	3c020000 	lui	v0,0x0
    5c00:	8c426b9c 	lw	v0,27548(v0)
    5c04:	00000000 	nop
    5c08:	24430001 	addiu	v1,v0,1
    5c0c:	3c020000 	lui	v0,0x0
    5c10:	ac436b9c 	sw	v1,27548(v0)
    5c14:	2404000d 	li	a0,13
    5c18:	0c000879 	jal	21e4 <buzzer_play>
    5c1c:	00000000 	nop
    5c20:	3c020000 	lui	v0,0x0
    5c24:	24030005 	li	v1,5
    5c28:	ac436b70 	sw	v1,27504(v0)
    5c2c:	3c020000 	lui	v0,0x0
    5c30:	8c426b9c 	lw	v0,27548(v0)
    5c34:	00000000 	nop
    5c38:	28420003 	slti	v0,v0,3
    5c3c:	14400006 	bnez	v0,5c58 <soccer_update+0x864>
    5c40:	00000000 	nop
    5c44:	3c020000 	lui	v0,0x0
    5c48:	24030004 	li	v1,4
    5c4c:	ac436b44 	sw	v1,27460(v0)
    5c50:	10000003 	b	5c60 <soccer_update+0x86c>
    5c54:	00000000 	nop
    5c58:	0c0014d8 	jal	5360 <soccer_reset_positions>
    5c5c:	00000000 	nop
    5c60:	3c020000 	lui	v0,0x0
    5c64:	8c426b94 	lw	v0,27540(v0)
    5c68:	00000000 	nop
    5c6c:	14400068 	bnez	v0,5e10 <soccer_update+0xa1c>
    5c70:	00000000 	nop
    5c74:	3c020000 	lui	v0,0x0
    5c78:	8c426b90 	lw	v0,27536(v0)
    5c7c:	00000000 	nop
    5c80:	14400063 	bnez	v0,5e10 <soccer_update+0xa1c>
    5c84:	00000000 	nop
    5c88:	3c020000 	lui	v0,0x0
    5c8c:	8c436b2c 	lw	v1,27436(v0)
    5c90:	3c020000 	lui	v0,0x0
    5c94:	8c426b3c 	lw	v0,27452(v0)
    5c98:	00000000 	nop
    5c9c:	00621023 	subu	v0,v1,v0
    5ca0:	afc20010 	sw	v0,16(s8)
    5ca4:	3c020000 	lui	v0,0x0
    5ca8:	8c436b30 	lw	v1,27440(v0)
    5cac:	3c020000 	lui	v0,0x0
    5cb0:	8c426b40 	lw	v0,27456(v0)
    5cb4:	00000000 	nop
    5cb8:	00621023 	subu	v0,v1,v0
    5cbc:	afc20014 	sw	v0,20(s8)
    5cc0:	8fc20010 	lw	v0,16(s8)
    5cc4:	00000000 	nop
    5cc8:	04410005 	bgez	v0,5ce0 <soccer_update+0x8ec>
    5ccc:	00000000 	nop
    5cd0:	8fc20010 	lw	v0,16(s8)
    5cd4:	00000000 	nop
    5cd8:	00021023 	negu	v0,v0
    5cdc:	afc20010 	sw	v0,16(s8)
    5ce0:	8fc20014 	lw	v0,20(s8)
    5ce4:	00000000 	nop
    5ce8:	04410005 	bgez	v0,5d00 <soccer_update+0x90c>
    5cec:	00000000 	nop
    5cf0:	8fc20014 	lw	v0,20(s8)
    5cf4:	00000000 	nop
    5cf8:	00021023 	negu	v0,v0
    5cfc:	afc20014 	sw	v0,20(s8)
    5d00:	8fc20010 	lw	v0,16(s8)
    5d04:	00000000 	nop
    5d08:	28420006 	slti	v0,v0,6
    5d0c:	1040000f 	beqz	v0,5d4c <soccer_update+0x958>
    5d10:	00000000 	nop
    5d14:	8fc20014 	lw	v0,20(s8)
    5d18:	00000000 	nop
    5d1c:	28420006 	slti	v0,v0,6
    5d20:	1040000a 	beqz	v0,5d4c <soccer_update+0x958>
    5d24:	00000000 	nop
    5d28:	3c020000 	lui	v0,0x0
    5d2c:	24030001 	li	v1,1
    5d30:	ac436b94 	sw	v1,27540(v0)
    5d34:	24040008 	li	a0,8
    5d38:	0c000879 	jal	21e4 <buzzer_play>
    5d3c:	00000000 	nop
    5d40:	3c020000 	lui	v0,0x0
    5d44:	24030002 	li	v1,2
    5d48:	ac436b70 	sw	v1,27504(v0)
    5d4c:	3c020000 	lui	v0,0x0
    5d50:	8c436b34 	lw	v1,27444(v0)
    5d54:	3c020000 	lui	v0,0x0
    5d58:	8c426b3c 	lw	v0,27452(v0)
    5d5c:	00000000 	nop
    5d60:	00621023 	subu	v0,v1,v0
    5d64:	afc20018 	sw	v0,24(s8)
    5d68:	3c020000 	lui	v0,0x0
    5d6c:	8c436b38 	lw	v1,27448(v0)
    5d70:	3c020000 	lui	v0,0x0
    5d74:	8c426b40 	lw	v0,27456(v0)
    5d78:	00000000 	nop
    5d7c:	00621023 	subu	v0,v1,v0
    5d80:	afc2001c 	sw	v0,28(s8)
    5d84:	8fc20018 	lw	v0,24(s8)
    5d88:	00000000 	nop
    5d8c:	04410005 	bgez	v0,5da4 <soccer_update+0x9b0>
    5d90:	00000000 	nop
    5d94:	8fc20018 	lw	v0,24(s8)
    5d98:	00000000 	nop
    5d9c:	00021023 	negu	v0,v0
    5da0:	afc20018 	sw	v0,24(s8)
    5da4:	8fc2001c 	lw	v0,28(s8)
    5da8:	00000000 	nop
    5dac:	04410005 	bgez	v0,5dc4 <soccer_update+0x9d0>
    5db0:	00000000 	nop
    5db4:	8fc2001c 	lw	v0,28(s8)
    5db8:	00000000 	nop
    5dbc:	00021023 	negu	v0,v0
    5dc0:	afc2001c 	sw	v0,28(s8)
    5dc4:	8fc20018 	lw	v0,24(s8)
    5dc8:	00000000 	nop
    5dcc:	28420006 	slti	v0,v0,6
    5dd0:	1040000f 	beqz	v0,5e10 <soccer_update+0xa1c>
    5dd4:	00000000 	nop
    5dd8:	8fc2001c 	lw	v0,28(s8)
    5ddc:	00000000 	nop
    5de0:	28420006 	slti	v0,v0,6
    5de4:	1040000a 	beqz	v0,5e10 <soccer_update+0xa1c>
    5de8:	00000000 	nop
    5dec:	3c020000 	lui	v0,0x0
    5df0:	24030002 	li	v1,2
    5df4:	ac436b94 	sw	v1,27540(v0)
    5df8:	24040008 	li	a0,8
    5dfc:	0c000879 	jal	21e4 <buzzer_play>
    5e00:	00000000 	nop
    5e04:	3c020000 	lui	v0,0x0
    5e08:	24030002 	li	v1,2
    5e0c:	ac436b70 	sw	v1,27504(v0)
    5e10:	3c020000 	lui	v0,0x0
    5e14:	8c426b90 	lw	v0,27536(v0)
    5e18:	00000000 	nop
    5e1c:	1040006f 	beqz	v0,5fdc <soccer_update+0xbe8>
    5e20:	00000000 	nop
    5e24:	3c020000 	lui	v0,0x0
    5e28:	8c436b2c 	lw	v1,27436(v0)
    5e2c:	3c020000 	lui	v0,0x0
    5e30:	8c426b3c 	lw	v0,27452(v0)
    5e34:	00000000 	nop
    5e38:	00621023 	subu	v0,v1,v0
    5e3c:	afc20020 	sw	v0,32(s8)
    5e40:	3c020000 	lui	v0,0x0
    5e44:	8c436b30 	lw	v1,27440(v0)
    5e48:	3c020000 	lui	v0,0x0
    5e4c:	8c426b40 	lw	v0,27456(v0)
    5e50:	00000000 	nop
    5e54:	00621023 	subu	v0,v1,v0
    5e58:	afc20024 	sw	v0,36(s8)
    5e5c:	8fc20020 	lw	v0,32(s8)
    5e60:	00000000 	nop
    5e64:	04410005 	bgez	v0,5e7c <soccer_update+0xa88>
    5e68:	00000000 	nop
    5e6c:	8fc20020 	lw	v0,32(s8)
    5e70:	00000000 	nop
    5e74:	00021023 	negu	v0,v0
    5e78:	afc20020 	sw	v0,32(s8)
    5e7c:	8fc20024 	lw	v0,36(s8)
    5e80:	00000000 	nop
    5e84:	04410005 	bgez	v0,5e9c <soccer_update+0xaa8>
    5e88:	00000000 	nop
    5e8c:	8fc20024 	lw	v0,36(s8)
    5e90:	00000000 	nop
    5e94:	00021023 	negu	v0,v0
    5e98:	afc20024 	sw	v0,36(s8)
    5e9c:	8fc20020 	lw	v0,32(s8)
    5ea0:	00000000 	nop
    5ea4:	28420006 	slti	v0,v0,6
    5ea8:	10400015 	beqz	v0,5f00 <soccer_update+0xb0c>
    5eac:	00000000 	nop
    5eb0:	8fc20024 	lw	v0,36(s8)
    5eb4:	00000000 	nop
    5eb8:	28420006 	slti	v0,v0,6
    5ebc:	10400010 	beqz	v0,5f00 <soccer_update+0xb0c>
    5ec0:	00000000 	nop
    5ec4:	3c020000 	lui	v0,0x0
    5ec8:	24030001 	li	v1,1
    5ecc:	ac436b94 	sw	v1,27540(v0)
    5ed0:	3c020000 	lui	v0,0x0
    5ed4:	ac406b90 	sw	zero,27536(v0)
    5ed8:	3c020000 	lui	v0,0x0
    5edc:	ac406b88 	sw	zero,27528(v0)
    5ee0:	3c020000 	lui	v0,0x0
    5ee4:	ac406b8c 	sw	zero,27532(v0)
    5ee8:	24040008 	li	a0,8
    5eec:	0c000879 	jal	21e4 <buzzer_play>
    5ef0:	00000000 	nop
    5ef4:	3c020000 	lui	v0,0x0
    5ef8:	24030002 	li	v1,2
    5efc:	ac436b70 	sw	v1,27504(v0)
    5f00:	3c020000 	lui	v0,0x0
    5f04:	8c436b34 	lw	v1,27444(v0)
    5f08:	3c020000 	lui	v0,0x0
    5f0c:	8c426b3c 	lw	v0,27452(v0)
    5f10:	00000000 	nop
    5f14:	00621023 	subu	v0,v1,v0
    5f18:	afc20028 	sw	v0,40(s8)
    5f1c:	3c020000 	lui	v0,0x0
    5f20:	8c436b38 	lw	v1,27448(v0)
    5f24:	3c020000 	lui	v0,0x0
    5f28:	8c426b40 	lw	v0,27456(v0)
    5f2c:	00000000 	nop
    5f30:	00621023 	subu	v0,v1,v0
    5f34:	afc2002c 	sw	v0,44(s8)
    5f38:	8fc20028 	lw	v0,40(s8)
    5f3c:	00000000 	nop
    5f40:	04410005 	bgez	v0,5f58 <soccer_update+0xb64>
    5f44:	00000000 	nop
    5f48:	8fc20028 	lw	v0,40(s8)
    5f4c:	00000000 	nop
    5f50:	00021023 	negu	v0,v0
    5f54:	afc20028 	sw	v0,40(s8)
    5f58:	8fc2002c 	lw	v0,44(s8)
    5f5c:	00000000 	nop
    5f60:	04410005 	bgez	v0,5f78 <soccer_update+0xb84>
    5f64:	00000000 	nop
    5f68:	8fc2002c 	lw	v0,44(s8)
    5f6c:	00000000 	nop
    5f70:	00021023 	negu	v0,v0
    5f74:	afc2002c 	sw	v0,44(s8)
    5f78:	8fc20028 	lw	v0,40(s8)
    5f7c:	00000000 	nop
    5f80:	28420006 	slti	v0,v0,6
    5f84:	10400015 	beqz	v0,5fdc <soccer_update+0xbe8>
    5f88:	00000000 	nop
    5f8c:	8fc2002c 	lw	v0,44(s8)
    5f90:	00000000 	nop
    5f94:	28420006 	slti	v0,v0,6
    5f98:	10400010 	beqz	v0,5fdc <soccer_update+0xbe8>
    5f9c:	00000000 	nop
    5fa0:	3c020000 	lui	v0,0x0
    5fa4:	24030002 	li	v1,2
    5fa8:	ac436b94 	sw	v1,27540(v0)
    5fac:	3c020000 	lui	v0,0x0
    5fb0:	ac406b90 	sw	zero,27536(v0)
    5fb4:	3c020000 	lui	v0,0x0
    5fb8:	ac406b88 	sw	zero,27528(v0)
    5fbc:	3c020000 	lui	v0,0x0
    5fc0:	ac406b8c 	sw	zero,27532(v0)
    5fc4:	24040008 	li	a0,8
    5fc8:	0c000879 	jal	21e4 <buzzer_play>
    5fcc:	00000000 	nop
    5fd0:	3c020000 	lui	v0,0x0
    5fd4:	24030002 	li	v1,2
    5fd8:	ac436b70 	sw	v1,27504(v0)
    5fdc:	3c020000 	lui	v0,0x0
    5fe0:	8c426ba0 	lw	v0,27552(v0)
    5fe4:	00000000 	nop
    5fe8:	1c4000b1 	bgtz	v0,62b0 <soccer_update+0xebc>
    5fec:	00000000 	nop
    5ff0:	3c020000 	lui	v0,0x0
    5ff4:	8c426b94 	lw	v0,27540(v0)
    5ff8:	00000000 	nop
    5ffc:	104000ac 	beqz	v0,62b0 <soccer_update+0xebc>
    6000:	00000000 	nop
    6004:	3c020000 	lui	v0,0x0
    6008:	8c426b90 	lw	v0,27536(v0)
    600c:	00000000 	nop
    6010:	144000a7 	bnez	v0,62b0 <soccer_update+0xebc>
    6014:	00000000 	nop
    6018:	3c020000 	lui	v0,0x0
    601c:	8c436b2c 	lw	v1,27436(v0)
    6020:	3c020000 	lui	v0,0x0
    6024:	8c426b34 	lw	v0,27444(v0)
    6028:	00000000 	nop
    602c:	00621023 	subu	v0,v1,v0
    6030:	afc20030 	sw	v0,48(s8)
    6034:	3c020000 	lui	v0,0x0
    6038:	8c436b30 	lw	v1,27440(v0)
    603c:	3c020000 	lui	v0,0x0
    6040:	8c426b38 	lw	v0,27448(v0)
    6044:	00000000 	nop
    6048:	00621023 	subu	v0,v1,v0
    604c:	afc20034 	sw	v0,52(s8)
    6050:	8fc20030 	lw	v0,48(s8)
    6054:	00000000 	nop
    6058:	04410005 	bgez	v0,6070 <soccer_update+0xc7c>
    605c:	00000000 	nop
    6060:	8fc20030 	lw	v0,48(s8)
    6064:	00000000 	nop
    6068:	00021023 	negu	v0,v0
    606c:	afc20030 	sw	v0,48(s8)
    6070:	8fc20034 	lw	v0,52(s8)
    6074:	00000000 	nop
    6078:	04410005 	bgez	v0,6090 <soccer_update+0xc9c>
    607c:	00000000 	nop
    6080:	8fc20034 	lw	v0,52(s8)
    6084:	00000000 	nop
    6088:	00021023 	negu	v0,v0
    608c:	afc20034 	sw	v0,52(s8)
    6090:	8fc20030 	lw	v0,48(s8)
    6094:	00000000 	nop
    6098:	28420006 	slti	v0,v0,6
    609c:	10400084 	beqz	v0,62b0 <soccer_update+0xebc>
    60a0:	00000000 	nop
    60a4:	8fc20034 	lw	v0,52(s8)
    60a8:	00000000 	nop
    60ac:	28420006 	slti	v0,v0,6
    60b0:	1040007f 	beqz	v0,62b0 <soccer_update+0xebc>
    60b4:	00000000 	nop
    60b8:	2402000f 	li	v0,15
    60bc:	afc20050 	sw	v0,80(s8)
    60c0:	3c020000 	lui	v0,0x0
    60c4:	8c436b50 	lw	v1,27472(v0)
    60c8:	00000000 	nop
    60cc:	00601025 	move	v0,v1
    60d0:	000210c0 	sll	v0,v0,0x3
    60d4:	00431823 	subu	v1,v0,v1
    60d8:	24020005 	li	v0,5
    60dc:	0062001b 	divu	zero,v1,v0
    60e0:	14400002 	bnez	v0,60ec <soccer_update+0xcf8>
    60e4:	00000000 	nop
    60e8:	0007000d 	break	0x7
    60ec:	00001010 	mfhi	v0
    60f0:	2442fffe 	addiu	v0,v0,-2
    60f4:	afc20054 	sw	v0,84(s8)
    60f8:	8fc30054 	lw	v1,84(s8)
    60fc:	00000000 	nop
    6100:	00601025 	move	v0,v1
    6104:	00021040 	sll	v0,v0,0x1
    6108:	00431021 	addu	v0,v0,v1
    610c:	00021040 	sll	v0,v0,0x1
    6110:	afc20058 	sw	v0,88(s8)
    6114:	3c020000 	lui	v0,0x0
    6118:	8c436b94 	lw	v1,27540(v0)
    611c:	24020001 	li	v0,1
    6120:	14620028 	bne	v1,v0,61c4 <soccer_update+0xdd0>
    6124:	00000000 	nop
    6128:	3c020000 	lui	v0,0x0
    612c:	8c436b2c 	lw	v1,27436(v0)
    6130:	8fc20050 	lw	v0,80(s8)
    6134:	00000000 	nop
    6138:	00621823 	subu	v1,v1,v0
    613c:	3c020000 	lui	v0,0x0
    6140:	ac436b2c 	sw	v1,27436(v0)
    6144:	3c020000 	lui	v0,0x0
    6148:	8c436b30 	lw	v1,27440(v0)
    614c:	8fc20058 	lw	v0,88(s8)
    6150:	00000000 	nop
    6154:	00621821 	addu	v1,v1,v0
    6158:	3c020000 	lui	v0,0x0
    615c:	ac436b30 	sw	v1,27440(v0)
    6160:	3c020000 	lui	v0,0x0
    6164:	8c426b2c 	lw	v0,27436(v0)
    6168:	00000000 	nop
    616c:	04410003 	bgez	v0,617c <soccer_update+0xd88>
    6170:	00000000 	nop
    6174:	3c020000 	lui	v0,0x0
    6178:	ac406b2c 	sw	zero,27436(v0)
    617c:	3c020000 	lui	v0,0x0
    6180:	8c426b30 	lw	v0,27440(v0)
    6184:	00000000 	nop
    6188:	04410003 	bgez	v0,6198 <soccer_update+0xda4>
    618c:	00000000 	nop
    6190:	3c020000 	lui	v0,0x0
    6194:	ac406b30 	sw	zero,27440(v0)
    6198:	3c020000 	lui	v0,0x0
    619c:	8c426b30 	lw	v0,27440(v0)
    61a0:	00000000 	nop
    61a4:	28420031 	slti	v0,v0,49
    61a8:	1440002d 	bnez	v0,6260 <soccer_update+0xe6c>
    61ac:	00000000 	nop
    61b0:	3c020000 	lui	v0,0x0
    61b4:	24030030 	li	v1,48
    61b8:	ac436b30 	sw	v1,27440(v0)
    61bc:	10000028 	b	6260 <soccer_update+0xe6c>
    61c0:	00000000 	nop
    61c4:	3c020000 	lui	v0,0x0
    61c8:	8c436b34 	lw	v1,27444(v0)
    61cc:	8fc20050 	lw	v0,80(s8)
    61d0:	00000000 	nop
    61d4:	00621821 	addu	v1,v1,v0
    61d8:	3c020000 	lui	v0,0x0
    61dc:	ac436b34 	sw	v1,27444(v0)
    61e0:	3c020000 	lui	v0,0x0
    61e4:	8c436b38 	lw	v1,27448(v0)
    61e8:	8fc20058 	lw	v0,88(s8)
    61ec:	00000000 	nop
    61f0:	00621821 	addu	v1,v1,v0
    61f4:	3c020000 	lui	v0,0x0
    61f8:	ac436b38 	sw	v1,27448(v0)
    61fc:	3c020000 	lui	v0,0x0
    6200:	8c426b34 	lw	v0,27444(v0)
    6204:	00000000 	nop
    6208:	28420059 	slti	v0,v0,89
    620c:	14400004 	bnez	v0,6220 <soccer_update+0xe2c>
    6210:	00000000 	nop
    6214:	3c020000 	lui	v0,0x0
    6218:	24030058 	li	v1,88
    621c:	ac436b34 	sw	v1,27444(v0)
    6220:	3c020000 	lui	v0,0x0
    6224:	8c426b38 	lw	v0,27448(v0)
    6228:	00000000 	nop
    622c:	04410003 	bgez	v0,623c <soccer_update+0xe48>
    6230:	00000000 	nop
    6234:	3c020000 	lui	v0,0x0
    6238:	ac406b38 	sw	zero,27448(v0)
    623c:	3c020000 	lui	v0,0x0
    6240:	8c426b38 	lw	v0,27448(v0)
    6244:	00000000 	nop
    6248:	28420031 	slti	v0,v0,49
    624c:	14400004 	bnez	v0,6260 <soccer_update+0xe6c>
    6250:	00000000 	nop
    6254:	3c020000 	lui	v0,0x0
    6258:	24030030 	li	v1,48
    625c:	ac436b38 	sw	v1,27448(v0)
    6260:	3c020000 	lui	v0,0x0
    6264:	8c436b94 	lw	v1,27540(v0)
    6268:	24020001 	li	v0,1
    626c:	14620004 	bne	v1,v0,6280 <soccer_update+0xe8c>
    6270:	00000000 	nop
    6274:	24020002 	li	v0,2
    6278:	10000002 	b	6284 <soccer_update+0xe90>
    627c:	00000000 	nop
    6280:	24020001 	li	v0,1
    6284:	3c030000 	lui	v1,0x0
    6288:	ac626b94 	sw	v0,27540(v1)
    628c:	3c020000 	lui	v0,0x0
    6290:	2403000a 	li	v1,10
    6294:	ac436ba0 	sw	v1,27552(v0)
    6298:	24040008 	li	a0,8
    629c:	0c000879 	jal	21e4 <buzzer_play>
    62a0:	00000000 	nop
    62a4:	3c020000 	lui	v0,0x0
    62a8:	24030002 	li	v1,2
    62ac:	ac436b70 	sw	v1,27504(v0)
    62b0:	3c020000 	lui	v0,0x0
    62b4:	8c436b94 	lw	v1,27540(v0)
    62b8:	24020001 	li	v0,1
    62bc:	14620020 	bne	v1,v0,6340 <soccer_update+0xf4c>
    62c0:	00000000 	nop
    62c4:	3c020000 	lui	v0,0x0
    62c8:	8c426b2c 	lw	v0,27436(v0)
    62cc:	00000000 	nop
    62d0:	28420058 	slti	v0,v0,88
    62d4:	1440001a 	bnez	v0,6340 <soccer_update+0xf4c>
    62d8:	00000000 	nop
    62dc:	3c020000 	lui	v0,0x0
    62e0:	8c426b98 	lw	v0,27544(v0)
    62e4:	00000000 	nop
    62e8:	24430001 	addiu	v1,v0,1
    62ec:	3c020000 	lui	v0,0x0
    62f0:	ac436b98 	sw	v1,27544(v0)
    62f4:	2404000d 	li	a0,13
    62f8:	0c000879 	jal	21e4 <buzzer_play>
    62fc:	00000000 	nop
    6300:	3c020000 	lui	v0,0x0
    6304:	24030005 	li	v1,5
    6308:	ac436b70 	sw	v1,27504(v0)
    630c:	3c020000 	lui	v0,0x0
    6310:	8c426b98 	lw	v0,27544(v0)
    6314:	00000000 	nop
    6318:	28420003 	slti	v0,v0,3
    631c:	14400006 	bnez	v0,6338 <soccer_update+0xf44>
    6320:	00000000 	nop
    6324:	3c020000 	lui	v0,0x0
    6328:	24030004 	li	v1,4
    632c:	ac436b44 	sw	v1,27460(v0)
    6330:	10000003 	b	6340 <soccer_update+0xf4c>
    6334:	00000000 	nop
    6338:	0c0014d8 	jal	5360 <soccer_reset_positions>
    633c:	00000000 	nop
    6340:	3c020000 	lui	v0,0x0
    6344:	8c436b94 	lw	v1,27540(v0)
    6348:	24020002 	li	v0,2
    634c:	1462001f 	bne	v1,v0,63cc <soccer_update+0xfd8>
    6350:	00000000 	nop
    6354:	3c020000 	lui	v0,0x0
    6358:	8c426b34 	lw	v0,27444(v0)
    635c:	00000000 	nop
    6360:	1c40001a 	bgtz	v0,63cc <soccer_update+0xfd8>
    6364:	00000000 	nop
    6368:	3c020000 	lui	v0,0x0
    636c:	8c426b9c 	lw	v0,27548(v0)
    6370:	00000000 	nop
    6374:	24430001 	addiu	v1,v0,1
    6378:	3c020000 	lui	v0,0x0
    637c:	ac436b9c 	sw	v1,27548(v0)
    6380:	2404000d 	li	a0,13
    6384:	0c000879 	jal	21e4 <buzzer_play>
    6388:	00000000 	nop
    638c:	3c020000 	lui	v0,0x0
    6390:	24030005 	li	v1,5
    6394:	ac436b70 	sw	v1,27504(v0)
    6398:	3c020000 	lui	v0,0x0
    639c:	8c426b9c 	lw	v0,27548(v0)
    63a0:	00000000 	nop
    63a4:	28420003 	slti	v0,v0,3
    63a8:	14400006 	bnez	v0,63c4 <soccer_update+0xfd0>
    63ac:	00000000 	nop
    63b0:	3c020000 	lui	v0,0x0
    63b4:	24030004 	li	v1,4
    63b8:	ac436b44 	sw	v1,27460(v0)
    63bc:	10000003 	b	63cc <soccer_update+0xfd8>
    63c0:	00000000 	nop
    63c4:	0c0014d8 	jal	5360 <soccer_reset_positions>
    63c8:	00000000 	nop
    63cc:	0c001349 	jal	4d24 <draw_soccer_game>
    63d0:	00000000 	nop
    63d4:	00000000 	nop
    63d8:	03c0e825 	move	sp,s8
    63dc:	8fbf0064 	lw	ra,100(sp)
    63e0:	8fbe0060 	lw	s8,96(sp)
    63e4:	27bd0068 	addiu	sp,sp,104
    63e8:	03e00008 	jr	ra
    63ec:	00000000 	nop

000063f0 <draw_result_soccer>:
    63f0:	27bdffe0 	addiu	sp,sp,-32
    63f4:	afbf001c 	sw	ra,28(sp)
    63f8:	afbe0018 	sw	s8,24(sp)
    63fc:	03a0f025 	move	s8,sp
    6400:	afc40020 	sw	a0,32(s8)
    6404:	afc50024 	sw	a1,36(s8)
    6408:	0c000953 	jal	254c <lcd_clear_vbuf>
    640c:	00000000 	nop
    6410:	240200ff 	li	v0,255
    6414:	afa20014 	sw	v0,20(sp)
    6418:	240200ff 	li	v0,255
    641c:	afa20010 	sw	v0,16(sp)
    6420:	240700ff 	li	a3,255
    6424:	3c020000 	lui	v0,0x0
    6428:	244669cc 	addiu	a2,v0,27084
    642c:	00002825 	move	a1,zero
    6430:	00002025 	move	a0,zero
    6434:	0c000a8a 	jal	2a28 <lcd_puts_color>
    6438:	00000000 	nop
    643c:	8fc20020 	lw	v0,32(s8)
    6440:	00000000 	nop
    6444:	28420003 	slti	v0,v0,3
    6448:	1440000d 	bnez	v0,6480 <draw_result_soccer+0x90>
    644c:	00000000 	nop
    6450:	afa00014 	sw	zero,20(sp)
    6454:	240200ff 	li	v0,255
    6458:	afa20010 	sw	v0,16(sp)
    645c:	00003825 	move	a3,zero
    6460:	3c020000 	lui	v0,0x0
    6464:	24466ac0 	addiu	a2,v0,27328
    6468:	24050001 	li	a1,1
    646c:	24040002 	li	a0,2
    6470:	0c000a8a 	jal	2a28 <lcd_puts_color>
    6474:	00000000 	nop
    6478:	1000000b 	b	64a8 <draw_result_soccer+0xb8>
    647c:	00000000 	nop
    6480:	afa00014 	sw	zero,20(sp)
    6484:	24020080 	li	v0,128
    6488:	afa20010 	sw	v0,16(sp)
    648c:	240700ff 	li	a3,255
    6490:	3c020000 	lui	v0,0x0
    6494:	24466acc 	addiu	a2,v0,27340
    6498:	24050001 	li	a1,1
    649c:	24040002 	li	a0,2
    64a0:	0c000a8a 	jal	2a28 <lcd_puts_color>
    64a4:	00000000 	nop
    64a8:	240200ff 	li	v0,255
    64ac:	afa20014 	sw	v0,20(sp)
    64b0:	240200ff 	li	v0,255
    64b4:	afa20010 	sw	v0,16(sp)
    64b8:	240700ff 	li	a3,255
    64bc:	3c020000 	lui	v0,0x0
    64c0:	244669cc 	addiu	a2,v0,27084
    64c4:	00002825 	move	a1,zero
    64c8:	24040003 	li	a0,3
    64cc:	0c000a8a 	jal	2a28 <lcd_puts_color>
    64d0:	00000000 	nop
    64d4:	afa00014 	sw	zero,20(sp)
    64d8:	240200ff 	li	v0,255
    64dc:	afa20010 	sw	v0,16(sp)
    64e0:	00003825 	move	a3,zero
    64e4:	3c020000 	lui	v0,0x0
    64e8:	24466aac 	addiu	a2,v0,27308
    64ec:	24050001 	li	a1,1
    64f0:	24040005 	li	a0,5
    64f4:	0c000a8a 	jal	2a28 <lcd_puts_color>
    64f8:	00000000 	nop
    64fc:	8fc20020 	lw	v0,32(s8)
    6500:	00000000 	nop
    6504:	24430030 	addiu	v1,v0,48
    6508:	afa00014 	sw	zero,20(sp)
    650c:	240200ff 	li	v0,255
    6510:	afa20010 	sw	v0,16(sp)
    6514:	00003825 	move	a3,zero
    6518:	00603025 	move	a2,v1
    651c:	24050004 	li	a1,4
    6520:	24040005 	li	a0,5
    6524:	0c000a3c 	jal	28f0 <lcd_putc_color>
    6528:	00000000 	nop
    652c:	240200ff 	li	v0,255
    6530:	afa20014 	sw	v0,20(sp)
    6534:	240200ff 	li	v0,255
    6538:	afa20010 	sw	v0,16(sp)
    653c:	240700ff 	li	a3,255
    6540:	2406002d 	li	a2,45
    6544:	24050005 	li	a1,5
    6548:	24040005 	li	a0,5
    654c:	0c000a3c 	jal	28f0 <lcd_putc_color>
    6550:	00000000 	nop
    6554:	afa00014 	sw	zero,20(sp)
    6558:	24020080 	li	v0,128
    655c:	afa20010 	sw	v0,16(sp)
    6560:	240700ff 	li	a3,255
    6564:	3c020000 	lui	v0,0x0
    6568:	24466ab0 	addiu	a2,v0,27312
    656c:	24050006 	li	a1,6
    6570:	24040005 	li	a0,5
    6574:	0c000a8a 	jal	2a28 <lcd_puts_color>
    6578:	00000000 	nop
    657c:	8fc20024 	lw	v0,36(s8)
    6580:	00000000 	nop
    6584:	24430030 	addiu	v1,v0,48
    6588:	afa00014 	sw	zero,20(sp)
    658c:	24020080 	li	v0,128
    6590:	afa20010 	sw	v0,16(sp)
    6594:	240700ff 	li	a3,255
    6598:	00603025 	move	a2,v1
    659c:	24050009 	li	a1,9
    65a0:	24040005 	li	a0,5
    65a4:	0c000a3c 	jal	28f0 <lcd_putc_color>
    65a8:	00000000 	nop
    65ac:	240200ff 	li	v0,255
    65b0:	afa20014 	sw	v0,20(sp)
    65b4:	240200ff 	li	v0,255
    65b8:	afa20010 	sw	v0,16(sp)
    65bc:	00003825 	move	a3,zero
    65c0:	3c020000 	lui	v0,0x0
    65c4:	24466a0c 	addiu	a2,v0,27148
    65c8:	00002825 	move	a1,zero
    65cc:	24040007 	li	a0,7
    65d0:	0c000a8a 	jal	2a28 <lcd_puts_color>
    65d4:	00000000 	nop
    65d8:	00000000 	nop
    65dc:	03c0e825 	move	sp,s8
    65e0:	8fbf001c 	lw	ra,28(sp)
    65e4:	8fbe0018 	lw	s8,24(sp)
    65e8:	27bd0020 	addiu	sp,sp,32
    65ec:	03e00008 	jr	ra
    65f0:	00000000 	nop

セクション .rodata の逆アセンブル:

000065f4 <font8x8>:
    65f4:	00000000 	nop
    65f8:	00000000 	nop
    65fc:	0000005f 	0x5f
    6600:	00000000 	nop
    6604:	00000300 	sll	zero,zero,0xc
    6608:	03000000 	0x3000000
    660c:	643c2664 	0x643c2664
    6610:	3c262400 	0x3c262400
    6614:	2649497f 	addiu	t1,s2,18815
    6618:	49493200 	0x49493200
    661c:	42251208 	c0	0x251208
    6620:	24522100 	addiu	s2,v0,8448
    6624:	20504e55 	addi	s0,v0,20053
    6628:	22582800 	addi	t8,s2,10240
    662c:	00000003 	sra	zero,zero,0x0
    6630:	00000000 	nop
    6634:	00001c22 	0x1c22
    6638:	41000000 	bc0f	663c <font8x8+0x48>
    663c:	00000041 	0x41
    6640:	221c0000 	addi	gp,s0,0
    6644:	0015150e 	0x15150e
    6648:	0e151500 	jal	8545400 <__ebackup+0x853cff0>
    664c:	0008083e 	0x8083e
    6650:	08080000 	j	200000 <__ebackup+0x1f7bf0>
    6654:	00000050 	0x50
    6658:	30000000 	andi	zero,zero,0x0
    665c:	00080808 	0x80808
    6660:	08080000 	j	200000 <__ebackup+0x1f7bf0>
    6664:	00000040 	ssnop
    6668:	00000000 	nop
    666c:	40201008 	0x40201008
    6670:	04020100 	0x4020100
    6674:	003e4141 	0x3e4141
    6678:	413e0000 	0x413e0000
    667c:	0000417f 	0x417f
    6680:	40000000 	mfc0	zero,c0_index
    6684:	00426151 	0x426151
    6688:	496e0000 	0x496e0000
    668c:	00224149 	0x224149
    6690:	49360000 	0x49360000
    6694:	00181412 	0x181412
    6698:	7f100000 	0x7f100000
    669c:	00274949 	0x274949
    66a0:	49710000 	0x49710000
    66a4:	003c4a49 	0x3c4a49
    66a8:	48700000 	0x48700000
    66ac:	00432111 	0x432111
    66b0:	0d030000 	jal	40c0000 <__ebackup+0x40b7bf0>
    66b4:	00364949 	0x364949
    66b8:	49360000 	0x49360000
    66bc:	00060949 	0x60949
    66c0:	291e0000 	slti	s8,t0,0
    66c4:	00000012 	mflo	zero
    66c8:	00000000 	nop
    66cc:	00000052 	0x52
    66d0:	30000000 	andi	zero,zero,0x0
    66d4:	00000814 	0x814
    66d8:	14220000 	bne	at,v0,66dc <font8x8+0xe8>
    66dc:	00141414 	0x141414
    66e0:	14141400 	bne	zero,s4,b6e4 <__ebackup+0x32d4>
    66e4:	00002214 	0x2214
    66e8:	14080000 	bne	zero,t0,66ec <font8x8+0xf8>
    66ec:	00020159 	0x20159
    66f0:	05020000 	0x5020000
    66f4:	3e415d55 	0x3e415d55
    66f8:	4d512e00 	0x4d512e00
    66fc:	407c4a09 	0x407c4a09
    6700:	4a7c4000 	c2	0x7c4000
    6704:	417f4949 	0x417f4949
    6708:	49493600 	0x49493600
    670c:	1c224141 	0x1c224141
    6710:	41412200 	0x41412200
    6714:	417f4141 	0x417f4141
    6718:	41221c00 	0x41221c00
    671c:	417f4949 	0x417f4949
    6720:	5d416300 	0x5d416300
    6724:	417f4909 	0x417f4909
    6728:	1d010300 	0x1d010300
    672c:	1c224149 	0x1c224149
    6730:	493a0800 	0x493a0800
    6734:	417f0808 	0x417f0808
    6738:	087f4100 	j	1fd0400 <__ebackup+0x1fc7ff0>
    673c:	0041417f 	0x41417f
    6740:	41410000 	0x41410000
    6744:	30404141 	andi	zero,v0,0x4141
    6748:	3f010100 	0x3f010100
    674c:	417f080c 	0x417f080c
    6750:	12614100 	beq	s3,at,16b54 <__ebackup+0xe744>
    6754:	417f4140 	0x417f4140
    6758:	40406000 	cfc0	zero,c0_sr
    675c:	417f420c 	0x417f420c
    6760:	427f4100 	c0	0x7f4100
    6764:	417f420c 	0x417f420c
    6768:	117f0100 	beq	t3,ra,6b6c <input_btn1>
    676c:	1c224141 	0x1c224141
    6770:	41221c00 	0x41221c00
    6774:	417f4909 	0x417f4909
    6778:	09090600 	j	4241800 <__ebackup+0x42393f0>
    677c:	0c122121 	jal	488484 <__ebackup+0x480074>
    6780:	61524c00 	0x61524c00
    6784:	417f0909 	0x417f0909
    6788:	19694600 	0x19694600
    678c:	66494949 	0x66494949
    6790:	49493300 	0x49493300
    6794:	0301417f 	0x301417f
    6798:	41010300 	bc0t	739c <lcd_vbuf+0x7f8>
    679c:	013f4140 	0x13f4140
    67a0:	413f0100 	0x413f0100
    67a4:	010f3140 	0x10f3140
    67a8:	310f0100 	andi	t7,t0,0x100
    67ac:	011f6114 	0x11f6114
    67b0:	611f0100 	0x611f0100
    67b4:	41413608 	0x41413608
    67b8:	36414100 	ori	at,s2,0x4100
    67bc:	01034478 	0x1034478
    67c0:	44030100 	0x44030100
    67c4:	43615149 	c0	0x1615149
    67c8:	45436100 	0x45436100
    67cc:	00007f41 	0x7f41
    67d0:	41000000 	bc0f	67d4 <font8x8+0x1e0>
    67d4:	01020408 	0x1020408
    67d8:	10204000 	beqz	at,167dc <__ebackup+0xe3cc>
    67dc:	00004141 	0x4141
    67e0:	7f000000 	0x7f000000
    67e4:	00040201 	0x40201
    67e8:	01020400 	0x1020400
    67ec:	00404040 	0x404040
    67f0:	40404000 	cfc0	zero,c0_badvaddr
    67f4:	00010200 	sll	zero,at,0x8
    67f8:	00000000 	nop
    67fc:	00344a4a 	0x344a4a
    6800:	4a3c4000 	c2	0x3c4000
    6804:	00413f48 	0x413f48
    6808:	48483000 	cfc2	t0,$6
    680c:	003c4242 	0x3c4242
    6810:	42240000 	c0	0x240000
    6814:	00304848 	0x304848
    6818:	493f4000 	0x493f4000
    681c:	003c4a4a 	0x3c4a4a
    6820:	4a2c0000 	c2	0x2c0000
    6824:	0000487e 	0x487e
    6828:	49090000 	0x49090000
    682c:	00264949 	0x264949
    6830:	493f0100 	0x493f0100
    6834:	417f4804 	0x417f4804
    6838:	44784000 	0x44784000
    683c:	0000447d 	0x447d
    6840:	40000000 	mfc0	zero,c0_index
    6844:	00004044 	0x4044
    6848:	3d000000 	0x3d000000
    684c:	417f1018 	0x417f1018
    6850:	24424200 	addiu	v0,v0,16896
    6854:	0040417f 	0x40417f
    6858:	40400000 	cfc0	zero,c0_index
    685c:	427e027c 	c0	0x7e027c
    6860:	027e4000 	0x27e4000
    6864:	427e4402 	c0	0x7e4402
    6868:	427c4000 	c0	0x7c4000
    686c:	003c4242 	0x3c4242
    6870:	423c0000 	c0	0x3c0000
    6874:	00417f49 	0x417f49
    6878:	09090600 	j	4241800 <__ebackup+0x42393f0>
    687c:	00060909 	0x60909
    6880:	497f4100 	0x497f4100
    6884:	00427e44 	0x427e44
    6888:	02020400 	0x2020400
    688c:	00644a4a 	0x644a4a
    6890:	4a360000 	c2	0x360000
    6894:	00043f44 	0x43f44
    6898:	44200000 	0x44200000
    689c:	00023e40 	sll	a3,v0,0x19
    68a0:	40227e40 	0x40227e40
    68a4:	020e3240 	0x20e3240
    68a8:	320e0200 	andi	t6,s0,0x200
    68ac:	021e6218 	0x21e6218
    68b0:	621e0200 	0x621e0200
    68b4:	42621408 	c0	0x621408
    68b8:	14624200 	bne	v1,v0,170bc <__ebackup+0xecac>
    68bc:	01434538 	0x1434538
    68c0:	05030100 	0x5030100
    68c4:	00466252 	0x466252
    68c8:	4a466200 	c2	0x466200
    68cc:	00000836 	0x836
    68d0:	41000000 	bc0f	68d4 <font8x8+0x2e0>
    68d4:	0000007f 	0x7f
    68d8:	00000000 	nop
    68dc:	00000041 	0x41
    68e0:	36080000 	ori	t0,s0,0x0
    68e4:	00180808 	0x180808
    68e8:	10101800 	beq	zero,s0,c8ec <__ebackup+0x44dc>
    68ec:	aa55aa55 	swl	s5,-21931(s2)
    68f0:	aa55aa55 	swl	s5,-21931(s2)

000068f4 <RACKET_PATTERN>:
    68f4:	00000101 	0x101
    68f8:	01010000 	0x1010000
    68fc:	00010202 	srl	zero,at,0x8
    6900:	02020100 	0x2020100
    6904:	00010202 	srl	zero,at,0x8
    6908:	02020100 	0x2020100
    690c:	00010202 	srl	zero,at,0x8
    6910:	02020100 	0x2020100
    6914:	00010202 	srl	zero,at,0x8
    6918:	02020100 	0x2020100
    691c:	00000101 	0x101
    6920:	01010000 	0x1010000
    6924:	00000001 	0x1
    6928:	01000000 	0x1000000
    692c:	00000001 	0x1
    6930:	01000000 	0x1000000
    6934:	00000001 	0x1
    6938:	01000000 	0x1000000
    693c:	00000001 	0x1
    6940:	01000000 	0x1000000
    6944:	00000001 	0x1
    6948:	01000000 	0x1000000
    694c:	00000001 	0x1
    6950:	01000000 	0x1000000

00006954 <PLAYER_PATTERN>:
    6954:	00000101 	0x101
    6958:	01010000 	0x1010000
    695c:	00010100 	sll	zero,at,0x4
    6960:	00010100 	sll	zero,at,0x4
    6964:	00000101 	0x101
    6968:	01010000 	0x1010000
    696c:	01010101 	0x1010101
    6970:	01010101 	0x1010101
    6974:	00000101 	0x101
    6978:	01010000 	0x1010000
    697c:	00010100 	sll	zero,at,0x4
    6980:	00010100 	sll	zero,at,0x4
    6984:	00010100 	sll	zero,at,0x4
    6988:	00010100 	sll	zero,at,0x4
    698c:	00010000 	sll	zero,at,0x0
    6990:	00000100 	sll	zero,zero,0x4
    6994:	54454e4e 	0x54454e4e
    6998:	4953204d 	0x4953204d
    699c:	4f444500 	c3	0x1444500
    69a0:	53515541 	0x53515541
    69a4:	5348204d 	0x5348204d
    69a8:	4f444500 	c3	0x1444500
    69ac:	534f4343 	0x534f4343
    69b0:	4552204d 	0x4552204d
    69b4:	4f444500 	c3	0x1444500
    69b8:	50524553 	0x50524553
    69bc:	53203000 	0x53203000
    69c0:	544f2053 	0x544f2053
    69c4:	54415254 	0x54415254
    69c8:	00000000 	nop
    69cc:	3d3d3d3d 	0x3d3d3d3d
    69d0:	3d3d3d3d 	0x3d3d3d3d
    69d4:	3d3d3d3d 	0x3d3d3d3d
    69d8:	00000000 	nop
    69dc:	2047414d 	addi	a3,v0,16717
    69e0:	45204f56 	0x45204f56
    69e4:	45522120 	0x45522120
    69e8:	00000000 	nop
    69ec:	2057494e 	addi	s7,v0,18766
    69f0:	4e45523a 	c3	0x45523a
    69f4:	20503120 	addi	s0,v0,12576
    69f8:	00000000 	nop
    69fc:	2057494e 	addi	s7,v0,18766
    6a00:	4e45523a 	c3	0x45523a
    6a04:	20503220 	addi	s0,v0,12832
    6a08:	00000000 	nop
    6a0c:	302b313a 	andi	t3,at,0x313a
    6a10:	52455345 	0x52455345
    6a14:	54000000 	0x54000000
    6a18:	3d3d2053 	0x3d3d2053
    6a1c:	454c4543 	0x454c4543
    6a20:	54203d3d 	0x54203d3d
    6a24:	00000000 	nop
    6a28:	3e205445 	0x3e205445
    6a2c:	4e4e4953 	c3	0x4e4953
    6a30:	2020203c 	addi	zero,at,8252
    6a34:	00000000 	nop
    6a38:	20205445 	addi	zero,at,21573
    6a3c:	4e4e4953 	c3	0x4e4953
    6a40:	20202020 	addi	zero,at,8224
    6a44:	00000000 	nop
    6a48:	3e205351 	0x3e205351
    6a4c:	55415348 	0x55415348
    6a50:	2020203c 	addi	zero,at,8252
    6a54:	00000000 	nop
    6a58:	20205351 	addi	zero,at,21329
    6a5c:	55415348 	0x55415348
    6a60:	20202020 	addi	zero,at,8224
    6a64:	00000000 	nop
    6a68:	3e20534f 	0x3e20534f
    6a6c:	43434552 	c0	0x1434552
    6a70:	2020203c 	addi	zero,at,8252
    6a74:	00000000 	nop
    6a78:	2020534f 	addi	zero,at,21327
    6a7c:	43434552 	c0	0x1434552
    6a80:	20202020 	addi	zero,at,8224
    6a84:	00000000 	nop
    6a88:	303a4445 	andi	k0,at,0x4445
    6a8c:	43494445 	c0	0x1494445
    6a90:	00000000 	nop
    6a94:	00001784 	0x1784
    6a98:	0000179c 	0x179c
    6a9c:	000017b8 	0x17b8
    6aa0:	000017d0 	0x17d0
    6aa4:	000017ec 	0x17ec
    6aa8:	00001804 	sllv	v1,zero,zero
    6aac:	50313a00 	0x50313a00
    6ab0:	50323a00 	0x50323a00
    6ab4:	50310000 	0x50310000
    6ab8:	203c0000 	addi	gp,at,0
    6abc:	50320000 	0x50320000
    6ac0:	20503120 	addi	s0,v0,12576
    6ac4:	2057494e 	addi	s7,v0,18766
    6ac8:	21200000 	addi	zero,t1,0
    6acc:	20503220 	addi	s0,v0,12832
    6ad0:	2057494e 	addi	s7,v0,18766
    6ad4:	21200000 	addi	zero,t1,0

セクション .data の逆アセンブル:

00006ad8 <rotary_prev>:
    6ad8:	00000080 	sll	zero,zero,0x2

00006adc <rotary_threshold>:
    6adc:	00000004 	sllv	zero,zero,zero

00006ae0 <p1_x>:
    6ae0:	00000002 	srl	zero,zero,0x0

00006ae4 <p1_y>:
    6ae4:	00000018 	mult	zero,zero

00006ae8 <p2_x>:
    6ae8:	00000056 	0x56

00006aec <p2_y>:
    6aec:	00000018 	mult	zero,zero

00006af0 <ball_x>:
    6af0:	0000002e 	0x2e

00006af4 <ball_y>:
    6af4:	0000001e 	0x1e

00006af8 <ball_vx>:
    6af8:	00000005 	0x5

00006afc <ball_vy>:
    6afc:	00000003 	sra	zero,zero,0x0

00006b00 <input_p1_dir>:
    6b00:	ffffffff 	0xffffffff

00006b04 <input_p2_dir>:
    6b04:	ffffffff 	0xffffffff

00006b08 <sq_p1_x>:
    6b08:	00000002 	srl	zero,zero,0x0

00006b0c <sq_p1_y>:
    6b0c:	00000014 	0x14

00006b10 <sq_p2_x>:
    6b10:	00000002 	srl	zero,zero,0x0

00006b14 <sq_p2_y>:
    6b14:	00000024 	and	zero,zero,zero

00006b18 <sq_ball_x>:
    6b18:	0000002e 	0x2e

00006b1c <sq_ball_y>:
    6b1c:	0000001a 	div	zero,zero,zero

00006b20 <sq_ball_vx>:
    6b20:	00000005 	0x5

00006b24 <sq_ball_vy>:
    6b24:	00000003 	sra	zero,zero,0x0

00006b28 <sq_lives>:
    6b28:	00000003 	sra	zero,zero,0x0

00006b2c <soccer_p1_x>:
    6b2c:	0000000a 	0xa

00006b30 <soccer_p1_y>:
    6b30:	00000018 	mult	zero,zero

00006b34 <soccer_p2_x>:
    6b34:	0000004e 	0x4e

00006b38 <soccer_p2_y>:
    6b38:	00000018 	mult	zero,zero

00006b3c <soccer_ball_x>:
    6b3c:	0000002c 	0x2c

00006b40 <soccer_ball_y>:
    6b40:	00000018 	mult	zero,zero

セクション .bss の逆アセンブル:

00006b44 <game_state>:
    6b44:	00000000 	nop

00006b48 <game_mode>:
    6b48:	00000000 	nop

00006b4c <cursor>:
    6b4c:	00000000 	nop

00006b50 <frame_counter>:
    6b50:	00000000 	nop

00006b54 <btn0_prev>:
    6b54:	00000000 	nop

00006b58 <btn2_prev>:
    6b58:	00000000 	nop

00006b5c <btn3_prev>:
    6b5c:	00000000 	nop

00006b60 <score_p1>:
    6b60:	00000000 	nop

00006b64 <score_p2>:
    6b64:	00000000 	nop

00006b68 <input_btn0>:
    6b68:	00000000 	nop

00006b6c <input_btn1>:
    6b6c:	00000000 	nop

00006b70 <buzzer_timer>:
    6b70:	00000000 	nop

00006b74 <sq_score>:
    6b74:	00000000 	nop

00006b78 <sq_turn>:
    6b78:	00000000 	nop

00006b7c <sq_rally>:
    6b7c:	00000000 	nop

00006b80 <sq_p1_score>:
    6b80:	00000000 	nop

00006b84 <sq_p2_score>:
    6b84:	00000000 	nop

00006b88 <soccer_ball_vx>:
    6b88:	00000000 	nop

00006b8c <soccer_ball_vy>:
    6b8c:	00000000 	nop

00006b90 <soccer_ball_flying>:
    6b90:	00000000 	nop

00006b94 <soccer_ball_owner>:
    6b94:	00000000 	nop

00006b98 <soccer_p1_score>:
    6b98:	00000000 	nop

00006b9c <soccer_p2_score>:
    6b9c:	00000000 	nop

00006ba0 <soccer_invincible_timer>:
    6ba0:	00000000 	nop

00006ba4 <lcd_vbuf>:
    6ba4:	00000000 	nop
    6ba8:	00000000 	nop
    6bac:	00000000 	nop
    6bb0:	00000000 	nop
    6bb4:	00000000 	nop
    6bb8:	00000000 	nop
    6bbc:	00000000 	nop
    6bc0:	00000000 	nop
    6bc4:	00000000 	nop
    6bc8:	00000000 	nop
    6bcc:	00000000 	nop
    6bd0:	00000000 	nop
    6bd4:	00000000 	nop
    6bd8:	00000000 	nop
    6bdc:	00000000 	nop
    6be0:	00000000 	nop
    6be4:	00000000 	nop
    6be8:	00000000 	nop
    6bec:	00000000 	nop
    6bf0:	00000000 	nop
    6bf4:	00000000 	nop
    6bf8:	00000000 	nop
    6bfc:	00000000 	nop
    6c00:	00000000 	nop
    6c04:	00000000 	nop
    6c08:	00000000 	nop
    6c0c:	00000000 	nop
    6c10:	00000000 	nop
    6c14:	00000000 	nop
    6c18:	00000000 	nop
    6c1c:	00000000 	nop
    6c20:	00000000 	nop
    6c24:	00000000 	nop
    6c28:	00000000 	nop
    6c2c:	00000000 	nop
    6c30:	00000000 	nop
    6c34:	00000000 	nop
    6c38:	00000000 	nop
    6c3c:	00000000 	nop
    6c40:	00000000 	nop
    6c44:	00000000 	nop
    6c48:	00000000 	nop
    6c4c:	00000000 	nop
    6c50:	00000000 	nop
    6c54:	00000000 	nop
    6c58:	00000000 	nop
    6c5c:	00000000 	nop
    6c60:	00000000 	nop
    6c64:	00000000 	nop
    6c68:	00000000 	nop
    6c6c:	00000000 	nop
    6c70:	00000000 	nop
    6c74:	00000000 	nop
    6c78:	00000000 	nop
    6c7c:	00000000 	nop
    6c80:	00000000 	nop
    6c84:	00000000 	nop
    6c88:	00000000 	nop
    6c8c:	00000000 	nop
    6c90:	00000000 	nop
    6c94:	00000000 	nop
    6c98:	00000000 	nop
    6c9c:	00000000 	nop
    6ca0:	00000000 	nop
    6ca4:	00000000 	nop
    6ca8:	00000000 	nop
    6cac:	00000000 	nop
    6cb0:	00000000 	nop
    6cb4:	00000000 	nop
    6cb8:	00000000 	nop
    6cbc:	00000000 	nop
    6cc0:	00000000 	nop
    6cc4:	00000000 	nop
    6cc8:	00000000 	nop
    6ccc:	00000000 	nop
    6cd0:	00000000 	nop
    6cd4:	00000000 	nop
    6cd8:	00000000 	nop
    6cdc:	00000000 	nop
    6ce0:	00000000 	nop
    6ce4:	00000000 	nop
    6ce8:	00000000 	nop
    6cec:	00000000 	nop
    6cf0:	00000000 	nop
    6cf4:	00000000 	nop
    6cf8:	00000000 	nop
    6cfc:	00000000 	nop
    6d00:	00000000 	nop
    6d04:	00000000 	nop
    6d08:	00000000 	nop
    6d0c:	00000000 	nop
    6d10:	00000000 	nop
    6d14:	00000000 	nop
    6d18:	00000000 	nop
    6d1c:	00000000 	nop
    6d20:	00000000 	nop
    6d24:	00000000 	nop
    6d28:	00000000 	nop
    6d2c:	00000000 	nop
    6d30:	00000000 	nop
    6d34:	00000000 	nop
    6d38:	00000000 	nop
    6d3c:	00000000 	nop
    6d40:	00000000 	nop
    6d44:	00000000 	nop
    6d48:	00000000 	nop
    6d4c:	00000000 	nop
    6d50:	00000000 	nop
    6d54:	00000000 	nop
    6d58:	00000000 	nop
    6d5c:	00000000 	nop
    6d60:	00000000 	nop
    6d64:	00000000 	nop
    6d68:	00000000 	nop
    6d6c:	00000000 	nop
    6d70:	00000000 	nop
    6d74:	00000000 	nop
    6d78:	00000000 	nop
    6d7c:	00000000 	nop
    6d80:	00000000 	nop
    6d84:	00000000 	nop
    6d88:	00000000 	nop
    6d8c:	00000000 	nop
    6d90:	00000000 	nop
    6d94:	00000000 	nop
    6d98:	00000000 	nop
    6d9c:	00000000 	nop
    6da0:	00000000 	nop
    6da4:	00000000 	nop
    6da8:	00000000 	nop
    6dac:	00000000 	nop
    6db0:	00000000 	nop
    6db4:	00000000 	nop
    6db8:	00000000 	nop
    6dbc:	00000000 	nop
    6dc0:	00000000 	nop
    6dc4:	00000000 	nop
    6dc8:	00000000 	nop
    6dcc:	00000000 	nop
    6dd0:	00000000 	nop
    6dd4:	00000000 	nop
    6dd8:	00000000 	nop
    6ddc:	00000000 	nop
    6de0:	00000000 	nop
    6de4:	00000000 	nop
    6de8:	00000000 	nop
    6dec:	00000000 	nop
    6df0:	00000000 	nop
    6df4:	00000000 	nop
    6df8:	00000000 	nop
    6dfc:	00000000 	nop
    6e00:	00000000 	nop
    6e04:	00000000 	nop
    6e08:	00000000 	nop
    6e0c:	00000000 	nop
    6e10:	00000000 	nop
    6e14:	00000000 	nop
    6e18:	00000000 	nop
    6e1c:	00000000 	nop
    6e20:	00000000 	nop
    6e24:	00000000 	nop
    6e28:	00000000 	nop
    6e2c:	00000000 	nop
    6e30:	00000000 	nop
    6e34:	00000000 	nop
    6e38:	00000000 	nop
    6e3c:	00000000 	nop
    6e40:	00000000 	nop
    6e44:	00000000 	nop
    6e48:	00000000 	nop
    6e4c:	00000000 	nop
    6e50:	00000000 	nop
    6e54:	00000000 	nop
    6e58:	00000000 	nop
    6e5c:	00000000 	nop
    6e60:	00000000 	nop
    6e64:	00000000 	nop
    6e68:	00000000 	nop
    6e6c:	00000000 	nop
    6e70:	00000000 	nop
    6e74:	00000000 	nop
    6e78:	00000000 	nop
    6e7c:	00000000 	nop
    6e80:	00000000 	nop
    6e84:	00000000 	nop
    6e88:	00000000 	nop
    6e8c:	00000000 	nop
    6e90:	00000000 	nop
    6e94:	00000000 	nop
    6e98:	00000000 	nop
    6e9c:	00000000 	nop
    6ea0:	00000000 	nop
    6ea4:	00000000 	nop
    6ea8:	00000000 	nop
    6eac:	00000000 	nop
    6eb0:	00000000 	nop
    6eb4:	00000000 	nop
    6eb8:	00000000 	nop
    6ebc:	00000000 	nop
    6ec0:	00000000 	nop
    6ec4:	00000000 	nop
    6ec8:	00000000 	nop
    6ecc:	00000000 	nop
    6ed0:	00000000 	nop
    6ed4:	00000000 	nop
    6ed8:	00000000 	nop
    6edc:	00000000 	nop
    6ee0:	00000000 	nop
    6ee4:	00000000 	nop
    6ee8:	00000000 	nop
    6eec:	00000000 	nop
    6ef0:	00000000 	nop
    6ef4:	00000000 	nop
    6ef8:	00000000 	nop
    6efc:	00000000 	nop
    6f00:	00000000 	nop
    6f04:	00000000 	nop
    6f08:	00000000 	nop
    6f0c:	00000000 	nop
    6f10:	00000000 	nop
    6f14:	00000000 	nop
    6f18:	00000000 	nop
    6f1c:	00000000 	nop
    6f20:	00000000 	nop
    6f24:	00000000 	nop
    6f28:	00000000 	nop
    6f2c:	00000000 	nop
    6f30:	00000000 	nop
    6f34:	00000000 	nop
    6f38:	00000000 	nop
    6f3c:	00000000 	nop
    6f40:	00000000 	nop
    6f44:	00000000 	nop
    6f48:	00000000 	nop
    6f4c:	00000000 	nop
    6f50:	00000000 	nop
    6f54:	00000000 	nop
    6f58:	00000000 	nop
    6f5c:	00000000 	nop
    6f60:	00000000 	nop
    6f64:	00000000 	nop
    6f68:	00000000 	nop
    6f6c:	00000000 	nop
    6f70:	00000000 	nop
    6f74:	00000000 	nop
    6f78:	00000000 	nop
    6f7c:	00000000 	nop
    6f80:	00000000 	nop
    6f84:	00000000 	nop
    6f88:	00000000 	nop
    6f8c:	00000000 	nop
    6f90:	00000000 	nop
    6f94:	00000000 	nop
    6f98:	00000000 	nop
    6f9c:	00000000 	nop
    6fa0:	00000000 	nop
    6fa4:	00000000 	nop
    6fa8:	00000000 	nop
    6fac:	00000000 	nop
    6fb0:	00000000 	nop
    6fb4:	00000000 	nop
    6fb8:	00000000 	nop
    6fbc:	00000000 	nop
    6fc0:	00000000 	nop
    6fc4:	00000000 	nop
    6fc8:	00000000 	nop
    6fcc:	00000000 	nop
    6fd0:	00000000 	nop
    6fd4:	00000000 	nop
    6fd8:	00000000 	nop
    6fdc:	00000000 	nop
    6fe0:	00000000 	nop
    6fe4:	00000000 	nop
    6fe8:	00000000 	nop
    6fec:	00000000 	nop
    6ff0:	00000000 	nop
    6ff4:	00000000 	nop
    6ff8:	00000000 	nop
    6ffc:	00000000 	nop
    7000:	00000000 	nop
    7004:	00000000 	nop
    7008:	00000000 	nop
    700c:	00000000 	nop
    7010:	00000000 	nop
    7014:	00000000 	nop
    7018:	00000000 	nop
    701c:	00000000 	nop
    7020:	00000000 	nop
    7024:	00000000 	nop
    7028:	00000000 	nop
    702c:	00000000 	nop
    7030:	00000000 	nop
    7034:	00000000 	nop
    7038:	00000000 	nop
    703c:	00000000 	nop
    7040:	00000000 	nop
    7044:	00000000 	nop
    7048:	00000000 	nop
    704c:	00000000 	nop
    7050:	00000000 	nop
    7054:	00000000 	nop
    7058:	00000000 	nop
    705c:	00000000 	nop
    7060:	00000000 	nop
    7064:	00000000 	nop
    7068:	00000000 	nop
    706c:	00000000 	nop
    7070:	00000000 	nop
    7074:	00000000 	nop
    7078:	00000000 	nop
    707c:	00000000 	nop
    7080:	00000000 	nop
    7084:	00000000 	nop
    7088:	00000000 	nop
    708c:	00000000 	nop
    7090:	00000000 	nop
    7094:	00000000 	nop
    7098:	00000000 	nop
    709c:	00000000 	nop
    70a0:	00000000 	nop
    70a4:	00000000 	nop
    70a8:	00000000 	nop
    70ac:	00000000 	nop
    70b0:	00000000 	nop
    70b4:	00000000 	nop
    70b8:	00000000 	nop
    70bc:	00000000 	nop
    70c0:	00000000 	nop
    70c4:	00000000 	nop
    70c8:	00000000 	nop
    70cc:	00000000 	nop
    70d0:	00000000 	nop
    70d4:	00000000 	nop
    70d8:	00000000 	nop
    70dc:	00000000 	nop
    70e0:	00000000 	nop
    70e4:	00000000 	nop
    70e8:	00000000 	nop
    70ec:	00000000 	nop
    70f0:	00000000 	nop
    70f4:	00000000 	nop
    70f8:	00000000 	nop
    70fc:	00000000 	nop
    7100:	00000000 	nop
    7104:	00000000 	nop
    7108:	00000000 	nop
    710c:	00000000 	nop
    7110:	00000000 	nop
    7114:	00000000 	nop
    7118:	00000000 	nop
    711c:	00000000 	nop
    7120:	00000000 	nop
    7124:	00000000 	nop
    7128:	00000000 	nop
    712c:	00000000 	nop
    7130:	00000000 	nop
    7134:	00000000 	nop
    7138:	00000000 	nop
    713c:	00000000 	nop
    7140:	00000000 	nop
    7144:	00000000 	nop
    7148:	00000000 	nop
    714c:	00000000 	nop
    7150:	00000000 	nop
    7154:	00000000 	nop
    7158:	00000000 	nop
    715c:	00000000 	nop
    7160:	00000000 	nop
    7164:	00000000 	nop
    7168:	00000000 	nop
    716c:	00000000 	nop
    7170:	00000000 	nop
    7174:	00000000 	nop
    7178:	00000000 	nop
    717c:	00000000 	nop
    7180:	00000000 	nop
    7184:	00000000 	nop
    7188:	00000000 	nop
    718c:	00000000 	nop
    7190:	00000000 	nop
    7194:	00000000 	nop
    7198:	00000000 	nop
    719c:	00000000 	nop
    71a0:	00000000 	nop
    71a4:	00000000 	nop
    71a8:	00000000 	nop
    71ac:	00000000 	nop
    71b0:	00000000 	nop
    71b4:	00000000 	nop
    71b8:	00000000 	nop
    71bc:	00000000 	nop
    71c0:	00000000 	nop
    71c4:	00000000 	nop
    71c8:	00000000 	nop
    71cc:	00000000 	nop
    71d0:	00000000 	nop
    71d4:	00000000 	nop
    71d8:	00000000 	nop
    71dc:	00000000 	nop
    71e0:	00000000 	nop
    71e4:	00000000 	nop
    71e8:	00000000 	nop
    71ec:	00000000 	nop
    71f0:	00000000 	nop
    71f4:	00000000 	nop
    71f8:	00000000 	nop
    71fc:	00000000 	nop
    7200:	00000000 	nop
    7204:	00000000 	nop
    7208:	00000000 	nop
    720c:	00000000 	nop
    7210:	00000000 	nop
    7214:	00000000 	nop
    7218:	00000000 	nop
    721c:	00000000 	nop
    7220:	00000000 	nop
    7224:	00000000 	nop
    7228:	00000000 	nop
    722c:	00000000 	nop
    7230:	00000000 	nop
    7234:	00000000 	nop
    7238:	00000000 	nop
    723c:	00000000 	nop
    7240:	00000000 	nop
    7244:	00000000 	nop
    7248:	00000000 	nop
    724c:	00000000 	nop
    7250:	00000000 	nop
    7254:	00000000 	nop
    7258:	00000000 	nop
    725c:	00000000 	nop
    7260:	00000000 	nop
    7264:	00000000 	nop
    7268:	00000000 	nop
    726c:	00000000 	nop
    7270:	00000000 	nop
    7274:	00000000 	nop
    7278:	00000000 	nop
    727c:	00000000 	nop
    7280:	00000000 	nop
    7284:	00000000 	nop
    7288:	00000000 	nop
    728c:	00000000 	nop
    7290:	00000000 	nop
    7294:	00000000 	nop
    7298:	00000000 	nop
    729c:	00000000 	nop
    72a0:	00000000 	nop
    72a4:	00000000 	nop
    72a8:	00000000 	nop
    72ac:	00000000 	nop
    72b0:	00000000 	nop
    72b4:	00000000 	nop
    72b8:	00000000 	nop
    72bc:	00000000 	nop
    72c0:	00000000 	nop
    72c4:	00000000 	nop
    72c8:	00000000 	nop
    72cc:	00000000 	nop
    72d0:	00000000 	nop
    72d4:	00000000 	nop
    72d8:	00000000 	nop
    72dc:	00000000 	nop
    72e0:	00000000 	nop
    72e4:	00000000 	nop
    72e8:	00000000 	nop
    72ec:	00000000 	nop
    72f0:	00000000 	nop
    72f4:	00000000 	nop
    72f8:	00000000 	nop
    72fc:	00000000 	nop
    7300:	00000000 	nop
    7304:	00000000 	nop
    7308:	00000000 	nop
    730c:	00000000 	nop
    7310:	00000000 	nop
    7314:	00000000 	nop
    7318:	00000000 	nop
    731c:	00000000 	nop
    7320:	00000000 	nop
    7324:	00000000 	nop
    7328:	00000000 	nop
    732c:	00000000 	nop
    7330:	00000000 	nop
    7334:	00000000 	nop
    7338:	00000000 	nop
    733c:	00000000 	nop
    7340:	00000000 	nop
    7344:	00000000 	nop
    7348:	00000000 	nop
    734c:	00000000 	nop
    7350:	00000000 	nop
    7354:	00000000 	nop
    7358:	00000000 	nop
    735c:	00000000 	nop
    7360:	00000000 	nop
    7364:	00000000 	nop
    7368:	00000000 	nop
    736c:	00000000 	nop
    7370:	00000000 	nop
    7374:	00000000 	nop
    7378:	00000000 	nop
    737c:	00000000 	nop
    7380:	00000000 	nop
    7384:	00000000 	nop
    7388:	00000000 	nop
    738c:	00000000 	nop
    7390:	00000000 	nop
    7394:	00000000 	nop
    7398:	00000000 	nop
    739c:	00000000 	nop
    73a0:	00000000 	nop
    73a4:	00000000 	nop
    73a8:	00000000 	nop
    73ac:	00000000 	nop
    73b0:	00000000 	nop
    73b4:	00000000 	nop
    73b8:	00000000 	nop
    73bc:	00000000 	nop
    73c0:	00000000 	nop
    73c4:	00000000 	nop
    73c8:	00000000 	nop
    73cc:	00000000 	nop
    73d0:	00000000 	nop
    73d4:	00000000 	nop
    73d8:	00000000 	nop
    73dc:	00000000 	nop
    73e0:	00000000 	nop
    73e4:	00000000 	nop
    73e8:	00000000 	nop
    73ec:	00000000 	nop
    73f0:	00000000 	nop
    73f4:	00000000 	nop
    73f8:	00000000 	nop
    73fc:	00000000 	nop
    7400:	00000000 	nop
    7404:	00000000 	nop
    7408:	00000000 	nop
    740c:	00000000 	nop
    7410:	00000000 	nop
    7414:	00000000 	nop
    7418:	00000000 	nop
    741c:	00000000 	nop
    7420:	00000000 	nop
    7424:	00000000 	nop
    7428:	00000000 	nop
    742c:	00000000 	nop
    7430:	00000000 	nop
    7434:	00000000 	nop
    7438:	00000000 	nop
    743c:	00000000 	nop
    7440:	00000000 	nop
    7444:	00000000 	nop
    7448:	00000000 	nop
    744c:	00000000 	nop
    7450:	00000000 	nop
    7454:	00000000 	nop
    7458:	00000000 	nop
    745c:	00000000 	nop
    7460:	00000000 	nop
    7464:	00000000 	nop
    7468:	00000000 	nop
    746c:	00000000 	nop
    7470:	00000000 	nop
    7474:	00000000 	nop
    7478:	00000000 	nop
    747c:	00000000 	nop
    7480:	00000000 	nop
    7484:	00000000 	nop
    7488:	00000000 	nop
    748c:	00000000 	nop
    7490:	00000000 	nop
    7494:	00000000 	nop
    7498:	00000000 	nop
    749c:	00000000 	nop
    74a0:	00000000 	nop
    74a4:	00000000 	nop
    74a8:	00000000 	nop
    74ac:	00000000 	nop
    74b0:	00000000 	nop
    74b4:	00000000 	nop
    74b8:	00000000 	nop
    74bc:	00000000 	nop
    74c0:	00000000 	nop
    74c4:	00000000 	nop
    74c8:	00000000 	nop
    74cc:	00000000 	nop
    74d0:	00000000 	nop
    74d4:	00000000 	nop
    74d8:	00000000 	nop
    74dc:	00000000 	nop
    74e0:	00000000 	nop
    74e4:	00000000 	nop
    74e8:	00000000 	nop
    74ec:	00000000 	nop
    74f0:	00000000 	nop
    74f4:	00000000 	nop
    74f8:	00000000 	nop
    74fc:	00000000 	nop
    7500:	00000000 	nop
    7504:	00000000 	nop
    7508:	00000000 	nop
    750c:	00000000 	nop
    7510:	00000000 	nop
    7514:	00000000 	nop
    7518:	00000000 	nop
    751c:	00000000 	nop
    7520:	00000000 	nop
    7524:	00000000 	nop
    7528:	00000000 	nop
    752c:	00000000 	nop
    7530:	00000000 	nop
    7534:	00000000 	nop
    7538:	00000000 	nop
    753c:	00000000 	nop
    7540:	00000000 	nop
    7544:	00000000 	nop
    7548:	00000000 	nop
    754c:	00000000 	nop
    7550:	00000000 	nop
    7554:	00000000 	nop
    7558:	00000000 	nop
    755c:	00000000 	nop
    7560:	00000000 	nop
    7564:	00000000 	nop
    7568:	00000000 	nop
    756c:	00000000 	nop
    7570:	00000000 	nop
    7574:	00000000 	nop
    7578:	00000000 	nop
    757c:	00000000 	nop
    7580:	00000000 	nop
    7584:	00000000 	nop
    7588:	00000000 	nop
    758c:	00000000 	nop
    7590:	00000000 	nop
    7594:	00000000 	nop
    7598:	00000000 	nop
    759c:	00000000 	nop
    75a0:	00000000 	nop
    75a4:	00000000 	nop
    75a8:	00000000 	nop
    75ac:	00000000 	nop
    75b0:	00000000 	nop
    75b4:	00000000 	nop
    75b8:	00000000 	nop
    75bc:	00000000 	nop
    75c0:	00000000 	nop
    75c4:	00000000 	nop
    75c8:	00000000 	nop
    75cc:	00000000 	nop
    75d0:	00000000 	nop
    75d4:	00000000 	nop
    75d8:	00000000 	nop
    75dc:	00000000 	nop
    75e0:	00000000 	nop
    75e4:	00000000 	nop
    75e8:	00000000 	nop
    75ec:	00000000 	nop
    75f0:	00000000 	nop
    75f4:	00000000 	nop
    75f8:	00000000 	nop
    75fc:	00000000 	nop
    7600:	00000000 	nop
    7604:	00000000 	nop
    7608:	00000000 	nop
    760c:	00000000 	nop
    7610:	00000000 	nop
    7614:	00000000 	nop
    7618:	00000000 	nop
    761c:	00000000 	nop
    7620:	00000000 	nop
    7624:	00000000 	nop
    7628:	00000000 	nop
    762c:	00000000 	nop
    7630:	00000000 	nop
    7634:	00000000 	nop
    7638:	00000000 	nop
    763c:	00000000 	nop
    7640:	00000000 	nop
    7644:	00000000 	nop
    7648:	00000000 	nop
    764c:	00000000 	nop
    7650:	00000000 	nop
    7654:	00000000 	nop
    7658:	00000000 	nop
    765c:	00000000 	nop
    7660:	00000000 	nop
    7664:	00000000 	nop
    7668:	00000000 	nop
    766c:	00000000 	nop
    7670:	00000000 	nop
    7674:	00000000 	nop
    7678:	00000000 	nop
    767c:	00000000 	nop
    7680:	00000000 	nop
    7684:	00000000 	nop
    7688:	00000000 	nop
    768c:	00000000 	nop
    7690:	00000000 	nop
    7694:	00000000 	nop
    7698:	00000000 	nop
    769c:	00000000 	nop
    76a0:	00000000 	nop
    76a4:	00000000 	nop
    76a8:	00000000 	nop
    76ac:	00000000 	nop
    76b0:	00000000 	nop
    76b4:	00000000 	nop
    76b8:	00000000 	nop
    76bc:	00000000 	nop
    76c0:	00000000 	nop
    76c4:	00000000 	nop
    76c8:	00000000 	nop
    76cc:	00000000 	nop
    76d0:	00000000 	nop
    76d4:	00000000 	nop
    76d8:	00000000 	nop
    76dc:	00000000 	nop
    76e0:	00000000 	nop
    76e4:	00000000 	nop
    76e8:	00000000 	nop
    76ec:	00000000 	nop
    76f0:	00000000 	nop
    76f4:	00000000 	nop
    76f8:	00000000 	nop
    76fc:	00000000 	nop
    7700:	00000000 	nop
    7704:	00000000 	nop
    7708:	00000000 	nop
    770c:	00000000 	nop
    7710:	00000000 	nop
    7714:	00000000 	nop
    7718:	00000000 	nop
    771c:	00000000 	nop
    7720:	00000000 	nop
    7724:	00000000 	nop
    7728:	00000000 	nop
    772c:	00000000 	nop
    7730:	00000000 	nop
    7734:	00000000 	nop
    7738:	00000000 	nop
    773c:	00000000 	nop
    7740:	00000000 	nop
    7744:	00000000 	nop
    7748:	00000000 	nop
    774c:	00000000 	nop
    7750:	00000000 	nop
    7754:	00000000 	nop
    7758:	00000000 	nop
    775c:	00000000 	nop
    7760:	00000000 	nop
    7764:	00000000 	nop
    7768:	00000000 	nop
    776c:	00000000 	nop
    7770:	00000000 	nop
    7774:	00000000 	nop
    7778:	00000000 	nop
    777c:	00000000 	nop
    7780:	00000000 	nop
    7784:	00000000 	nop
    7788:	00000000 	nop
    778c:	00000000 	nop
    7790:	00000000 	nop
    7794:	00000000 	nop
    7798:	00000000 	nop
    779c:	00000000 	nop
    77a0:	00000000 	nop
    77a4:	00000000 	nop
    77a8:	00000000 	nop
    77ac:	00000000 	nop
    77b0:	00000000 	nop
    77b4:	00000000 	nop
    77b8:	00000000 	nop
    77bc:	00000000 	nop
    77c0:	00000000 	nop
    77c4:	00000000 	nop
    77c8:	00000000 	nop
    77cc:	00000000 	nop
    77d0:	00000000 	nop
    77d4:	00000000 	nop
    77d8:	00000000 	nop
    77dc:	00000000 	nop
    77e0:	00000000 	nop
    77e4:	00000000 	nop
    77e8:	00000000 	nop
    77ec:	00000000 	nop
    77f0:	00000000 	nop
    77f4:	00000000 	nop
    77f8:	00000000 	nop
    77fc:	00000000 	nop
    7800:	00000000 	nop
    7804:	00000000 	nop
    7808:	00000000 	nop
    780c:	00000000 	nop
    7810:	00000000 	nop
    7814:	00000000 	nop
    7818:	00000000 	nop
    781c:	00000000 	nop
    7820:	00000000 	nop
    7824:	00000000 	nop
    7828:	00000000 	nop
    782c:	00000000 	nop
    7830:	00000000 	nop
    7834:	00000000 	nop
    7838:	00000000 	nop
    783c:	00000000 	nop
    7840:	00000000 	nop
    7844:	00000000 	nop
    7848:	00000000 	nop
    784c:	00000000 	nop
    7850:	00000000 	nop
    7854:	00000000 	nop
    7858:	00000000 	nop
    785c:	00000000 	nop
    7860:	00000000 	nop
    7864:	00000000 	nop
    7868:	00000000 	nop
    786c:	00000000 	nop
    7870:	00000000 	nop
    7874:	00000000 	nop
    7878:	00000000 	nop
    787c:	00000000 	nop
    7880:	00000000 	nop
    7884:	00000000 	nop
    7888:	00000000 	nop
    788c:	00000000 	nop
    7890:	00000000 	nop
    7894:	00000000 	nop
    7898:	00000000 	nop
    789c:	00000000 	nop
    78a0:	00000000 	nop
    78a4:	00000000 	nop
    78a8:	00000000 	nop
    78ac:	00000000 	nop
    78b0:	00000000 	nop
    78b4:	00000000 	nop
    78b8:	00000000 	nop
    78bc:	00000000 	nop
    78c0:	00000000 	nop
    78c4:	00000000 	nop
    78c8:	00000000 	nop
    78cc:	00000000 	nop
    78d0:	00000000 	nop
    78d4:	00000000 	nop
    78d8:	00000000 	nop
    78dc:	00000000 	nop
    78e0:	00000000 	nop
    78e4:	00000000 	nop
    78e8:	00000000 	nop
    78ec:	00000000 	nop
    78f0:	00000000 	nop
    78f4:	00000000 	nop
    78f8:	00000000 	nop
    78fc:	00000000 	nop
    7900:	00000000 	nop
    7904:	00000000 	nop
    7908:	00000000 	nop
    790c:	00000000 	nop
    7910:	00000000 	nop
    7914:	00000000 	nop
    7918:	00000000 	nop
    791c:	00000000 	nop
    7920:	00000000 	nop
    7924:	00000000 	nop
    7928:	00000000 	nop
    792c:	00000000 	nop
    7930:	00000000 	nop
    7934:	00000000 	nop
    7938:	00000000 	nop
    793c:	00000000 	nop
    7940:	00000000 	nop
    7944:	00000000 	nop
    7948:	00000000 	nop
    794c:	00000000 	nop
    7950:	00000000 	nop
    7954:	00000000 	nop
    7958:	00000000 	nop
    795c:	00000000 	nop
    7960:	00000000 	nop
    7964:	00000000 	nop
    7968:	00000000 	nop
    796c:	00000000 	nop
    7970:	00000000 	nop
    7974:	00000000 	nop
    7978:	00000000 	nop
    797c:	00000000 	nop
    7980:	00000000 	nop
    7984:	00000000 	nop
    7988:	00000000 	nop
    798c:	00000000 	nop
    7990:	00000000 	nop
    7994:	00000000 	nop
    7998:	00000000 	nop
    799c:	00000000 	nop
    79a0:	00000000 	nop
    79a4:	00000000 	nop
    79a8:	00000000 	nop
    79ac:	00000000 	nop
    79b0:	00000000 	nop
    79b4:	00000000 	nop
    79b8:	00000000 	nop
    79bc:	00000000 	nop
    79c0:	00000000 	nop
    79c4:	00000000 	nop
    79c8:	00000000 	nop
    79cc:	00000000 	nop
    79d0:	00000000 	nop
